
ADC_SCAN_S_DMA_HMI.elf:     file format elf32-littlearm

Sections:
Idx Name          Size      VMA       LMA       File off  Algn
  0 .isr_vector   000001d8  08000000  08000000  00010000  2**0
                  CONTENTS, ALLOC, LOAD, READONLY, DATA
  1 .text         00006ac8  080001e0  080001e0  000101e0  2**4
                  CONTENTS, ALLOC, LOAD, READONLY, CODE
  2 .rodata       000000ec  08006ca8  08006ca8  00016ca8  2**2
                  CONTENTS, ALLOC, LOAD, READONLY, DATA
  3 .ARM.extab    00000000  08006d94  08006d94  0002007c  2**0
                  CONTENTS
  4 .ARM          00000008  08006d94  08006d94  00016d94  2**2
                  CONTENTS, ALLOC, LOAD, READONLY, DATA
  5 .preinit_array 00000000  08006d9c  08006d9c  0002007c  2**0
                  CONTENTS, ALLOC, LOAD, DATA
  6 .init_array   00000004  08006d9c  08006d9c  00016d9c  2**2
                  CONTENTS, ALLOC, LOAD, DATA
  7 .fini_array   00000004  08006da0  08006da0  00016da0  2**2
                  CONTENTS, ALLOC, LOAD, DATA
  8 .data         0000007c  20000000  08006da4  00020000  2**2
                  CONTENTS, ALLOC, LOAD, DATA
  9 .bss          00000234  2000007c  08006e20  0002007c  2**2
                  ALLOC
 10 ._user_heap_stack 00000600  200002b0  08006e20  000202b0  2**0
                  ALLOC
 11 .ARM.attributes 00000030  00000000  00000000  0002007c  2**0
                  CONTENTS, READONLY
 12 .debug_info   00017a7b  00000000  00000000  000200ac  2**0
                  CONTENTS, READONLY, DEBUGGING, OCTETS
 13 .debug_abbrev 00002dfc  00000000  00000000  00037b27  2**0
                  CONTENTS, READONLY, DEBUGGING, OCTETS
 14 .debug_aranges 00000f48  00000000  00000000  0003a928  2**3
                  CONTENTS, READONLY, DEBUGGING, OCTETS
 15 .debug_ranges 00000e20  00000000  00000000  0003b870  2**3
                  CONTENTS, READONLY, DEBUGGING, OCTETS
 16 .debug_macro  00028806  00000000  00000000  0003c690  2**0
                  CONTENTS, READONLY, DEBUGGING, OCTETS
 17 .debug_line   00014c0c  00000000  00000000  00064e96  2**0
                  CONTENTS, READONLY, DEBUGGING, OCTETS
 18 .debug_str    000feefb  00000000  00000000  00079aa2  2**0
                  CONTENTS, READONLY, DEBUGGING, OCTETS
 19 .comment      00000053  00000000  00000000  0017899d  2**0
                  CONTENTS, READONLY
 20 .debug_frame  00004630  00000000  00000000  001789f0  2**2
                  CONTENTS, READONLY, DEBUGGING, OCTETS

Disassembly of section .text:

080001e0 <__do_global_dtors_aux>:
 80001e0:	b510      	push	{r4, lr}
 80001e2:	4c05      	ldr	r4, [pc, #20]	; (80001f8 <__do_global_dtors_aux+0x18>)
 80001e4:	7823      	ldrb	r3, [r4, #0]
 80001e6:	b933      	cbnz	r3, 80001f6 <__do_global_dtors_aux+0x16>
 80001e8:	4b04      	ldr	r3, [pc, #16]	; (80001fc <__do_global_dtors_aux+0x1c>)
 80001ea:	b113      	cbz	r3, 80001f2 <__do_global_dtors_aux+0x12>
 80001ec:	4804      	ldr	r0, [pc, #16]	; (8000200 <__do_global_dtors_aux+0x20>)
 80001ee:	f3af 8000 	nop.w
 80001f2:	2301      	movs	r3, #1
 80001f4:	7023      	strb	r3, [r4, #0]
 80001f6:	bd10      	pop	{r4, pc}
 80001f8:	2000007c 	.word	0x2000007c
 80001fc:	00000000 	.word	0x00000000
 8000200:	08006c90 	.word	0x08006c90

08000204 <frame_dummy>:
 8000204:	b508      	push	{r3, lr}
 8000206:	4b03      	ldr	r3, [pc, #12]	; (8000214 <frame_dummy+0x10>)
 8000208:	b11b      	cbz	r3, 8000212 <frame_dummy+0xe>
 800020a:	4903      	ldr	r1, [pc, #12]	; (8000218 <frame_dummy+0x14>)
 800020c:	4803      	ldr	r0, [pc, #12]	; (800021c <frame_dummy+0x18>)
 800020e:	f3af 8000 	nop.w
 8000212:	bd08      	pop	{r3, pc}
 8000214:	00000000 	.word	0x00000000
 8000218:	20000080 	.word	0x20000080
 800021c:	08006c90 	.word	0x08006c90

08000220 <memchr>:
 8000220:	f001 01ff 	and.w	r1, r1, #255	; 0xff
 8000224:	2a10      	cmp	r2, #16
 8000226:	db2b      	blt.n	8000280 <memchr+0x60>
 8000228:	f010 0f07 	tst.w	r0, #7
 800022c:	d008      	beq.n	8000240 <memchr+0x20>
 800022e:	f810 3b01 	ldrb.w	r3, [r0], #1
 8000232:	3a01      	subs	r2, #1
 8000234:	428b      	cmp	r3, r1
 8000236:	d02d      	beq.n	8000294 <memchr+0x74>
 8000238:	f010 0f07 	tst.w	r0, #7
 800023c:	b342      	cbz	r2, 8000290 <memchr+0x70>
 800023e:	d1f6      	bne.n	800022e <memchr+0xe>
 8000240:	b4f0      	push	{r4, r5, r6, r7}
 8000242:	ea41 2101 	orr.w	r1, r1, r1, lsl #8
 8000246:	ea41 4101 	orr.w	r1, r1, r1, lsl #16
 800024a:	f022 0407 	bic.w	r4, r2, #7
 800024e:	f07f 0700 	mvns.w	r7, #0
 8000252:	2300      	movs	r3, #0
 8000254:	e8f0 5602 	ldrd	r5, r6, [r0], #8
 8000258:	3c08      	subs	r4, #8
 800025a:	ea85 0501 	eor.w	r5, r5, r1
 800025e:	ea86 0601 	eor.w	r6, r6, r1
 8000262:	fa85 f547 	uadd8	r5, r5, r7
 8000266:	faa3 f587 	sel	r5, r3, r7
 800026a:	fa86 f647 	uadd8	r6, r6, r7
 800026e:	faa5 f687 	sel	r6, r5, r7
 8000272:	b98e      	cbnz	r6, 8000298 <memchr+0x78>
 8000274:	d1ee      	bne.n	8000254 <memchr+0x34>
 8000276:	bcf0      	pop	{r4, r5, r6, r7}
 8000278:	f001 01ff 	and.w	r1, r1, #255	; 0xff
 800027c:	f002 0207 	and.w	r2, r2, #7
 8000280:	b132      	cbz	r2, 8000290 <memchr+0x70>
 8000282:	f810 3b01 	ldrb.w	r3, [r0], #1
 8000286:	3a01      	subs	r2, #1
 8000288:	ea83 0301 	eor.w	r3, r3, r1
 800028c:	b113      	cbz	r3, 8000294 <memchr+0x74>
 800028e:	d1f8      	bne.n	8000282 <memchr+0x62>
 8000290:	2000      	movs	r0, #0
 8000292:	4770      	bx	lr
 8000294:	3801      	subs	r0, #1
 8000296:	4770      	bx	lr
 8000298:	2d00      	cmp	r5, #0
 800029a:	bf06      	itte	eq
 800029c:	4635      	moveq	r5, r6
 800029e:	3803      	subeq	r0, #3
 80002a0:	3807      	subne	r0, #7
 80002a2:	f015 0f01 	tst.w	r5, #1
 80002a6:	d107      	bne.n	80002b8 <memchr+0x98>
 80002a8:	3001      	adds	r0, #1
 80002aa:	f415 7f80 	tst.w	r5, #256	; 0x100
 80002ae:	bf02      	ittt	eq
 80002b0:	3001      	addeq	r0, #1
 80002b2:	f415 3fc0 	tsteq.w	r5, #98304	; 0x18000
 80002b6:	3001      	addeq	r0, #1
 80002b8:	bcf0      	pop	{r4, r5, r6, r7}
 80002ba:	3801      	subs	r0, #1
 80002bc:	4770      	bx	lr
 80002be:	bf00      	nop

080002c0 <__aeabi_uldivmod>:
 80002c0:	b953      	cbnz	r3, 80002d8 <__aeabi_uldivmod+0x18>
 80002c2:	b94a      	cbnz	r2, 80002d8 <__aeabi_uldivmod+0x18>
 80002c4:	2900      	cmp	r1, #0
 80002c6:	bf08      	it	eq
 80002c8:	2800      	cmpeq	r0, #0
 80002ca:	bf1c      	itt	ne
 80002cc:	f04f 31ff 	movne.w	r1, #4294967295
 80002d0:	f04f 30ff 	movne.w	r0, #4294967295
 80002d4:	f000 b96e 	b.w	80005b4 <__aeabi_idiv0>
 80002d8:	f1ad 0c08 	sub.w	ip, sp, #8
 80002dc:	e96d ce04 	strd	ip, lr, [sp, #-16]!
 80002e0:	f000 f806 	bl	80002f0 <__udivmoddi4>
 80002e4:	f8dd e004 	ldr.w	lr, [sp, #4]
 80002e8:	e9dd 2302 	ldrd	r2, r3, [sp, #8]
 80002ec:	b004      	add	sp, #16
 80002ee:	4770      	bx	lr

080002f0 <__udivmoddi4>:
 80002f0:	e92d 47f0 	stmdb	sp!, {r4, r5, r6, r7, r8, r9, sl, lr}
 80002f4:	9d08      	ldr	r5, [sp, #32]
 80002f6:	4604      	mov	r4, r0
 80002f8:	468c      	mov	ip, r1
 80002fa:	2b00      	cmp	r3, #0
 80002fc:	f040 8083 	bne.w	8000406 <__udivmoddi4+0x116>
 8000300:	428a      	cmp	r2, r1
 8000302:	4617      	mov	r7, r2
 8000304:	d947      	bls.n	8000396 <__udivmoddi4+0xa6>
 8000306:	fab2 f282 	clz	r2, r2
 800030a:	b142      	cbz	r2, 800031e <__udivmoddi4+0x2e>
 800030c:	f1c2 0020 	rsb	r0, r2, #32
 8000310:	fa24 f000 	lsr.w	r0, r4, r0
 8000314:	4091      	lsls	r1, r2
 8000316:	4097      	lsls	r7, r2
 8000318:	ea40 0c01 	orr.w	ip, r0, r1
 800031c:	4094      	lsls	r4, r2
 800031e:	ea4f 4817 	mov.w	r8, r7, lsr #16
 8000322:	0c23      	lsrs	r3, r4, #16
 8000324:	fbbc f6f8 	udiv	r6, ip, r8
 8000328:	fa1f fe87 	uxth.w	lr, r7
 800032c:	fb08 c116 	mls	r1, r8, r6, ip
 8000330:	ea43 4301 	orr.w	r3, r3, r1, lsl #16
 8000334:	fb06 f10e 	mul.w	r1, r6, lr
 8000338:	4299      	cmp	r1, r3
 800033a:	d909      	bls.n	8000350 <__udivmoddi4+0x60>
 800033c:	18fb      	adds	r3, r7, r3
 800033e:	f106 30ff 	add.w	r0, r6, #4294967295
 8000342:	f080 8119 	bcs.w	8000578 <__udivmoddi4+0x288>
 8000346:	4299      	cmp	r1, r3
 8000348:	f240 8116 	bls.w	8000578 <__udivmoddi4+0x288>
 800034c:	3e02      	subs	r6, #2
 800034e:	443b      	add	r3, r7
 8000350:	1a5b      	subs	r3, r3, r1
 8000352:	b2a4      	uxth	r4, r4
 8000354:	fbb3 f0f8 	udiv	r0, r3, r8
 8000358:	fb08 3310 	mls	r3, r8, r0, r3
 800035c:	ea44 4403 	orr.w	r4, r4, r3, lsl #16
 8000360:	fb00 fe0e 	mul.w	lr, r0, lr
 8000364:	45a6      	cmp	lr, r4
 8000366:	d909      	bls.n	800037c <__udivmoddi4+0x8c>
 8000368:	193c      	adds	r4, r7, r4
 800036a:	f100 33ff 	add.w	r3, r0, #4294967295
 800036e:	f080 8105 	bcs.w	800057c <__udivmoddi4+0x28c>
 8000372:	45a6      	cmp	lr, r4
 8000374:	f240 8102 	bls.w	800057c <__udivmoddi4+0x28c>
 8000378:	3802      	subs	r0, #2
 800037a:	443c      	add	r4, r7
 800037c:	ea40 4006 	orr.w	r0, r0, r6, lsl #16
 8000380:	eba4 040e 	sub.w	r4, r4, lr
 8000384:	2600      	movs	r6, #0
 8000386:	b11d      	cbz	r5, 8000390 <__udivmoddi4+0xa0>
 8000388:	40d4      	lsrs	r4, r2
 800038a:	2300      	movs	r3, #0
 800038c:	e9c5 4300 	strd	r4, r3, [r5]
 8000390:	4631      	mov	r1, r6
 8000392:	e8bd 87f0 	ldmia.w	sp!, {r4, r5, r6, r7, r8, r9, sl, pc}
 8000396:	b902      	cbnz	r2, 800039a <__udivmoddi4+0xaa>
 8000398:	deff      	udf	#255	; 0xff
 800039a:	fab2 f282 	clz	r2, r2
 800039e:	2a00      	cmp	r2, #0
 80003a0:	d150      	bne.n	8000444 <__udivmoddi4+0x154>
 80003a2:	1bcb      	subs	r3, r1, r7
 80003a4:	ea4f 4e17 	mov.w	lr, r7, lsr #16
 80003a8:	fa1f f887 	uxth.w	r8, r7
 80003ac:	2601      	movs	r6, #1
 80003ae:	fbb3 fcfe 	udiv	ip, r3, lr
 80003b2:	0c21      	lsrs	r1, r4, #16
 80003b4:	fb0e 331c 	mls	r3, lr, ip, r3
 80003b8:	ea41 4103 	orr.w	r1, r1, r3, lsl #16
 80003bc:	fb08 f30c 	mul.w	r3, r8, ip
 80003c0:	428b      	cmp	r3, r1
 80003c2:	d907      	bls.n	80003d4 <__udivmoddi4+0xe4>
 80003c4:	1879      	adds	r1, r7, r1
 80003c6:	f10c 30ff 	add.w	r0, ip, #4294967295
 80003ca:	d202      	bcs.n	80003d2 <__udivmoddi4+0xe2>
 80003cc:	428b      	cmp	r3, r1
 80003ce:	f200 80e9 	bhi.w	80005a4 <__udivmoddi4+0x2b4>
 80003d2:	4684      	mov	ip, r0
 80003d4:	1ac9      	subs	r1, r1, r3
 80003d6:	b2a3      	uxth	r3, r4
 80003d8:	fbb1 f0fe 	udiv	r0, r1, lr
 80003dc:	fb0e 1110 	mls	r1, lr, r0, r1
 80003e0:	ea43 4401 	orr.w	r4, r3, r1, lsl #16
 80003e4:	fb08 f800 	mul.w	r8, r8, r0
 80003e8:	45a0      	cmp	r8, r4
 80003ea:	d907      	bls.n	80003fc <__udivmoddi4+0x10c>
 80003ec:	193c      	adds	r4, r7, r4
 80003ee:	f100 33ff 	add.w	r3, r0, #4294967295
 80003f2:	d202      	bcs.n	80003fa <__udivmoddi4+0x10a>
 80003f4:	45a0      	cmp	r8, r4
 80003f6:	f200 80d9 	bhi.w	80005ac <__udivmoddi4+0x2bc>
 80003fa:	4618      	mov	r0, r3
 80003fc:	eba4 0408 	sub.w	r4, r4, r8
 8000400:	ea40 400c 	orr.w	r0, r0, ip, lsl #16
 8000404:	e7bf      	b.n	8000386 <__udivmoddi4+0x96>
 8000406:	428b      	cmp	r3, r1
 8000408:	d909      	bls.n	800041e <__udivmoddi4+0x12e>
 800040a:	2d00      	cmp	r5, #0
 800040c:	f000 80b1 	beq.w	8000572 <__udivmoddi4+0x282>
 8000410:	2600      	movs	r6, #0
 8000412:	e9c5 0100 	strd	r0, r1, [r5]
 8000416:	4630      	mov	r0, r6
 8000418:	4631      	mov	r1, r6
 800041a:	e8bd 87f0 	ldmia.w	sp!, {r4, r5, r6, r7, r8, r9, sl, pc}
 800041e:	fab3 f683 	clz	r6, r3
 8000422:	2e00      	cmp	r6, #0
 8000424:	d14a      	bne.n	80004bc <__udivmoddi4+0x1cc>
 8000426:	428b      	cmp	r3, r1
 8000428:	d302      	bcc.n	8000430 <__udivmoddi4+0x140>
 800042a:	4282      	cmp	r2, r0
 800042c:	f200 80b8 	bhi.w	80005a0 <__udivmoddi4+0x2b0>
 8000430:	1a84      	subs	r4, r0, r2
 8000432:	eb61 0103 	sbc.w	r1, r1, r3
 8000436:	2001      	movs	r0, #1
 8000438:	468c      	mov	ip, r1
 800043a:	2d00      	cmp	r5, #0
 800043c:	d0a8      	beq.n	8000390 <__udivmoddi4+0xa0>
 800043e:	e9c5 4c00 	strd	r4, ip, [r5]
 8000442:	e7a5      	b.n	8000390 <__udivmoddi4+0xa0>
 8000444:	f1c2 0320 	rsb	r3, r2, #32
 8000448:	fa20 f603 	lsr.w	r6, r0, r3
 800044c:	4097      	lsls	r7, r2
 800044e:	fa01 f002 	lsl.w	r0, r1, r2
 8000452:	ea4f 4e17 	mov.w	lr, r7, lsr #16
 8000456:	40d9      	lsrs	r1, r3
 8000458:	4330      	orrs	r0, r6
 800045a:	0c03      	lsrs	r3, r0, #16
 800045c:	fbb1 f6fe 	udiv	r6, r1, lr
 8000460:	fa1f f887 	uxth.w	r8, r7
 8000464:	fb0e 1116 	mls	r1, lr, r6, r1
 8000468:	ea43 4301 	orr.w	r3, r3, r1, lsl #16
 800046c:	fb06 f108 	mul.w	r1, r6, r8
 8000470:	4299      	cmp	r1, r3
 8000472:	fa04 f402 	lsl.w	r4, r4, r2
 8000476:	d909      	bls.n	800048c <__udivmoddi4+0x19c>
 8000478:	18fb      	adds	r3, r7, r3
 800047a:	f106 3cff 	add.w	ip, r6, #4294967295
 800047e:	f080 808d 	bcs.w	800059c <__udivmoddi4+0x2ac>
 8000482:	4299      	cmp	r1, r3
 8000484:	f240 808a 	bls.w	800059c <__udivmoddi4+0x2ac>
 8000488:	3e02      	subs	r6, #2
 800048a:	443b      	add	r3, r7
 800048c:	1a5b      	subs	r3, r3, r1
 800048e:	b281      	uxth	r1, r0
 8000490:	fbb3 f0fe 	udiv	r0, r3, lr
 8000494:	fb0e 3310 	mls	r3, lr, r0, r3
 8000498:	ea41 4103 	orr.w	r1, r1, r3, lsl #16
 800049c:	fb00 f308 	mul.w	r3, r0, r8
 80004a0:	428b      	cmp	r3, r1
 80004a2:	d907      	bls.n	80004b4 <__udivmoddi4+0x1c4>
 80004a4:	1879      	adds	r1, r7, r1
 80004a6:	f100 3cff 	add.w	ip, r0, #4294967295
 80004aa:	d273      	bcs.n	8000594 <__udivmoddi4+0x2a4>
 80004ac:	428b      	cmp	r3, r1
 80004ae:	d971      	bls.n	8000594 <__udivmoddi4+0x2a4>
 80004b0:	3802      	subs	r0, #2
 80004b2:	4439      	add	r1, r7
 80004b4:	1acb      	subs	r3, r1, r3
 80004b6:	ea40 4606 	orr.w	r6, r0, r6, lsl #16
 80004ba:	e778      	b.n	80003ae <__udivmoddi4+0xbe>
 80004bc:	f1c6 0c20 	rsb	ip, r6, #32
 80004c0:	fa03 f406 	lsl.w	r4, r3, r6
 80004c4:	fa22 f30c 	lsr.w	r3, r2, ip
 80004c8:	431c      	orrs	r4, r3
 80004ca:	fa20 f70c 	lsr.w	r7, r0, ip
 80004ce:	fa01 f306 	lsl.w	r3, r1, r6
 80004d2:	ea4f 4e14 	mov.w	lr, r4, lsr #16
 80004d6:	fa21 f10c 	lsr.w	r1, r1, ip
 80004da:	431f      	orrs	r7, r3
 80004dc:	0c3b      	lsrs	r3, r7, #16
 80004de:	fbb1 f9fe 	udiv	r9, r1, lr
 80004e2:	fa1f f884 	uxth.w	r8, r4
 80004e6:	fb0e 1119 	mls	r1, lr, r9, r1
 80004ea:	ea43 4101 	orr.w	r1, r3, r1, lsl #16
 80004ee:	fb09 fa08 	mul.w	sl, r9, r8
 80004f2:	458a      	cmp	sl, r1
 80004f4:	fa02 f206 	lsl.w	r2, r2, r6
 80004f8:	fa00 f306 	lsl.w	r3, r0, r6
 80004fc:	d908      	bls.n	8000510 <__udivmoddi4+0x220>
 80004fe:	1861      	adds	r1, r4, r1
 8000500:	f109 30ff 	add.w	r0, r9, #4294967295
 8000504:	d248      	bcs.n	8000598 <__udivmoddi4+0x2a8>
 8000506:	458a      	cmp	sl, r1
 8000508:	d946      	bls.n	8000598 <__udivmoddi4+0x2a8>
 800050a:	f1a9 0902 	sub.w	r9, r9, #2
 800050e:	4421      	add	r1, r4
 8000510:	eba1 010a 	sub.w	r1, r1, sl
 8000514:	b2bf      	uxth	r7, r7
 8000516:	fbb1 f0fe 	udiv	r0, r1, lr
 800051a:	fb0e 1110 	mls	r1, lr, r0, r1
 800051e:	ea47 4701 	orr.w	r7, r7, r1, lsl #16
 8000522:	fb00 f808 	mul.w	r8, r0, r8
 8000526:	45b8      	cmp	r8, r7
 8000528:	d907      	bls.n	800053a <__udivmoddi4+0x24a>
 800052a:	19e7      	adds	r7, r4, r7
 800052c:	f100 31ff 	add.w	r1, r0, #4294967295
 8000530:	d22e      	bcs.n	8000590 <__udivmoddi4+0x2a0>
 8000532:	45b8      	cmp	r8, r7
 8000534:	d92c      	bls.n	8000590 <__udivmoddi4+0x2a0>
 8000536:	3802      	subs	r0, #2
 8000538:	4427      	add	r7, r4
 800053a:	ea40 4009 	orr.w	r0, r0, r9, lsl #16
 800053e:	eba7 0708 	sub.w	r7, r7, r8
 8000542:	fba0 8902 	umull	r8, r9, r0, r2
 8000546:	454f      	cmp	r7, r9
 8000548:	46c6      	mov	lr, r8
 800054a:	4649      	mov	r1, r9
 800054c:	d31a      	bcc.n	8000584 <__udivmoddi4+0x294>
 800054e:	d017      	beq.n	8000580 <__udivmoddi4+0x290>
 8000550:	b15d      	cbz	r5, 800056a <__udivmoddi4+0x27a>
 8000552:	ebb3 020e 	subs.w	r2, r3, lr
 8000556:	eb67 0701 	sbc.w	r7, r7, r1
 800055a:	fa07 fc0c 	lsl.w	ip, r7, ip
 800055e:	40f2      	lsrs	r2, r6
 8000560:	ea4c 0202 	orr.w	r2, ip, r2
 8000564:	40f7      	lsrs	r7, r6
 8000566:	e9c5 2700 	strd	r2, r7, [r5]
 800056a:	2600      	movs	r6, #0
 800056c:	4631      	mov	r1, r6
 800056e:	e8bd 87f0 	ldmia.w	sp!, {r4, r5, r6, r7, r8, r9, sl, pc}
 8000572:	462e      	mov	r6, r5
 8000574:	4628      	mov	r0, r5
 8000576:	e70b      	b.n	8000390 <__udivmoddi4+0xa0>
 8000578:	4606      	mov	r6, r0
 800057a:	e6e9      	b.n	8000350 <__udivmoddi4+0x60>
 800057c:	4618      	mov	r0, r3
 800057e:	e6fd      	b.n	800037c <__udivmoddi4+0x8c>
 8000580:	4543      	cmp	r3, r8
 8000582:	d2e5      	bcs.n	8000550 <__udivmoddi4+0x260>
 8000584:	ebb8 0e02 	subs.w	lr, r8, r2
 8000588:	eb69 0104 	sbc.w	r1, r9, r4
 800058c:	3801      	subs	r0, #1
 800058e:	e7df      	b.n	8000550 <__udivmoddi4+0x260>
 8000590:	4608      	mov	r0, r1
 8000592:	e7d2      	b.n	800053a <__udivmoddi4+0x24a>
 8000594:	4660      	mov	r0, ip
 8000596:	e78d      	b.n	80004b4 <__udivmoddi4+0x1c4>
 8000598:	4681      	mov	r9, r0
 800059a:	e7b9      	b.n	8000510 <__udivmoddi4+0x220>
 800059c:	4666      	mov	r6, ip
 800059e:	e775      	b.n	800048c <__udivmoddi4+0x19c>
 80005a0:	4630      	mov	r0, r6
 80005a2:	e74a      	b.n	800043a <__udivmoddi4+0x14a>
 80005a4:	f1ac 0c02 	sub.w	ip, ip, #2
 80005a8:	4439      	add	r1, r7
 80005aa:	e713      	b.n	80003d4 <__udivmoddi4+0xe4>
 80005ac:	3802      	subs	r0, #2
 80005ae:	443c      	add	r4, r7
 80005b0:	e724      	b.n	80003fc <__udivmoddi4+0x10c>
 80005b2:	bf00      	nop

080005b4 <__aeabi_idiv0>:
 80005b4:	4770      	bx	lr
 80005b6:	bf00      	nop

080005b8 <MX_ADC1_Init>:
 80005b8:	b580      	push	{r7, lr}
 80005ba:	b08c      	sub	sp, #48	; 0x30
 80005bc:	af00      	add	r7, sp, #0
 80005be:	f107 0324 	add.w	r3, r7, #36	; 0x24
 80005c2:	2200      	movs	r2, #0
 80005c4:	601a      	str	r2, [r3, #0]
 80005c6:	605a      	str	r2, [r3, #4]
 80005c8:	609a      	str	r2, [r3, #8]
 80005ca:	1d3b      	adds	r3, r7, #4
 80005cc:	2220      	movs	r2, #32
 80005ce:	2100      	movs	r1, #0
 80005d0:	4618      	mov	r0, r3
 80005d2:	f005 fbff 	bl	8005dd4 <memset>
 80005d6:	4b39      	ldr	r3, [pc, #228]	; (80006bc <MX_ADC1_Init+0x104>)
 80005d8:	f04f 42a0 	mov.w	r2, #1342177280	; 0x50000000
 80005dc:	601a      	str	r2, [r3, #0]
 80005de:	4b37      	ldr	r3, [pc, #220]	; (80006bc <MX_ADC1_Init+0x104>)
 80005e0:	f44f 3240 	mov.w	r2, #196608	; 0x30000
 80005e4:	605a      	str	r2, [r3, #4]
 80005e6:	4b35      	ldr	r3, [pc, #212]	; (80006bc <MX_ADC1_Init+0x104>)
 80005e8:	2200      	movs	r2, #0
 80005ea:	609a      	str	r2, [r3, #8]
 80005ec:	4b33      	ldr	r3, [pc, #204]	; (80006bc <MX_ADC1_Init+0x104>)
 80005ee:	2200      	movs	r2, #0
 80005f0:	60da      	str	r2, [r3, #12]
 80005f2:	4b32      	ldr	r3, [pc, #200]	; (80006bc <MX_ADC1_Init+0x104>)
 80005f4:	2200      	movs	r2, #0
 80005f6:	611a      	str	r2, [r3, #16]
 80005f8:	4b30      	ldr	r3, [pc, #192]	; (80006bc <MX_ADC1_Init+0x104>)
 80005fa:	2201      	movs	r2, #1
 80005fc:	615a      	str	r2, [r3, #20]
 80005fe:	4b2f      	ldr	r3, [pc, #188]	; (80006bc <MX_ADC1_Init+0x104>)
 8000600:	2204      	movs	r2, #4
 8000602:	619a      	str	r2, [r3, #24]
 8000604:	4b2d      	ldr	r3, [pc, #180]	; (80006bc <MX_ADC1_Init+0x104>)
 8000606:	2200      	movs	r2, #0
 8000608:	771a      	strb	r2, [r3, #28]
 800060a:	4b2c      	ldr	r3, [pc, #176]	; (80006bc <MX_ADC1_Init+0x104>)
 800060c:	2200      	movs	r2, #0
 800060e:	775a      	strb	r2, [r3, #29]
 8000610:	4b2a      	ldr	r3, [pc, #168]	; (80006bc <MX_ADC1_Init+0x104>)
 8000612:	2202      	movs	r2, #2
 8000614:	621a      	str	r2, [r3, #32]
 8000616:	4b29      	ldr	r3, [pc, #164]	; (80006bc <MX_ADC1_Init+0x104>)
 8000618:	2200      	movs	r2, #0
 800061a:	f883 2024 	strb.w	r2, [r3, #36]	; 0x24
 800061e:	4b27      	ldr	r3, [pc, #156]	; (80006bc <MX_ADC1_Init+0x104>)
 8000620:	2200      	movs	r2, #0
 8000622:	62da      	str	r2, [r3, #44]	; 0x2c
 8000624:	4b25      	ldr	r3, [pc, #148]	; (80006bc <MX_ADC1_Init+0x104>)
 8000626:	2200      	movs	r2, #0
 8000628:	631a      	str	r2, [r3, #48]	; 0x30
 800062a:	4b24      	ldr	r3, [pc, #144]	; (80006bc <MX_ADC1_Init+0x104>)
 800062c:	2200      	movs	r2, #0
 800062e:	f883 2038 	strb.w	r2, [r3, #56]	; 0x38
 8000632:	4b22      	ldr	r3, [pc, #136]	; (80006bc <MX_ADC1_Init+0x104>)
 8000634:	2200      	movs	r2, #0
 8000636:	63da      	str	r2, [r3, #60]	; 0x3c
 8000638:	4b20      	ldr	r3, [pc, #128]	; (80006bc <MX_ADC1_Init+0x104>)
 800063a:	2200      	movs	r2, #0
 800063c:	f883 2040 	strb.w	r2, [r3, #64]	; 0x40
 8000640:	481e      	ldr	r0, [pc, #120]	; (80006bc <MX_ADC1_Init+0x104>)
 8000642:	f000 ff71 	bl	8001528 <HAL_ADC_Init>
 8000646:	4603      	mov	r3, r0
 8000648:	2b00      	cmp	r3, #0
 800064a:	d001      	beq.n	8000650 <MX_ADC1_Init+0x98>
 800064c:	f000 fa48 	bl	8000ae0 <Error_Handler>
 8000650:	2300      	movs	r3, #0
 8000652:	627b      	str	r3, [r7, #36]	; 0x24
 8000654:	f107 0324 	add.w	r3, r7, #36	; 0x24
 8000658:	4619      	mov	r1, r3
 800065a:	4818      	ldr	r0, [pc, #96]	; (80006bc <MX_ADC1_Init+0x104>)
 800065c:	f001 ff64 	bl	8002528 <HAL_ADCEx_MultiModeConfigChannel>
 8000660:	4603      	mov	r3, r0
 8000662:	2b00      	cmp	r3, #0
 8000664:	d001      	beq.n	800066a <MX_ADC1_Init+0xb2>
 8000666:	f000 fa3b 	bl	8000ae0 <Error_Handler>
 800066a:	4b15      	ldr	r3, [pc, #84]	; (80006c0 <MX_ADC1_Init+0x108>)
 800066c:	607b      	str	r3, [r7, #4]
 800066e:	2306      	movs	r3, #6
 8000670:	60bb      	str	r3, [r7, #8]
 8000672:	2304      	movs	r3, #4
 8000674:	60fb      	str	r3, [r7, #12]
 8000676:	237f      	movs	r3, #127	; 0x7f
 8000678:	613b      	str	r3, [r7, #16]
 800067a:	2304      	movs	r3, #4
 800067c:	617b      	str	r3, [r7, #20]
 800067e:	2300      	movs	r3, #0
 8000680:	61bb      	str	r3, [r7, #24]
 8000682:	1d3b      	adds	r3, r7, #4
 8000684:	4619      	mov	r1, r3
 8000686:	480d      	ldr	r0, [pc, #52]	; (80006bc <MX_ADC1_Init+0x104>)
 8000688:	f001 f9f2 	bl	8001a70 <HAL_ADC_ConfigChannel>
 800068c:	4603      	mov	r3, r0
 800068e:	2b00      	cmp	r3, #0
 8000690:	d001      	beq.n	8000696 <MX_ADC1_Init+0xde>
 8000692:	f000 fa25 	bl	8000ae0 <Error_Handler>
 8000696:	4b0b      	ldr	r3, [pc, #44]	; (80006c4 <MX_ADC1_Init+0x10c>)
 8000698:	607b      	str	r3, [r7, #4]
 800069a:	230c      	movs	r3, #12
 800069c:	60bb      	str	r3, [r7, #8]
 800069e:	1d3b      	adds	r3, r7, #4
 80006a0:	4619      	mov	r1, r3
 80006a2:	4806      	ldr	r0, [pc, #24]	; (80006bc <MX_ADC1_Init+0x104>)
 80006a4:	f001 f9e4 	bl	8001a70 <HAL_ADC_ConfigChannel>
 80006a8:	4603      	mov	r3, r0
 80006aa:	2b00      	cmp	r3, #0
 80006ac:	d001      	beq.n	80006b2 <MX_ADC1_Init+0xfa>
 80006ae:	f000 fa17 	bl	8000ae0 <Error_Handler>
 80006b2:	bf00      	nop
 80006b4:	3730      	adds	r7, #48	; 0x30
 80006b6:	46bd      	mov	sp, r7
 80006b8:	bd80      	pop	{r7, pc}
 80006ba:	bf00      	nop
 80006bc:	200000a8 	.word	0x200000a8
 80006c0:	19200040 	.word	0x19200040
 80006c4:	1d500080 	.word	0x1d500080

080006c8 <HAL_ADC_MspInit>:
 80006c8:	b580      	push	{r7, lr}
 80006ca:	b08a      	sub	sp, #40	; 0x28
 80006cc:	af00      	add	r7, sp, #0
 80006ce:	6078      	str	r0, [r7, #4]
 80006d0:	f107 0314 	add.w	r3, r7, #20
 80006d4:	2200      	movs	r2, #0
 80006d6:	601a      	str	r2, [r3, #0]
 80006d8:	605a      	str	r2, [r3, #4]
 80006da:	609a      	str	r2, [r3, #8]
 80006dc:	60da      	str	r2, [r3, #12]
 80006de:	611a      	str	r2, [r3, #16]
 80006e0:	687b      	ldr	r3, [r7, #4]
 80006e2:	681b      	ldr	r3, [r3, #0]
 80006e4:	f1b3 4fa0 	cmp.w	r3, #1342177280	; 0x50000000
 80006e8:	d14e      	bne.n	8000788 <HAL_ADC_MspInit+0xc0>
 80006ea:	4b29      	ldr	r3, [pc, #164]	; (8000790 <HAL_ADC_MspInit+0xc8>)
 80006ec:	6cdb      	ldr	r3, [r3, #76]	; 0x4c
 80006ee:	4a28      	ldr	r2, [pc, #160]	; (8000790 <HAL_ADC_MspInit+0xc8>)
 80006f0:	f443 5300 	orr.w	r3, r3, #8192	; 0x2000
 80006f4:	64d3      	str	r3, [r2, #76]	; 0x4c
 80006f6:	4b26      	ldr	r3, [pc, #152]	; (8000790 <HAL_ADC_MspInit+0xc8>)
 80006f8:	6cdb      	ldr	r3, [r3, #76]	; 0x4c
 80006fa:	f403 5300 	and.w	r3, r3, #8192	; 0x2000
 80006fe:	613b      	str	r3, [r7, #16]
 8000700:	693b      	ldr	r3, [r7, #16]
 8000702:	4b23      	ldr	r3, [pc, #140]	; (8000790 <HAL_ADC_MspInit+0xc8>)
 8000704:	6cdb      	ldr	r3, [r3, #76]	; 0x4c
 8000706:	4a22      	ldr	r2, [pc, #136]	; (8000790 <HAL_ADC_MspInit+0xc8>)
 8000708:	f043 0304 	orr.w	r3, r3, #4
 800070c:	64d3      	str	r3, [r2, #76]	; 0x4c
 800070e:	4b20      	ldr	r3, [pc, #128]	; (8000790 <HAL_ADC_MspInit+0xc8>)
 8000710:	6cdb      	ldr	r3, [r3, #76]	; 0x4c
 8000712:	f003 0304 	and.w	r3, r3, #4
 8000716:	60fb      	str	r3, [r7, #12]
 8000718:	68fb      	ldr	r3, [r7, #12]
 800071a:	2303      	movs	r3, #3
 800071c:	617b      	str	r3, [r7, #20]
 800071e:	2303      	movs	r3, #3
 8000720:	61bb      	str	r3, [r7, #24]
 8000722:	2300      	movs	r3, #0
 8000724:	61fb      	str	r3, [r7, #28]
 8000726:	f107 0314 	add.w	r3, r7, #20
 800072a:	4619      	mov	r1, r3
 800072c:	4819      	ldr	r0, [pc, #100]	; (8000794 <HAL_ADC_MspInit+0xcc>)
 800072e:	f002 fc45 	bl	8002fbc <HAL_GPIO_Init>
 8000732:	4b19      	ldr	r3, [pc, #100]	; (8000798 <HAL_ADC_MspInit+0xd0>)
 8000734:	4a19      	ldr	r2, [pc, #100]	; (800079c <HAL_ADC_MspInit+0xd4>)
 8000736:	601a      	str	r2, [r3, #0]
 8000738:	4b17      	ldr	r3, [pc, #92]	; (8000798 <HAL_ADC_MspInit+0xd0>)
 800073a:	2205      	movs	r2, #5
 800073c:	605a      	str	r2, [r3, #4]
 800073e:	4b16      	ldr	r3, [pc, #88]	; (8000798 <HAL_ADC_MspInit+0xd0>)
 8000740:	2200      	movs	r2, #0
 8000742:	609a      	str	r2, [r3, #8]
 8000744:	4b14      	ldr	r3, [pc, #80]	; (8000798 <HAL_ADC_MspInit+0xd0>)
 8000746:	2200      	movs	r2, #0
 8000748:	60da      	str	r2, [r3, #12]
 800074a:	4b13      	ldr	r3, [pc, #76]	; (8000798 <HAL_ADC_MspInit+0xd0>)
 800074c:	2280      	movs	r2, #128	; 0x80
 800074e:	611a      	str	r2, [r3, #16]
 8000750:	4b11      	ldr	r3, [pc, #68]	; (8000798 <HAL_ADC_MspInit+0xd0>)
 8000752:	f44f 7200 	mov.w	r2, #512	; 0x200
 8000756:	615a      	str	r2, [r3, #20]
 8000758:	4b0f      	ldr	r3, [pc, #60]	; (8000798 <HAL_ADC_MspInit+0xd0>)
 800075a:	f44f 6200 	mov.w	r2, #2048	; 0x800
 800075e:	619a      	str	r2, [r3, #24]
 8000760:	4b0d      	ldr	r3, [pc, #52]	; (8000798 <HAL_ADC_MspInit+0xd0>)
 8000762:	2200      	movs	r2, #0
 8000764:	61da      	str	r2, [r3, #28]
 8000766:	4b0c      	ldr	r3, [pc, #48]	; (8000798 <HAL_ADC_MspInit+0xd0>)
 8000768:	2200      	movs	r2, #0
 800076a:	621a      	str	r2, [r3, #32]
 800076c:	480a      	ldr	r0, [pc, #40]	; (8000798 <HAL_ADC_MspInit+0xd0>)
 800076e:	f002 f8f3 	bl	8002958 <HAL_DMA_Init>
 8000772:	4603      	mov	r3, r0
 8000774:	2b00      	cmp	r3, #0
 8000776:	d001      	beq.n	800077c <HAL_ADC_MspInit+0xb4>
 8000778:	f000 f9b2 	bl	8000ae0 <Error_Handler>
 800077c:	687b      	ldr	r3, [r7, #4]
 800077e:	4a06      	ldr	r2, [pc, #24]	; (8000798 <HAL_ADC_MspInit+0xd0>)
 8000780:	655a      	str	r2, [r3, #84]	; 0x54
 8000782:	4a05      	ldr	r2, [pc, #20]	; (8000798 <HAL_ADC_MspInit+0xd0>)
 8000784:	687b      	ldr	r3, [r7, #4]
 8000786:	6293      	str	r3, [r2, #40]	; 0x28
 8000788:	bf00      	nop
 800078a:	3728      	adds	r7, #40	; 0x28
 800078c:	46bd      	mov	sp, r7
 800078e:	bd80      	pop	{r7, pc}
 8000790:	40021000 	.word	0x40021000
 8000794:	48000800 	.word	0x48000800
 8000798:	20000114 	.word	0x20000114
 800079c:	40020008 	.word	0x40020008

080007a0 <MX_DMA_Init>:
 80007a0:	b580      	push	{r7, lr}
 80007a2:	b082      	sub	sp, #8
 80007a4:	af00      	add	r7, sp, #0
 80007a6:	4b12      	ldr	r3, [pc, #72]	; (80007f0 <MX_DMA_Init+0x50>)
 80007a8:	6c9b      	ldr	r3, [r3, #72]	; 0x48
 80007aa:	4a11      	ldr	r2, [pc, #68]	; (80007f0 <MX_DMA_Init+0x50>)
 80007ac:	f043 0304 	orr.w	r3, r3, #4
 80007b0:	6493      	str	r3, [r2, #72]	; 0x48
 80007b2:	4b0f      	ldr	r3, [pc, #60]	; (80007f0 <MX_DMA_Init+0x50>)
 80007b4:	6c9b      	ldr	r3, [r3, #72]	; 0x48
 80007b6:	f003 0304 	and.w	r3, r3, #4
 80007ba:	607b      	str	r3, [r7, #4]
 80007bc:	687b      	ldr	r3, [r7, #4]
 80007be:	4b0c      	ldr	r3, [pc, #48]	; (80007f0 <MX_DMA_Init+0x50>)
 80007c0:	6c9b      	ldr	r3, [r3, #72]	; 0x48
 80007c2:	4a0b      	ldr	r2, [pc, #44]	; (80007f0 <MX_DMA_Init+0x50>)
 80007c4:	f043 0301 	orr.w	r3, r3, #1
 80007c8:	6493      	str	r3, [r2, #72]	; 0x48
 80007ca:	4b09      	ldr	r3, [pc, #36]	; (80007f0 <MX_DMA_Init+0x50>)
 80007cc:	6c9b      	ldr	r3, [r3, #72]	; 0x48
 80007ce:	f003 0301 	and.w	r3, r3, #1
 80007d2:	603b      	str	r3, [r7, #0]
 80007d4:	683b      	ldr	r3, [r7, #0]
 80007d6:	2200      	movs	r2, #0
 80007d8:	2100      	movs	r1, #0
 80007da:	200b      	movs	r0, #11
 80007dc:	f002 f887 	bl	80028ee <HAL_NVIC_SetPriority>
 80007e0:	200b      	movs	r0, #11
 80007e2:	f002 f89e 	bl	8002922 <HAL_NVIC_EnableIRQ>
 80007e6:	bf00      	nop
 80007e8:	3708      	adds	r7, #8
 80007ea:	46bd      	mov	sp, r7
 80007ec:	bd80      	pop	{r7, pc}
 80007ee:	bf00      	nop
 80007f0:	40021000 	.word	0x40021000

080007f4 <MX_GPIO_Init>:
 80007f4:	b580      	push	{r7, lr}
 80007f6:	b08a      	sub	sp, #40	; 0x28
 80007f8:	af00      	add	r7, sp, #0
 80007fa:	f107 0314 	add.w	r3, r7, #20
 80007fe:	2200      	movs	r2, #0
 8000800:	601a      	str	r2, [r3, #0]
 8000802:	605a      	str	r2, [r3, #4]
 8000804:	609a      	str	r2, [r3, #8]
 8000806:	60da      	str	r2, [r3, #12]
 8000808:	611a      	str	r2, [r3, #16]
 800080a:	4b2f      	ldr	r3, [pc, #188]	; (80008c8 <MX_GPIO_Init+0xd4>)
 800080c:	6cdb      	ldr	r3, [r3, #76]	; 0x4c
 800080e:	4a2e      	ldr	r2, [pc, #184]	; (80008c8 <MX_GPIO_Init+0xd4>)
 8000810:	f043 0304 	orr.w	r3, r3, #4
 8000814:	64d3      	str	r3, [r2, #76]	; 0x4c
 8000816:	4b2c      	ldr	r3, [pc, #176]	; (80008c8 <MX_GPIO_Init+0xd4>)
 8000818:	6cdb      	ldr	r3, [r3, #76]	; 0x4c
 800081a:	f003 0304 	and.w	r3, r3, #4
 800081e:	613b      	str	r3, [r7, #16]
 8000820:	693b      	ldr	r3, [r7, #16]
 8000822:	4b29      	ldr	r3, [pc, #164]	; (80008c8 <MX_GPIO_Init+0xd4>)
 8000824:	6cdb      	ldr	r3, [r3, #76]	; 0x4c
 8000826:	4a28      	ldr	r2, [pc, #160]	; (80008c8 <MX_GPIO_Init+0xd4>)
 8000828:	f043 0320 	orr.w	r3, r3, #32
 800082c:	64d3      	str	r3, [r2, #76]	; 0x4c
 800082e:	4b26      	ldr	r3, [pc, #152]	; (80008c8 <MX_GPIO_Init+0xd4>)
 8000830:	6cdb      	ldr	r3, [r3, #76]	; 0x4c
 8000832:	f003 0320 	and.w	r3, r3, #32
 8000836:	60fb      	str	r3, [r7, #12]
 8000838:	68fb      	ldr	r3, [r7, #12]
 800083a:	4b23      	ldr	r3, [pc, #140]	; (80008c8 <MX_GPIO_Init+0xd4>)
 800083c:	6cdb      	ldr	r3, [r3, #76]	; 0x4c
 800083e:	4a22      	ldr	r2, [pc, #136]	; (80008c8 <MX_GPIO_Init+0xd4>)
 8000840:	f043 0301 	orr.w	r3, r3, #1
 8000844:	64d3      	str	r3, [r2, #76]	; 0x4c
 8000846:	4b20      	ldr	r3, [pc, #128]	; (80008c8 <MX_GPIO_Init+0xd4>)
 8000848:	6cdb      	ldr	r3, [r3, #76]	; 0x4c
 800084a:	f003 0301 	and.w	r3, r3, #1
 800084e:	60bb      	str	r3, [r7, #8]
 8000850:	68bb      	ldr	r3, [r7, #8]
 8000852:	4b1d      	ldr	r3, [pc, #116]	; (80008c8 <MX_GPIO_Init+0xd4>)
 8000854:	6cdb      	ldr	r3, [r3, #76]	; 0x4c
 8000856:	4a1c      	ldr	r2, [pc, #112]	; (80008c8 <MX_GPIO_Init+0xd4>)
 8000858:	f043 0302 	orr.w	r3, r3, #2
 800085c:	64d3      	str	r3, [r2, #76]	; 0x4c
 800085e:	4b1a      	ldr	r3, [pc, #104]	; (80008c8 <MX_GPIO_Init+0xd4>)
 8000860:	6cdb      	ldr	r3, [r3, #76]	; 0x4c
 8000862:	f003 0302 	and.w	r3, r3, #2
 8000866:	607b      	str	r3, [r7, #4]
 8000868:	687b      	ldr	r3, [r7, #4]
 800086a:	2200      	movs	r2, #0
 800086c:	2120      	movs	r1, #32
 800086e:	f04f 4090 	mov.w	r0, #1207959552	; 0x48000000
 8000872:	f002 fd25 	bl	80032c0 <HAL_GPIO_WritePin>
 8000876:	f44f 5300 	mov.w	r3, #8192	; 0x2000
 800087a:	617b      	str	r3, [r7, #20]
 800087c:	4b13      	ldr	r3, [pc, #76]	; (80008cc <MX_GPIO_Init+0xd8>)
 800087e:	61bb      	str	r3, [r7, #24]
 8000880:	2300      	movs	r3, #0
 8000882:	61fb      	str	r3, [r7, #28]
 8000884:	f107 0314 	add.w	r3, r7, #20
 8000888:	4619      	mov	r1, r3
 800088a:	4811      	ldr	r0, [pc, #68]	; (80008d0 <MX_GPIO_Init+0xdc>)
 800088c:	f002 fb96 	bl	8002fbc <HAL_GPIO_Init>
 8000890:	2320      	movs	r3, #32
 8000892:	617b      	str	r3, [r7, #20]
 8000894:	2301      	movs	r3, #1
 8000896:	61bb      	str	r3, [r7, #24]
 8000898:	2300      	movs	r3, #0
 800089a:	61fb      	str	r3, [r7, #28]
 800089c:	2300      	movs	r3, #0
 800089e:	623b      	str	r3, [r7, #32]
 80008a0:	f107 0314 	add.w	r3, r7, #20
 80008a4:	4619      	mov	r1, r3
 80008a6:	f04f 4090 	mov.w	r0, #1207959552	; 0x48000000
 80008aa:	f002 fb87 	bl	8002fbc <HAL_GPIO_Init>
 80008ae:	2200      	movs	r2, #0
 80008b0:	2100      	movs	r1, #0
 80008b2:	2028      	movs	r0, #40	; 0x28
 80008b4:	f002 f81b 	bl	80028ee <HAL_NVIC_SetPriority>
 80008b8:	2028      	movs	r0, #40	; 0x28
 80008ba:	f002 f832 	bl	8002922 <HAL_NVIC_EnableIRQ>
 80008be:	bf00      	nop
 80008c0:	3728      	adds	r7, #40	; 0x28
 80008c2:	46bd      	mov	sp, r7
 80008c4:	bd80      	pop	{r7, pc}
 80008c6:	bf00      	nop
 80008c8:	40021000 	.word	0x40021000
 80008cc:	10110000 	.word	0x10110000
 80008d0:	48000800 	.word	0x48000800

080008d4 <main>:
/**
  * @brief  The application entry point.
  * @retval int
  */
int main(void)
{
 80008d4:	b580      	push	{r7, lr}
 80008d6:	af00      	add	r7, sp, #0
  /* USER CODE END 1 */

  /* MCU Configuration--------------------------------------------------------*/

  /* Reset of all peripherals, Initializes the Flash interface and the Systick. */
  HAL_Init();
 80008d8:	f000 fb75 	bl	8000fc6 <HAL_Init>
  /* USER CODE BEGIN Init */

  /* USER CODE END Init */

  /* Configure the system clock */
  SystemClock_Config();
 80008dc:	f000 f83e 	bl	800095c <SystemClock_Config>
  /* USER CODE BEGIN SysInit */

  /* USER CODE END SysInit */

  /* Initialize all configured peripherals */
  MX_GPIO_Init();
 80008e0:	f7ff ff88 	bl	80007f4 <MX_GPIO_Init>
  MX_LPUART1_UART_Init();
 80008e4:	f000 fa22 	bl	8000d2c <MX_LPUART1_UART_Init>
  MX_DMA_Init();
 80008e8:	f7ff ff5a 	bl	80007a0 <MX_DMA_Init>
  MX_ADC1_Init();
 80008ec:	f7ff fe64 	bl	80005b8 <MX_ADC1_Init>
  MX_USART1_UART_Init();
 80008f0:	f000 fa66 	bl	8000dc0 <MX_USART1_UART_Init>
  /* USER CODE BEGIN 2 */

  HAL_ADC_Start_DMA(&hadc1,(uint32_t *)ADC_Value,sizeof(ADC_Value)/sizeof(ADC_Value[0]));
 80008f4:	2202      	movs	r2, #2
 80008f6:	4912      	ldr	r1, [pc, #72]	; (8000940 <main+0x6c>)
 80008f8:	4812      	ldr	r0, [pc, #72]	; (8000944 <main+0x70>)
 80008fa:	f000 ffd7 	bl	80018ac <HAL_ADC_Start_DMA>

  HAL_UART_Receive_IT(&huart1,(uint8_t*)receiveBuffer,sizeof(receiveBuffer)/sizeof(receiveBuffer[0]));
 80008fe:	2205      	movs	r2, #5
 8000900:	4911      	ldr	r1, [pc, #68]	; (8000948 <main+0x74>)
 8000902:	4812      	ldr	r0, [pc, #72]	; (800094c <main+0x78>)
 8000904:	f003 fe4c 	bl	80045a0 <HAL_UART_Receive_IT>
  while (1)
  {
    /* USER CODE END WHILE */

    /* USER CODE BEGIN 3 */
		if(SendFlag == 1)
 8000908:	4b11      	ldr	r3, [pc, #68]	; (8000950 <main+0x7c>)
 800090a:	781b      	ldrb	r3, [r3, #0]
 800090c:	2b01      	cmp	r3, #1
 800090e:	d1fb      	bne.n	8000908 <main+0x34>
		{
			CollectFlag = 0;
 8000910:	4b10      	ldr	r3, [pc, #64]	; (8000954 <main+0x80>)
 8000912:	2200      	movs	r2, #0
 8000914:	701a      	strb	r2, [r3, #0]
			HAL_Delay(100);
 8000916:	2064      	movs	r0, #100	; 0x64
 8000918:	f000 fbc6 	bl	80010a8 <HAL_Delay>
			printf("#%04lu %04lu\r\n",ADC_Value[0],ADC_Value[1]);
 800091c:	4b08      	ldr	r3, [pc, #32]	; (8000940 <main+0x6c>)
 800091e:	681b      	ldr	r3, [r3, #0]
 8000920:	4a07      	ldr	r2, [pc, #28]	; (8000940 <main+0x6c>)
 8000922:	6852      	ldr	r2, [r2, #4]
 8000924:	4619      	mov	r1, r3
 8000926:	480c      	ldr	r0, [pc, #48]	; (8000958 <main+0x84>)
 8000928:	f005 fa5c 	bl	8005de4 <iprintf>
			CollectFlag = 1;
 800092c:	4b09      	ldr	r3, [pc, #36]	; (8000954 <main+0x80>)
 800092e:	2201      	movs	r2, #1
 8000930:	701a      	strb	r2, [r3, #0]
			HAL_ADC_Start_DMA(&hadc1,(uint32_t *)ADC_Value,sizeof(ADC_Value)/sizeof(ADC_Value[0]));
 8000932:	2202      	movs	r2, #2
 8000934:	4902      	ldr	r1, [pc, #8]	; (8000940 <main+0x6c>)
 8000936:	4803      	ldr	r0, [pc, #12]	; (8000944 <main+0x70>)
 8000938:	f000 ffb8 	bl	80018ac <HAL_ADC_Start_DMA>
		if(SendFlag == 1)
 800093c:	e7e4      	b.n	8000908 <main+0x34>
 800093e:	bf00      	nop
 8000940:	20000174 	.word	0x20000174
 8000944:	200000a8 	.word	0x200000a8
 8000948:	20000004 	.word	0x20000004
 800094c:	2000020c 	.word	0x2000020c
 8000950:	20000098 	.word	0x20000098
 8000954:	20000000 	.word	0x20000000
 8000958:	08006ca8 	.word	0x08006ca8

0800095c <SystemClock_Config>:
/**
  * @brief System Clock Configuration
  * @retval None
  */
void SystemClock_Config(void)
{
 800095c:	b580      	push	{r7, lr}
 800095e:	b0a8      	sub	sp, #160	; 0xa0
 8000960:	af00      	add	r7, sp, #0
  RCC_OscInitTypeDef RCC_OscInitStruct = {0};
 8000962:	f107 0368 	add.w	r3, r7, #104	; 0x68
 8000966:	2238      	movs	r2, #56	; 0x38
 8000968:	2100      	movs	r1, #0
 800096a:	4618      	mov	r0, r3
 800096c:	f005 fa32 	bl	8005dd4 <memset>
  RCC_ClkInitTypeDef RCC_ClkInitStruct = {0};
 8000970:	f107 0354 	add.w	r3, r7, #84	; 0x54
 8000974:	2200      	movs	r2, #0
 8000976:	601a      	str	r2, [r3, #0]
 8000978:	605a      	str	r2, [r3, #4]
 800097a:	609a      	str	r2, [r3, #8]
 800097c:	60da      	str	r2, [r3, #12]
 800097e:	611a      	str	r2, [r3, #16]
  RCC_PeriphCLKInitTypeDef PeriphClkInit = {0};
 8000980:	463b      	mov	r3, r7
 8000982:	2254      	movs	r2, #84	; 0x54
 8000984:	2100      	movs	r1, #0
 8000986:	4618      	mov	r0, r3
 8000988:	f005 fa24 	bl	8005dd4 <memset>

  /** Configure the main internal regulator output voltage
  */
  HAL_PWREx_ControlVoltageScaling(PWR_REGULATOR_VOLTAGE_SCALE1_BOOST);
 800098c:	2000      	movs	r0, #0
 800098e:	f002 fced 	bl	800336c <HAL_PWREx_ControlVoltageScaling>
  /** Initializes the RCC Oscillators according to the specified parameters
  * in the RCC_OscInitTypeDef structure.
  */
  RCC_OscInitStruct.OscillatorType = RCC_OSCILLATORTYPE_HSE;
 8000992:	2301      	movs	r3, #1
 8000994:	66bb      	str	r3, [r7, #104]	; 0x68
  RCC_OscInitStruct.HSEState = RCC_HSE_ON;
 8000996:	f44f 3380 	mov.w	r3, #65536	; 0x10000
 800099a:	66fb      	str	r3, [r7, #108]	; 0x6c
  RCC_OscInitStruct.PLL.PLLState = RCC_PLL_ON;
 800099c:	2302      	movs	r3, #2
 800099e:	f8c7 3084 	str.w	r3, [r7, #132]	; 0x84
  RCC_OscInitStruct.PLL.PLLSource = RCC_PLLSOURCE_HSE;
 80009a2:	2303      	movs	r3, #3
 80009a4:	f8c7 3088 	str.w	r3, [r7, #136]	; 0x88
  RCC_OscInitStruct.PLL.PLLM = RCC_PLLM_DIV6;
 80009a8:	2306      	movs	r3, #6
 80009aa:	f8c7 308c 	str.w	r3, [r7, #140]	; 0x8c
  RCC_OscInitStruct.PLL.PLLN = 85;
 80009ae:	2355      	movs	r3, #85	; 0x55
 80009b0:	f8c7 3090 	str.w	r3, [r7, #144]	; 0x90
  RCC_OscInitStruct.PLL.PLLP = RCC_PLLP_DIV2;
 80009b4:	2302      	movs	r3, #2
 80009b6:	f8c7 3094 	str.w	r3, [r7, #148]	; 0x94
  RCC_OscInitStruct.PLL.PLLQ = RCC_PLLQ_DIV2;
 80009ba:	2302      	movs	r3, #2
 80009bc:	f8c7 3098 	str.w	r3, [r7, #152]	; 0x98
  RCC_OscInitStruct.PLL.PLLR = RCC_PLLR_DIV2;
 80009c0:	2302      	movs	r3, #2
 80009c2:	f8c7 309c 	str.w	r3, [r7, #156]	; 0x9c
  if (HAL_RCC_OscConfig(&RCC_OscInitStruct) != HAL_OK)
 80009c6:	f107 0368 	add.w	r3, r7, #104	; 0x68
 80009ca:	4618      	mov	r0, r3
 80009cc:	f002 fd82 	bl	80034d4 <HAL_RCC_OscConfig>
 80009d0:	4603      	mov	r3, r0
 80009d2:	2b00      	cmp	r3, #0
 80009d4:	d001      	beq.n	80009da <SystemClock_Config+0x7e>
  {
    Error_Handler();
 80009d6:	f000 f883 	bl	8000ae0 <Error_Handler>
  }
  /** Initializes the CPU, AHB and APB buses clocks
  */
  RCC_ClkInitStruct.ClockType = RCC_CLOCKTYPE_HCLK|RCC_CLOCKTYPE_SYSCLK
 80009da:	230f      	movs	r3, #15
 80009dc:	657b      	str	r3, [r7, #84]	; 0x54
                              |RCC_CLOCKTYPE_PCLK1|RCC_CLOCKTYPE_PCLK2;
  RCC_ClkInitStruct.SYSCLKSource = RCC_SYSCLKSOURCE_PLLCLK;
 80009de:	2303      	movs	r3, #3
 80009e0:	65bb      	str	r3, [r7, #88]	; 0x58
  RCC_ClkInitStruct.AHBCLKDivider = RCC_SYSCLK_DIV1;
 80009e2:	2300      	movs	r3, #0
 80009e4:	65fb      	str	r3, [r7, #92]	; 0x5c
  RCC_ClkInitStruct.APB1CLKDivider = RCC_HCLK_DIV1;
 80009e6:	2300      	movs	r3, #0
 80009e8:	663b      	str	r3, [r7, #96]	; 0x60
  RCC_ClkInitStruct.APB2CLKDivider = RCC_HCLK_DIV1;
 80009ea:	2300      	movs	r3, #0
 80009ec:	667b      	str	r3, [r7, #100]	; 0x64

  if (HAL_RCC_ClockConfig(&RCC_ClkInitStruct, FLASH_LATENCY_4) != HAL_OK)
 80009ee:	f107 0354 	add.w	r3, r7, #84	; 0x54
 80009f2:	2104      	movs	r1, #4
 80009f4:	4618      	mov	r0, r3
 80009f6:	f003 f885 	bl	8003b04 <HAL_RCC_ClockConfig>
 80009fa:	4603      	mov	r3, r0
 80009fc:	2b00      	cmp	r3, #0
 80009fe:	d001      	beq.n	8000a04 <SystemClock_Config+0xa8>
  {
    Error_Handler();
 8000a00:	f000 f86e 	bl	8000ae0 <Error_Handler>
  }
  /** Initializes the peripherals clocks
  */
  PeriphClkInit.PeriphClockSelection = RCC_PERIPHCLK_USART1|RCC_PERIPHCLK_LPUART1
 8000a04:	f248 0321 	movw	r3, #32801	; 0x8021
 8000a08:	603b      	str	r3, [r7, #0]
                              |RCC_PERIPHCLK_ADC12;
  PeriphClkInit.Usart1ClockSelection = RCC_USART1CLKSOURCE_PCLK2;
 8000a0a:	2300      	movs	r3, #0
 8000a0c:	607b      	str	r3, [r7, #4]
  PeriphClkInit.Lpuart1ClockSelection = RCC_LPUART1CLKSOURCE_PCLK1;
 8000a0e:	2300      	movs	r3, #0
 8000a10:	61bb      	str	r3, [r7, #24]
  PeriphClkInit.Adc12ClockSelection = RCC_ADC12CLKSOURCE_SYSCLK;
 8000a12:	f04f 5300 	mov.w	r3, #536870912	; 0x20000000
 8000a16:	647b      	str	r3, [r7, #68]	; 0x44
  if (HAL_RCCEx_PeriphCLKConfig(&PeriphClkInit) != HAL_OK)
 8000a18:	463b      	mov	r3, r7
 8000a1a:	4618      	mov	r0, r3
 8000a1c:	f003 fa8e 	bl	8003f3c <HAL_RCCEx_PeriphCLKConfig>
 8000a20:	4603      	mov	r3, r0
 8000a22:	2b00      	cmp	r3, #0
 8000a24:	d001      	beq.n	8000a2a <SystemClock_Config+0xce>
  {
    Error_Handler();
 8000a26:	f000 f85b 	bl	8000ae0 <Error_Handler>
  }
}
 8000a2a:	bf00      	nop
 8000a2c:	37a0      	adds	r7, #160	; 0xa0
 8000a2e:	46bd      	mov	sp, r7
 8000a30:	bd80      	pop	{r7, pc}
	...

08000a34 <HAL_ADC_ConvCpltCallback>:

/* USER CODE BEGIN 4 */

void HAL_ADC_ConvCpltCallback(ADC_HandleTypeDef* hadc)
{
 8000a34:	b580      	push	{r7, lr}
 8000a36:	b082      	sub	sp, #8
 8000a38:	af00      	add	r7, sp, #0
 8000a3a:	6078      	str	r0, [r7, #4]
	if(CollectFlag == 1)
 8000a3c:	4b06      	ldr	r3, [pc, #24]	; (8000a58 <HAL_ADC_ConvCpltCallback+0x24>)
 8000a3e:	781b      	ldrb	r3, [r3, #0]
 8000a40:	2b01      	cmp	r3, #1
 8000a42:	d104      	bne.n	8000a4e <HAL_ADC_ConvCpltCallback+0x1a>
		HAL_ADC_Start_DMA(&hadc1,(uint32_t *)ADC_Value,sizeof(ADC_Value)/sizeof(ADC_Value[0]));
 8000a44:	2202      	movs	r2, #2
 8000a46:	4905      	ldr	r1, [pc, #20]	; (8000a5c <HAL_ADC_ConvCpltCallback+0x28>)
 8000a48:	4805      	ldr	r0, [pc, #20]	; (8000a60 <HAL_ADC_ConvCpltCallback+0x2c>)
 8000a4a:	f000 ff2f 	bl	80018ac <HAL_ADC_Start_DMA>
}
 8000a4e:	bf00      	nop
 8000a50:	3708      	adds	r7, #8
 8000a52:	46bd      	mov	sp, r7
 8000a54:	bd80      	pop	{r7, pc}
 8000a56:	bf00      	nop
 8000a58:	20000000 	.word	0x20000000
 8000a5c:	20000174 	.word	0x20000174
 8000a60:	200000a8 	.word	0x200000a8

08000a64 <HAL_UART_RxCpltCallback>:

void HAL_UART_RxCpltCallback(UART_HandleTypeDef *huart)
{
 8000a64:	b580      	push	{r7, lr}
 8000a66:	b082      	sub	sp, #8
 8000a68:	af00      	add	r7, sp, #0
 8000a6a:	6078      	str	r0, [r7, #4]
	  if(huart->Instance == USART1)
 8000a6c:	687b      	ldr	r3, [r7, #4]
 8000a6e:	681b      	ldr	r3, [r3, #0]
 8000a70:	4a16      	ldr	r2, [pc, #88]	; (8000acc <HAL_UART_RxCpltCallback+0x68>)
 8000a72:	4293      	cmp	r3, r2
 8000a74:	d125      	bne.n	8000ac2 <HAL_UART_RxCpltCallback+0x5e>
	  {
		  printf("%s",receiveBuffer);
 8000a76:	4916      	ldr	r1, [pc, #88]	; (8000ad0 <HAL_UART_RxCpltCallback+0x6c>)
 8000a78:	4816      	ldr	r0, [pc, #88]	; (8000ad4 <HAL_UART_RxCpltCallback+0x70>)
 8000a7a:	f005 f9b3 	bl	8005de4 <iprintf>
		  if(receiveBuffer[0] == 0x11 && receiveBuffer[1] == 0x22&& receiveBuffer[2] == 0x33)
 8000a7e:	4b14      	ldr	r3, [pc, #80]	; (8000ad0 <HAL_UART_RxCpltCallback+0x6c>)
 8000a80:	781b      	ldrb	r3, [r3, #0]
 8000a82:	2b11      	cmp	r3, #17
 8000a84:	d118      	bne.n	8000ab8 <HAL_UART_RxCpltCallback+0x54>
 8000a86:	4b12      	ldr	r3, [pc, #72]	; (8000ad0 <HAL_UART_RxCpltCallback+0x6c>)
 8000a88:	785b      	ldrb	r3, [r3, #1]
 8000a8a:	2b22      	cmp	r3, #34	; 0x22
 8000a8c:	d114      	bne.n	8000ab8 <HAL_UART_RxCpltCallback+0x54>
 8000a8e:	4b10      	ldr	r3, [pc, #64]	; (8000ad0 <HAL_UART_RxCpltCallback+0x6c>)
 8000a90:	789b      	ldrb	r3, [r3, #2]
 8000a92:	2b33      	cmp	r3, #51	; 0x33
 8000a94:	d110      	bne.n	8000ab8 <HAL_UART_RxCpltCallback+0x54>
		  {
			  HAL_GPIO_TogglePin(LD2_GPIO_Port,LD2_Pin);
 8000a96:	2120      	movs	r1, #32
 8000a98:	f04f 4090 	mov.w	r0, #1207959552	; 0x48000000
 8000a9c:	f002 fc28 	bl	80032f0 <HAL_GPIO_TogglePin>
			  receiveBuffer[0] = 0x00;
 8000aa0:	4b0b      	ldr	r3, [pc, #44]	; (8000ad0 <HAL_UART_RxCpltCallback+0x6c>)
 8000aa2:	2200      	movs	r2, #0
 8000aa4:	701a      	strb	r2, [r3, #0]
			  receiveBuffer[1] = 0x00;
 8000aa6:	4b0a      	ldr	r3, [pc, #40]	; (8000ad0 <HAL_UART_RxCpltCallback+0x6c>)
 8000aa8:	2200      	movs	r2, #0
 8000aaa:	705a      	strb	r2, [r3, #1]
			  receiveBuffer[2] = 0x00;
 8000aac:	4b08      	ldr	r3, [pc, #32]	; (8000ad0 <HAL_UART_RxCpltCallback+0x6c>)
 8000aae:	2200      	movs	r2, #0
 8000ab0:	709a      	strb	r2, [r3, #2]
			  SendFlag = 1;
 8000ab2:	4b09      	ldr	r3, [pc, #36]	; (8000ad8 <HAL_UART_RxCpltCallback+0x74>)
 8000ab4:	2201      	movs	r2, #1
 8000ab6:	701a      	strb	r2, [r3, #0]
		  }
		  HAL_UART_Receive_IT(&huart1,receiveBuffer,sizeof(receiveBuffer)/sizeof(receiveBuffer[0]));
 8000ab8:	2205      	movs	r2, #5
 8000aba:	4905      	ldr	r1, [pc, #20]	; (8000ad0 <HAL_UART_RxCpltCallback+0x6c>)
 8000abc:	4807      	ldr	r0, [pc, #28]	; (8000adc <HAL_UART_RxCpltCallback+0x78>)
 8000abe:	f003 fd6f 	bl	80045a0 <HAL_UART_Receive_IT>
	  }
}
 8000ac2:	bf00      	nop
 8000ac4:	3708      	adds	r7, #8
 8000ac6:	46bd      	mov	sp, r7
 8000ac8:	bd80      	pop	{r7, pc}
 8000aca:	bf00      	nop
 8000acc:	40013800 	.word	0x40013800
 8000ad0:	20000004 	.word	0x20000004
 8000ad4:	08006cb8 	.word	0x08006cb8
 8000ad8:	20000098 	.word	0x20000098
 8000adc:	2000020c 	.word	0x2000020c

08000ae0 <Error_Handler>:
/**
  * @brief  This function is executed in case of error occurrence.
  * @retval None
  */
void Error_Handler(void)
{
 8000ae0:	b480      	push	{r7}
 8000ae2:	af00      	add	r7, sp, #0
  \details Disables IRQ interrupts by setting the I-bit in the CPSR.
           Can only be executed in Privileged modes.
 */
__STATIC_FORCEINLINE void __disable_irq(void)
{
  __ASM volatile ("cpsid i" : : : "memory");
 8000ae4:	b672      	cpsid	i
}
 8000ae6:	bf00      	nop
  /* USER CODE BEGIN Error_Handler_Debug */
  /* User can add his own implementation to report the HAL error return state */
  __disable_irq();
  while (1)
 8000ae8:	e7fe      	b.n	8000ae8 <Error_Handler+0x8>
	...

08000aec <HAL_MspInit>:
 8000aec:	b580      	push	{r7, lr}
 8000aee:	b082      	sub	sp, #8
 8000af0:	af00      	add	r7, sp, #0
 8000af2:	4b0f      	ldr	r3, [pc, #60]	; (8000b30 <HAL_MspInit+0x44>)
 8000af4:	6e1b      	ldr	r3, [r3, #96]	; 0x60
 8000af6:	4a0e      	ldr	r2, [pc, #56]	; (8000b30 <HAL_MspInit+0x44>)
 8000af8:	f043 0301 	orr.w	r3, r3, #1
 8000afc:	6613      	str	r3, [r2, #96]	; 0x60
 8000afe:	4b0c      	ldr	r3, [pc, #48]	; (8000b30 <HAL_MspInit+0x44>)
 8000b00:	6e1b      	ldr	r3, [r3, #96]	; 0x60
 8000b02:	f003 0301 	and.w	r3, r3, #1
 8000b06:	607b      	str	r3, [r7, #4]
 8000b08:	687b      	ldr	r3, [r7, #4]
 8000b0a:	4b09      	ldr	r3, [pc, #36]	; (8000b30 <HAL_MspInit+0x44>)
 8000b0c:	6d9b      	ldr	r3, [r3, #88]	; 0x58
 8000b0e:	4a08      	ldr	r2, [pc, #32]	; (8000b30 <HAL_MspInit+0x44>)
 8000b10:	f043 5380 	orr.w	r3, r3, #268435456	; 0x10000000
 8000b14:	6593      	str	r3, [r2, #88]	; 0x58
 8000b16:	4b06      	ldr	r3, [pc, #24]	; (8000b30 <HAL_MspInit+0x44>)
 8000b18:	6d9b      	ldr	r3, [r3, #88]	; 0x58
 8000b1a:	f003 5380 	and.w	r3, r3, #268435456	; 0x10000000
 8000b1e:	603b      	str	r3, [r7, #0]
 8000b20:	683b      	ldr	r3, [r7, #0]
 8000b22:	f002 fcc7 	bl	80034b4 <HAL_PWREx_DisableUCPDDeadBattery>
 8000b26:	bf00      	nop
 8000b28:	3708      	adds	r7, #8
 8000b2a:	46bd      	mov	sp, r7
 8000b2c:	bd80      	pop	{r7, pc}
 8000b2e:	bf00      	nop
 8000b30:	40021000 	.word	0x40021000

08000b34 <NMI_Handler>:
 8000b34:	b480      	push	{r7}
 8000b36:	af00      	add	r7, sp, #0
 8000b38:	e7fe      	b.n	8000b38 <NMI_Handler+0x4>

08000b3a <HardFault_Handler>:
 8000b3a:	b480      	push	{r7}
 8000b3c:	af00      	add	r7, sp, #0
 8000b3e:	e7fe      	b.n	8000b3e <HardFault_Handler+0x4>

08000b40 <MemManage_Handler>:
 8000b40:	b480      	push	{r7}
 8000b42:	af00      	add	r7, sp, #0
 8000b44:	e7fe      	b.n	8000b44 <MemManage_Handler+0x4>

08000b46 <BusFault_Handler>:
 8000b46:	b480      	push	{r7}
 8000b48:	af00      	add	r7, sp, #0
 8000b4a:	e7fe      	b.n	8000b4a <BusFault_Handler+0x4>

08000b4c <UsageFault_Handler>:
 8000b4c:	b480      	push	{r7}
 8000b4e:	af00      	add	r7, sp, #0
 8000b50:	e7fe      	b.n	8000b50 <UsageFault_Handler+0x4>

08000b52 <SVC_Handler>:
 8000b52:	b480      	push	{r7}
 8000b54:	af00      	add	r7, sp, #0
 8000b56:	bf00      	nop
 8000b58:	46bd      	mov	sp, r7
 8000b5a:	f85d 7b04 	ldr.w	r7, [sp], #4
 8000b5e:	4770      	bx	lr

08000b60 <DebugMon_Handler>:
 8000b60:	b480      	push	{r7}
 8000b62:	af00      	add	r7, sp, #0
 8000b64:	bf00      	nop
 8000b66:	46bd      	mov	sp, r7
 8000b68:	f85d 7b04 	ldr.w	r7, [sp], #4
 8000b6c:	4770      	bx	lr

08000b6e <PendSV_Handler>:
 8000b6e:	b480      	push	{r7}
 8000b70:	af00      	add	r7, sp, #0
 8000b72:	bf00      	nop
 8000b74:	46bd      	mov	sp, r7
 8000b76:	f85d 7b04 	ldr.w	r7, [sp], #4
 8000b7a:	4770      	bx	lr

08000b7c <SysTick_Handler>:
 8000b7c:	b580      	push	{r7, lr}
 8000b7e:	af00      	add	r7, sp, #0
 8000b80:	f000 fa74 	bl	800106c <HAL_IncTick>
 8000b84:	bf00      	nop
 8000b86:	bd80      	pop	{r7, pc}

08000b88 <DMA1_Channel1_IRQHandler>:
 8000b88:	b580      	push	{r7, lr}
 8000b8a:	af00      	add	r7, sp, #0
 8000b8c:	4802      	ldr	r0, [pc, #8]	; (8000b98 <DMA1_Channel1_IRQHandler+0x10>)
 8000b8e:	f002 f8c6 	bl	8002d1e <HAL_DMA_IRQHandler>
 8000b92:	bf00      	nop
 8000b94:	bd80      	pop	{r7, pc}
 8000b96:	bf00      	nop
 8000b98:	20000114 	.word	0x20000114

08000b9c <USART1_IRQHandler>:
 8000b9c:	b580      	push	{r7, lr}
 8000b9e:	af00      	add	r7, sp, #0
 8000ba0:	4802      	ldr	r0, [pc, #8]	; (8000bac <USART1_IRQHandler+0x10>)
 8000ba2:	f003 fd43 	bl	800462c <HAL_UART_IRQHandler>
 8000ba6:	bf00      	nop
 8000ba8:	bd80      	pop	{r7, pc}
 8000baa:	bf00      	nop
 8000bac:	2000020c 	.word	0x2000020c

08000bb0 <EXTI15_10_IRQHandler>:
 8000bb0:	b580      	push	{r7, lr}
 8000bb2:	af00      	add	r7, sp, #0
 8000bb4:	f44f 5000 	mov.w	r0, #8192	; 0x2000
 8000bb8:	f002 fbb4 	bl	8003324 <HAL_GPIO_EXTI_IRQHandler>
 8000bbc:	bf00      	nop
 8000bbe:	bd80      	pop	{r7, pc}

08000bc0 <_read>:
 8000bc0:	b580      	push	{r7, lr}
 8000bc2:	b086      	sub	sp, #24
 8000bc4:	af00      	add	r7, sp, #0
 8000bc6:	60f8      	str	r0, [r7, #12]
 8000bc8:	60b9      	str	r1, [r7, #8]
 8000bca:	607a      	str	r2, [r7, #4]
 8000bcc:	2300      	movs	r3, #0
 8000bce:	617b      	str	r3, [r7, #20]
 8000bd0:	e00a      	b.n	8000be8 <_read+0x28>
 8000bd2:	f3af 8000 	nop.w
 8000bd6:	4601      	mov	r1, r0
 8000bd8:	68bb      	ldr	r3, [r7, #8]
 8000bda:	1c5a      	adds	r2, r3, #1
 8000bdc:	60ba      	str	r2, [r7, #8]
 8000bde:	b2ca      	uxtb	r2, r1
 8000be0:	701a      	strb	r2, [r3, #0]
 8000be2:	697b      	ldr	r3, [r7, #20]
 8000be4:	3301      	adds	r3, #1
 8000be6:	617b      	str	r3, [r7, #20]
 8000be8:	697a      	ldr	r2, [r7, #20]
 8000bea:	687b      	ldr	r3, [r7, #4]
 8000bec:	429a      	cmp	r2, r3
 8000bee:	dbf0      	blt.n	8000bd2 <_read+0x12>
 8000bf0:	687b      	ldr	r3, [r7, #4]
 8000bf2:	4618      	mov	r0, r3
 8000bf4:	3718      	adds	r7, #24
 8000bf6:	46bd      	mov	sp, r7
 8000bf8:	bd80      	pop	{r7, pc}

08000bfa <_write>:
 8000bfa:	b580      	push	{r7, lr}
 8000bfc:	b086      	sub	sp, #24
 8000bfe:	af00      	add	r7, sp, #0
 8000c00:	60f8      	str	r0, [r7, #12]
 8000c02:	60b9      	str	r1, [r7, #8]
 8000c04:	607a      	str	r2, [r7, #4]
 8000c06:	2300      	movs	r3, #0
 8000c08:	617b      	str	r3, [r7, #20]
 8000c0a:	e009      	b.n	8000c20 <_write+0x26>
 8000c0c:	68bb      	ldr	r3, [r7, #8]
 8000c0e:	1c5a      	adds	r2, r3, #1
 8000c10:	60ba      	str	r2, [r7, #8]
 8000c12:	781b      	ldrb	r3, [r3, #0]
 8000c14:	4618      	mov	r0, r3
 8000c16:	f000 f99b 	bl	8000f50 <__io_putchar>
 8000c1a:	697b      	ldr	r3, [r7, #20]
 8000c1c:	3301      	adds	r3, #1
 8000c1e:	617b      	str	r3, [r7, #20]
 8000c20:	697a      	ldr	r2, [r7, #20]
 8000c22:	687b      	ldr	r3, [r7, #4]
 8000c24:	429a      	cmp	r2, r3
 8000c26:	dbf1      	blt.n	8000c0c <_write+0x12>
 8000c28:	687b      	ldr	r3, [r7, #4]
 8000c2a:	4618      	mov	r0, r3
 8000c2c:	3718      	adds	r7, #24
 8000c2e:	46bd      	mov	sp, r7
 8000c30:	bd80      	pop	{r7, pc}

08000c32 <_close>:
 8000c32:	b480      	push	{r7}
 8000c34:	b083      	sub	sp, #12
 8000c36:	af00      	add	r7, sp, #0
 8000c38:	6078      	str	r0, [r7, #4]
 8000c3a:	f04f 33ff 	mov.w	r3, #4294967295
 8000c3e:	4618      	mov	r0, r3
 8000c40:	370c      	adds	r7, #12
 8000c42:	46bd      	mov	sp, r7
 8000c44:	f85d 7b04 	ldr.w	r7, [sp], #4
 8000c48:	4770      	bx	lr

08000c4a <_fstat>:
 8000c4a:	b480      	push	{r7}
 8000c4c:	b083      	sub	sp, #12
 8000c4e:	af00      	add	r7, sp, #0
 8000c50:	6078      	str	r0, [r7, #4]
 8000c52:	6039      	str	r1, [r7, #0]
 8000c54:	683b      	ldr	r3, [r7, #0]
 8000c56:	f44f 5200 	mov.w	r2, #8192	; 0x2000
 8000c5a:	605a      	str	r2, [r3, #4]
 8000c5c:	2300      	movs	r3, #0
 8000c5e:	4618      	mov	r0, r3
 8000c60:	370c      	adds	r7, #12
 8000c62:	46bd      	mov	sp, r7
 8000c64:	f85d 7b04 	ldr.w	r7, [sp], #4
 8000c68:	4770      	bx	lr

08000c6a <_isatty>:
 8000c6a:	b480      	push	{r7}
 8000c6c:	b083      	sub	sp, #12
 8000c6e:	af00      	add	r7, sp, #0
 8000c70:	6078      	str	r0, [r7, #4]
 8000c72:	2301      	movs	r3, #1
 8000c74:	4618      	mov	r0, r3
 8000c76:	370c      	adds	r7, #12
 8000c78:	46bd      	mov	sp, r7
 8000c7a:	f85d 7b04 	ldr.w	r7, [sp], #4
 8000c7e:	4770      	bx	lr

08000c80 <_lseek>:
 8000c80:	b480      	push	{r7}
 8000c82:	b085      	sub	sp, #20
 8000c84:	af00      	add	r7, sp, #0
 8000c86:	60f8      	str	r0, [r7, #12]
 8000c88:	60b9      	str	r1, [r7, #8]
 8000c8a:	607a      	str	r2, [r7, #4]
 8000c8c:	2300      	movs	r3, #0
 8000c8e:	4618      	mov	r0, r3
 8000c90:	3714      	adds	r7, #20
 8000c92:	46bd      	mov	sp, r7
 8000c94:	f85d 7b04 	ldr.w	r7, [sp], #4
 8000c98:	4770      	bx	lr
	...

08000c9c <_sbrk>:
 8000c9c:	b580      	push	{r7, lr}
 8000c9e:	b086      	sub	sp, #24
 8000ca0:	af00      	add	r7, sp, #0
 8000ca2:	6078      	str	r0, [r7, #4]
 8000ca4:	4a14      	ldr	r2, [pc, #80]	; (8000cf8 <_sbrk+0x5c>)
 8000ca6:	4b15      	ldr	r3, [pc, #84]	; (8000cfc <_sbrk+0x60>)
 8000ca8:	1ad3      	subs	r3, r2, r3
 8000caa:	617b      	str	r3, [r7, #20]
 8000cac:	697b      	ldr	r3, [r7, #20]
 8000cae:	613b      	str	r3, [r7, #16]
 8000cb0:	4b13      	ldr	r3, [pc, #76]	; (8000d00 <_sbrk+0x64>)
 8000cb2:	681b      	ldr	r3, [r3, #0]
 8000cb4:	2b00      	cmp	r3, #0
 8000cb6:	d102      	bne.n	8000cbe <_sbrk+0x22>
 8000cb8:	4b11      	ldr	r3, [pc, #68]	; (8000d00 <_sbrk+0x64>)
 8000cba:	4a12      	ldr	r2, [pc, #72]	; (8000d04 <_sbrk+0x68>)
 8000cbc:	601a      	str	r2, [r3, #0]
 8000cbe:	4b10      	ldr	r3, [pc, #64]	; (8000d00 <_sbrk+0x64>)
 8000cc0:	681a      	ldr	r2, [r3, #0]
 8000cc2:	687b      	ldr	r3, [r7, #4]
 8000cc4:	4413      	add	r3, r2
 8000cc6:	693a      	ldr	r2, [r7, #16]
 8000cc8:	429a      	cmp	r2, r3
 8000cca:	d207      	bcs.n	8000cdc <_sbrk+0x40>
 8000ccc:	f005 f858 	bl	8005d80 <__errno>
 8000cd0:	4603      	mov	r3, r0
 8000cd2:	220c      	movs	r2, #12
 8000cd4:	601a      	str	r2, [r3, #0]
 8000cd6:	f04f 33ff 	mov.w	r3, #4294967295
 8000cda:	e009      	b.n	8000cf0 <_sbrk+0x54>
 8000cdc:	4b08      	ldr	r3, [pc, #32]	; (8000d00 <_sbrk+0x64>)
 8000cde:	681b      	ldr	r3, [r3, #0]
 8000ce0:	60fb      	str	r3, [r7, #12]
 8000ce2:	4b07      	ldr	r3, [pc, #28]	; (8000d00 <_sbrk+0x64>)
 8000ce4:	681a      	ldr	r2, [r3, #0]
 8000ce6:	687b      	ldr	r3, [r7, #4]
 8000ce8:	4413      	add	r3, r2
 8000cea:	4a05      	ldr	r2, [pc, #20]	; (8000d00 <_sbrk+0x64>)
 8000cec:	6013      	str	r3, [r2, #0]
 8000cee:	68fb      	ldr	r3, [r7, #12]
 8000cf0:	4618      	mov	r0, r3
 8000cf2:	3718      	adds	r7, #24
 8000cf4:	46bd      	mov	sp, r7
 8000cf6:	bd80      	pop	{r7, pc}
 8000cf8:	20020000 	.word	0x20020000
 8000cfc:	00000400 	.word	0x00000400
 8000d00:	2000009c 	.word	0x2000009c
 8000d04:	200002b0 	.word	0x200002b0

08000d08 <SystemInit>:
 8000d08:	b480      	push	{r7}
 8000d0a:	af00      	add	r7, sp, #0
 8000d0c:	4b06      	ldr	r3, [pc, #24]	; (8000d28 <SystemInit+0x20>)
 8000d0e:	f8d3 3088 	ldr.w	r3, [r3, #136]	; 0x88
 8000d12:	4a05      	ldr	r2, [pc, #20]	; (8000d28 <SystemInit+0x20>)
 8000d14:	f443 0370 	orr.w	r3, r3, #15728640	; 0xf00000
 8000d18:	f8c2 3088 	str.w	r3, [r2, #136]	; 0x88
 8000d1c:	bf00      	nop
 8000d1e:	46bd      	mov	sp, r7
 8000d20:	f85d 7b04 	ldr.w	r7, [sp], #4
 8000d24:	4770      	bx	lr
 8000d26:	bf00      	nop
 8000d28:	e000ed00 	.word	0xe000ed00

08000d2c <MX_LPUART1_UART_Init>:
 8000d2c:	b580      	push	{r7, lr}
 8000d2e:	af00      	add	r7, sp, #0
 8000d30:	4b21      	ldr	r3, [pc, #132]	; (8000db8 <MX_LPUART1_UART_Init+0x8c>)
 8000d32:	4a22      	ldr	r2, [pc, #136]	; (8000dbc <MX_LPUART1_UART_Init+0x90>)
 8000d34:	601a      	str	r2, [r3, #0]
 8000d36:	4b20      	ldr	r3, [pc, #128]	; (8000db8 <MX_LPUART1_UART_Init+0x8c>)
 8000d38:	f44f 32e1 	mov.w	r2, #115200	; 0x1c200
 8000d3c:	605a      	str	r2, [r3, #4]
 8000d3e:	4b1e      	ldr	r3, [pc, #120]	; (8000db8 <MX_LPUART1_UART_Init+0x8c>)
 8000d40:	2200      	movs	r2, #0
 8000d42:	609a      	str	r2, [r3, #8]
 8000d44:	4b1c      	ldr	r3, [pc, #112]	; (8000db8 <MX_LPUART1_UART_Init+0x8c>)
 8000d46:	2200      	movs	r2, #0
 8000d48:	60da      	str	r2, [r3, #12]
 8000d4a:	4b1b      	ldr	r3, [pc, #108]	; (8000db8 <MX_LPUART1_UART_Init+0x8c>)
 8000d4c:	2200      	movs	r2, #0
 8000d4e:	611a      	str	r2, [r3, #16]
 8000d50:	4b19      	ldr	r3, [pc, #100]	; (8000db8 <MX_LPUART1_UART_Init+0x8c>)
 8000d52:	220c      	movs	r2, #12
 8000d54:	615a      	str	r2, [r3, #20]
 8000d56:	4b18      	ldr	r3, [pc, #96]	; (8000db8 <MX_LPUART1_UART_Init+0x8c>)
 8000d58:	2200      	movs	r2, #0
 8000d5a:	619a      	str	r2, [r3, #24]
 8000d5c:	4b16      	ldr	r3, [pc, #88]	; (8000db8 <MX_LPUART1_UART_Init+0x8c>)
 8000d5e:	2200      	movs	r2, #0
 8000d60:	621a      	str	r2, [r3, #32]
 8000d62:	4b15      	ldr	r3, [pc, #84]	; (8000db8 <MX_LPUART1_UART_Init+0x8c>)
 8000d64:	2200      	movs	r2, #0
 8000d66:	625a      	str	r2, [r3, #36]	; 0x24
 8000d68:	4b13      	ldr	r3, [pc, #76]	; (8000db8 <MX_LPUART1_UART_Init+0x8c>)
 8000d6a:	2200      	movs	r2, #0
 8000d6c:	629a      	str	r2, [r3, #40]	; 0x28
 8000d6e:	4812      	ldr	r0, [pc, #72]	; (8000db8 <MX_LPUART1_UART_Init+0x8c>)
 8000d70:	f003 fb30 	bl	80043d4 <HAL_UART_Init>
 8000d74:	4603      	mov	r3, r0
 8000d76:	2b00      	cmp	r3, #0
 8000d78:	d001      	beq.n	8000d7e <MX_LPUART1_UART_Init+0x52>
 8000d7a:	f7ff feb1 	bl	8000ae0 <Error_Handler>
 8000d7e:	2100      	movs	r1, #0
 8000d80:	480d      	ldr	r0, [pc, #52]	; (8000db8 <MX_LPUART1_UART_Init+0x8c>)
 8000d82:	f004 ff32 	bl	8005bea <HAL_UARTEx_SetTxFifoThreshold>
 8000d86:	4603      	mov	r3, r0
 8000d88:	2b00      	cmp	r3, #0
 8000d8a:	d001      	beq.n	8000d90 <MX_LPUART1_UART_Init+0x64>
 8000d8c:	f7ff fea8 	bl	8000ae0 <Error_Handler>
 8000d90:	2100      	movs	r1, #0
 8000d92:	4809      	ldr	r0, [pc, #36]	; (8000db8 <MX_LPUART1_UART_Init+0x8c>)
 8000d94:	f004 ff67 	bl	8005c66 <HAL_UARTEx_SetRxFifoThreshold>
 8000d98:	4603      	mov	r3, r0
 8000d9a:	2b00      	cmp	r3, #0
 8000d9c:	d001      	beq.n	8000da2 <MX_LPUART1_UART_Init+0x76>
 8000d9e:	f7ff fe9f 	bl	8000ae0 <Error_Handler>
 8000da2:	4805      	ldr	r0, [pc, #20]	; (8000db8 <MX_LPUART1_UART_Init+0x8c>)
 8000da4:	f004 fee8 	bl	8005b78 <HAL_UARTEx_DisableFifoMode>
 8000da8:	4603      	mov	r3, r0
 8000daa:	2b00      	cmp	r3, #0
 8000dac:	d001      	beq.n	8000db2 <MX_LPUART1_UART_Init+0x86>
 8000dae:	f7ff fe97 	bl	8000ae0 <Error_Handler>
 8000db2:	bf00      	nop
 8000db4:	bd80      	pop	{r7, pc}
 8000db6:	bf00      	nop
 8000db8:	2000017c 	.word	0x2000017c
 8000dbc:	40008000 	.word	0x40008000

08000dc0 <MX_USART1_UART_Init>:
 8000dc0:	b580      	push	{r7, lr}
 8000dc2:	af00      	add	r7, sp, #0
 8000dc4:	4b22      	ldr	r3, [pc, #136]	; (8000e50 <MX_USART1_UART_Init+0x90>)
 8000dc6:	4a23      	ldr	r2, [pc, #140]	; (8000e54 <MX_USART1_UART_Init+0x94>)
 8000dc8:	601a      	str	r2, [r3, #0]
 8000dca:	4b21      	ldr	r3, [pc, #132]	; (8000e50 <MX_USART1_UART_Init+0x90>)
 8000dcc:	f44f 32e1 	mov.w	r2, #115200	; 0x1c200
 8000dd0:	605a      	str	r2, [r3, #4]
 8000dd2:	4b1f      	ldr	r3, [pc, #124]	; (8000e50 <MX_USART1_UART_Init+0x90>)
 8000dd4:	2200      	movs	r2, #0
 8000dd6:	609a      	str	r2, [r3, #8]
 8000dd8:	4b1d      	ldr	r3, [pc, #116]	; (8000e50 <MX_USART1_UART_Init+0x90>)
 8000dda:	2200      	movs	r2, #0
 8000ddc:	60da      	str	r2, [r3, #12]
 8000dde:	4b1c      	ldr	r3, [pc, #112]	; (8000e50 <MX_USART1_UART_Init+0x90>)
 8000de0:	2200      	movs	r2, #0
 8000de2:	611a      	str	r2, [r3, #16]
 8000de4:	4b1a      	ldr	r3, [pc, #104]	; (8000e50 <MX_USART1_UART_Init+0x90>)
 8000de6:	220c      	movs	r2, #12
 8000de8:	615a      	str	r2, [r3, #20]
 8000dea:	4b19      	ldr	r3, [pc, #100]	; (8000e50 <MX_USART1_UART_Init+0x90>)
 8000dec:	2200      	movs	r2, #0
 8000dee:	619a      	str	r2, [r3, #24]
 8000df0:	4b17      	ldr	r3, [pc, #92]	; (8000e50 <MX_USART1_UART_Init+0x90>)
 8000df2:	2200      	movs	r2, #0
 8000df4:	61da      	str	r2, [r3, #28]
 8000df6:	4b16      	ldr	r3, [pc, #88]	; (8000e50 <MX_USART1_UART_Init+0x90>)
 8000df8:	2200      	movs	r2, #0
 8000dfa:	621a      	str	r2, [r3, #32]
 8000dfc:	4b14      	ldr	r3, [pc, #80]	; (8000e50 <MX_USART1_UART_Init+0x90>)
 8000dfe:	2200      	movs	r2, #0
 8000e00:	625a      	str	r2, [r3, #36]	; 0x24
 8000e02:	4b13      	ldr	r3, [pc, #76]	; (8000e50 <MX_USART1_UART_Init+0x90>)
 8000e04:	2200      	movs	r2, #0
 8000e06:	629a      	str	r2, [r3, #40]	; 0x28
 8000e08:	4811      	ldr	r0, [pc, #68]	; (8000e50 <MX_USART1_UART_Init+0x90>)
 8000e0a:	f003 fae3 	bl	80043d4 <HAL_UART_Init>
 8000e0e:	4603      	mov	r3, r0
 8000e10:	2b00      	cmp	r3, #0
 8000e12:	d001      	beq.n	8000e18 <MX_USART1_UART_Init+0x58>
 8000e14:	f7ff fe64 	bl	8000ae0 <Error_Handler>
 8000e18:	2100      	movs	r1, #0
 8000e1a:	480d      	ldr	r0, [pc, #52]	; (8000e50 <MX_USART1_UART_Init+0x90>)
 8000e1c:	f004 fee5 	bl	8005bea <HAL_UARTEx_SetTxFifoThreshold>
 8000e20:	4603      	mov	r3, r0
 8000e22:	2b00      	cmp	r3, #0
 8000e24:	d001      	beq.n	8000e2a <MX_USART1_UART_Init+0x6a>
 8000e26:	f7ff fe5b 	bl	8000ae0 <Error_Handler>
 8000e2a:	2100      	movs	r1, #0
 8000e2c:	4808      	ldr	r0, [pc, #32]	; (8000e50 <MX_USART1_UART_Init+0x90>)
 8000e2e:	f004 ff1a 	bl	8005c66 <HAL_UARTEx_SetRxFifoThreshold>
 8000e32:	4603      	mov	r3, r0
 8000e34:	2b00      	cmp	r3, #0
 8000e36:	d001      	beq.n	8000e3c <MX_USART1_UART_Init+0x7c>
 8000e38:	f7ff fe52 	bl	8000ae0 <Error_Handler>
 8000e3c:	4804      	ldr	r0, [pc, #16]	; (8000e50 <MX_USART1_UART_Init+0x90>)
 8000e3e:	f004 fe9b 	bl	8005b78 <HAL_UARTEx_DisableFifoMode>
 8000e42:	4603      	mov	r3, r0
 8000e44:	2b00      	cmp	r3, #0
 8000e46:	d001      	beq.n	8000e4c <MX_USART1_UART_Init+0x8c>
 8000e48:	f7ff fe4a 	bl	8000ae0 <Error_Handler>
 8000e4c:	bf00      	nop
 8000e4e:	bd80      	pop	{r7, pc}
 8000e50:	2000020c 	.word	0x2000020c
 8000e54:	40013800 	.word	0x40013800

08000e58 <HAL_UART_MspInit>:
 8000e58:	b580      	push	{r7, lr}
 8000e5a:	b08c      	sub	sp, #48	; 0x30
 8000e5c:	af00      	add	r7, sp, #0
 8000e5e:	6078      	str	r0, [r7, #4]
 8000e60:	f107 031c 	add.w	r3, r7, #28
 8000e64:	2200      	movs	r2, #0
 8000e66:	601a      	str	r2, [r3, #0]
 8000e68:	605a      	str	r2, [r3, #4]
 8000e6a:	609a      	str	r2, [r3, #8]
 8000e6c:	60da      	str	r2, [r3, #12]
 8000e6e:	611a      	str	r2, [r3, #16]
 8000e70:	687b      	ldr	r3, [r7, #4]
 8000e72:	681b      	ldr	r3, [r3, #0]
 8000e74:	4a32      	ldr	r2, [pc, #200]	; (8000f40 <HAL_UART_MspInit+0xe8>)
 8000e76:	4293      	cmp	r3, r2
 8000e78:	d129      	bne.n	8000ece <HAL_UART_MspInit+0x76>
 8000e7a:	4b32      	ldr	r3, [pc, #200]	; (8000f44 <HAL_UART_MspInit+0xec>)
 8000e7c:	6ddb      	ldr	r3, [r3, #92]	; 0x5c
 8000e7e:	4a31      	ldr	r2, [pc, #196]	; (8000f44 <HAL_UART_MspInit+0xec>)
 8000e80:	f043 0301 	orr.w	r3, r3, #1
 8000e84:	65d3      	str	r3, [r2, #92]	; 0x5c
 8000e86:	4b2f      	ldr	r3, [pc, #188]	; (8000f44 <HAL_UART_MspInit+0xec>)
 8000e88:	6ddb      	ldr	r3, [r3, #92]	; 0x5c
 8000e8a:	f003 0301 	and.w	r3, r3, #1
 8000e8e:	61bb      	str	r3, [r7, #24]
 8000e90:	69bb      	ldr	r3, [r7, #24]
 8000e92:	4b2c      	ldr	r3, [pc, #176]	; (8000f44 <HAL_UART_MspInit+0xec>)
 8000e94:	6cdb      	ldr	r3, [r3, #76]	; 0x4c
 8000e96:	4a2b      	ldr	r2, [pc, #172]	; (8000f44 <HAL_UART_MspInit+0xec>)
 8000e98:	f043 0301 	orr.w	r3, r3, #1
 8000e9c:	64d3      	str	r3, [r2, #76]	; 0x4c
 8000e9e:	4b29      	ldr	r3, [pc, #164]	; (8000f44 <HAL_UART_MspInit+0xec>)
 8000ea0:	6cdb      	ldr	r3, [r3, #76]	; 0x4c
 8000ea2:	f003 0301 	and.w	r3, r3, #1
 8000ea6:	617b      	str	r3, [r7, #20]
 8000ea8:	697b      	ldr	r3, [r7, #20]
 8000eaa:	230c      	movs	r3, #12
 8000eac:	61fb      	str	r3, [r7, #28]
 8000eae:	2302      	movs	r3, #2
 8000eb0:	623b      	str	r3, [r7, #32]
 8000eb2:	2300      	movs	r3, #0
 8000eb4:	627b      	str	r3, [r7, #36]	; 0x24
 8000eb6:	2300      	movs	r3, #0
 8000eb8:	62bb      	str	r3, [r7, #40]	; 0x28
 8000eba:	230c      	movs	r3, #12
 8000ebc:	62fb      	str	r3, [r7, #44]	; 0x2c
 8000ebe:	f107 031c 	add.w	r3, r7, #28
 8000ec2:	4619      	mov	r1, r3
 8000ec4:	f04f 4090 	mov.w	r0, #1207959552	; 0x48000000
 8000ec8:	f002 f878 	bl	8002fbc <HAL_GPIO_Init>
 8000ecc:	e034      	b.n	8000f38 <HAL_UART_MspInit+0xe0>
 8000ece:	687b      	ldr	r3, [r7, #4]
 8000ed0:	681b      	ldr	r3, [r3, #0]
 8000ed2:	4a1d      	ldr	r2, [pc, #116]	; (8000f48 <HAL_UART_MspInit+0xf0>)
 8000ed4:	4293      	cmp	r3, r2
 8000ed6:	d12f      	bne.n	8000f38 <HAL_UART_MspInit+0xe0>
 8000ed8:	4b1a      	ldr	r3, [pc, #104]	; (8000f44 <HAL_UART_MspInit+0xec>)
 8000eda:	6e1b      	ldr	r3, [r3, #96]	; 0x60
 8000edc:	4a19      	ldr	r2, [pc, #100]	; (8000f44 <HAL_UART_MspInit+0xec>)
 8000ede:	f443 4380 	orr.w	r3, r3, #16384	; 0x4000
 8000ee2:	6613      	str	r3, [r2, #96]	; 0x60
 8000ee4:	4b17      	ldr	r3, [pc, #92]	; (8000f44 <HAL_UART_MspInit+0xec>)
 8000ee6:	6e1b      	ldr	r3, [r3, #96]	; 0x60
 8000ee8:	f403 4380 	and.w	r3, r3, #16384	; 0x4000
 8000eec:	613b      	str	r3, [r7, #16]
 8000eee:	693b      	ldr	r3, [r7, #16]
 8000ef0:	4b14      	ldr	r3, [pc, #80]	; (8000f44 <HAL_UART_MspInit+0xec>)
 8000ef2:	6cdb      	ldr	r3, [r3, #76]	; 0x4c
 8000ef4:	4a13      	ldr	r2, [pc, #76]	; (8000f44 <HAL_UART_MspInit+0xec>)
 8000ef6:	f043 0304 	orr.w	r3, r3, #4
 8000efa:	64d3      	str	r3, [r2, #76]	; 0x4c
 8000efc:	4b11      	ldr	r3, [pc, #68]	; (8000f44 <HAL_UART_MspInit+0xec>)
 8000efe:	6cdb      	ldr	r3, [r3, #76]	; 0x4c
 8000f00:	f003 0304 	and.w	r3, r3, #4
 8000f04:	60fb      	str	r3, [r7, #12]
 8000f06:	68fb      	ldr	r3, [r7, #12]
 8000f08:	2330      	movs	r3, #48	; 0x30
 8000f0a:	61fb      	str	r3, [r7, #28]
 8000f0c:	2302      	movs	r3, #2
 8000f0e:	623b      	str	r3, [r7, #32]
 8000f10:	2300      	movs	r3, #0
 8000f12:	627b      	str	r3, [r7, #36]	; 0x24
 8000f14:	2300      	movs	r3, #0
 8000f16:	62bb      	str	r3, [r7, #40]	; 0x28
 8000f18:	2307      	movs	r3, #7
 8000f1a:	62fb      	str	r3, [r7, #44]	; 0x2c
 8000f1c:	f107 031c 	add.w	r3, r7, #28
 8000f20:	4619      	mov	r1, r3
 8000f22:	480a      	ldr	r0, [pc, #40]	; (8000f4c <HAL_UART_MspInit+0xf4>)
 8000f24:	f002 f84a 	bl	8002fbc <HAL_GPIO_Init>
 8000f28:	2200      	movs	r2, #0
 8000f2a:	2100      	movs	r1, #0
 8000f2c:	2025      	movs	r0, #37	; 0x25
 8000f2e:	f001 fcde 	bl	80028ee <HAL_NVIC_SetPriority>
 8000f32:	2025      	movs	r0, #37	; 0x25
 8000f34:	f001 fcf5 	bl	8002922 <HAL_NVIC_EnableIRQ>
 8000f38:	bf00      	nop
 8000f3a:	3730      	adds	r7, #48	; 0x30
 8000f3c:	46bd      	mov	sp, r7
 8000f3e:	bd80      	pop	{r7, pc}
 8000f40:	40008000 	.word	0x40008000
 8000f44:	40021000 	.word	0x40021000
 8000f48:	40013800 	.word	0x40013800
 8000f4c:	48000800 	.word	0x48000800

08000f50 <__io_putchar>:
 8000f50:	b580      	push	{r7, lr}
 8000f52:	b082      	sub	sp, #8
 8000f54:	af00      	add	r7, sp, #0
 8000f56:	6078      	str	r0, [r7, #4]
 8000f58:	1d39      	adds	r1, r7, #4
 8000f5a:	f64f 73ff 	movw	r3, #65535	; 0xffff
 8000f5e:	2201      	movs	r2, #1
 8000f60:	4803      	ldr	r0, [pc, #12]	; (8000f70 <__io_putchar+0x20>)
 8000f62:	f003 fa87 	bl	8004474 <HAL_UART_Transmit>
 8000f66:	687b      	ldr	r3, [r7, #4]
 8000f68:	4618      	mov	r0, r3
 8000f6a:	3708      	adds	r7, #8
 8000f6c:	46bd      	mov	sp, r7
 8000f6e:	bd80      	pop	{r7, pc}
 8000f70:	2000020c 	.word	0x2000020c

08000f74 <Reset_Handler>:
 8000f74:	480d      	ldr	r0, [pc, #52]	; (8000fac <LoopForever+0x2>)
 8000f76:	4685      	mov	sp, r0
 8000f78:	480d      	ldr	r0, [pc, #52]	; (8000fb0 <LoopForever+0x6>)
 8000f7a:	490e      	ldr	r1, [pc, #56]	; (8000fb4 <LoopForever+0xa>)
 8000f7c:	4a0e      	ldr	r2, [pc, #56]	; (8000fb8 <LoopForever+0xe>)
 8000f7e:	2300      	movs	r3, #0
 8000f80:	e002      	b.n	8000f88 <LoopCopyDataInit>

08000f82 <CopyDataInit>:
 8000f82:	58d4      	ldr	r4, [r2, r3]
 8000f84:	50c4      	str	r4, [r0, r3]
 8000f86:	3304      	adds	r3, #4

08000f88 <LoopCopyDataInit>:
 8000f88:	18c4      	adds	r4, r0, r3
 8000f8a:	428c      	cmp	r4, r1
 8000f8c:	d3f9      	bcc.n	8000f82 <CopyDataInit>
 8000f8e:	4a0b      	ldr	r2, [pc, #44]	; (8000fbc <LoopForever+0x12>)
 8000f90:	4c0b      	ldr	r4, [pc, #44]	; (8000fc0 <LoopForever+0x16>)
 8000f92:	2300      	movs	r3, #0
 8000f94:	e001      	b.n	8000f9a <LoopFillZerobss>

08000f96 <FillZerobss>:
 8000f96:	6013      	str	r3, [r2, #0]
 8000f98:	3204      	adds	r2, #4

08000f9a <LoopFillZerobss>:
 8000f9a:	42a2      	cmp	r2, r4
 8000f9c:	d3fb      	bcc.n	8000f96 <FillZerobss>
 8000f9e:	f7ff feb3 	bl	8000d08 <SystemInit>
 8000fa2:	f004 fef3 	bl	8005d8c <__libc_init_array>
 8000fa6:	f7ff fc95 	bl	80008d4 <main>

08000faa <LoopForever>:
 8000faa:	e7fe      	b.n	8000faa <LoopForever>
 8000fac:	20020000 	.word	0x20020000
 8000fb0:	20000000 	.word	0x20000000
 8000fb4:	2000007c 	.word	0x2000007c
 8000fb8:	08006da4 	.word	0x08006da4
 8000fbc:	2000007c 	.word	0x2000007c
 8000fc0:	200002b0 	.word	0x200002b0

08000fc4 <ADC1_2_IRQHandler>:
 8000fc4:	e7fe      	b.n	8000fc4 <ADC1_2_IRQHandler>

08000fc6 <HAL_Init>:
 8000fc6:	b580      	push	{r7, lr}
 8000fc8:	b082      	sub	sp, #8
 8000fca:	af00      	add	r7, sp, #0
 8000fcc:	2300      	movs	r3, #0
 8000fce:	71fb      	strb	r3, [r7, #7]
 8000fd0:	2003      	movs	r0, #3
 8000fd2:	f001 fc81 	bl	80028d8 <HAL_NVIC_SetPriorityGrouping>
 8000fd6:	2000      	movs	r0, #0
 8000fd8:	f000 f80e 	bl	8000ff8 <HAL_InitTick>
 8000fdc:	4603      	mov	r3, r0
 8000fde:	2b00      	cmp	r3, #0
 8000fe0:	d002      	beq.n	8000fe8 <HAL_Init+0x22>
 8000fe2:	2301      	movs	r3, #1
 8000fe4:	71fb      	strb	r3, [r7, #7]
 8000fe6:	e001      	b.n	8000fec <HAL_Init+0x26>
 8000fe8:	f7ff fd80 	bl	8000aec <HAL_MspInit>
 8000fec:	79fb      	ldrb	r3, [r7, #7]
 8000fee:	4618      	mov	r0, r3
 8000ff0:	3708      	adds	r7, #8
 8000ff2:	46bd      	mov	sp, r7
 8000ff4:	bd80      	pop	{r7, pc}
	...

08000ff8 <HAL_InitTick>:
 8000ff8:	b580      	push	{r7, lr}
 8000ffa:	b084      	sub	sp, #16
 8000ffc:	af00      	add	r7, sp, #0
 8000ffe:	6078      	str	r0, [r7, #4]
 8001000:	2300      	movs	r3, #0
 8001002:	73fb      	strb	r3, [r7, #15]
 8001004:	4b16      	ldr	r3, [pc, #88]	; (8001060 <HAL_InitTick+0x68>)
 8001006:	681b      	ldr	r3, [r3, #0]
 8001008:	2b00      	cmp	r3, #0
 800100a:	d022      	beq.n	8001052 <HAL_InitTick+0x5a>
 800100c:	4b15      	ldr	r3, [pc, #84]	; (8001064 <HAL_InitTick+0x6c>)
 800100e:	681a      	ldr	r2, [r3, #0]
 8001010:	4b13      	ldr	r3, [pc, #76]	; (8001060 <HAL_InitTick+0x68>)
 8001012:	681b      	ldr	r3, [r3, #0]
 8001014:	f44f 717a 	mov.w	r1, #1000	; 0x3e8
 8001018:	fbb1 f3f3 	udiv	r3, r1, r3
 800101c:	fbb2 f3f3 	udiv	r3, r2, r3
 8001020:	4618      	mov	r0, r3
 8001022:	f001 fc8c 	bl	800293e <HAL_SYSTICK_Config>
 8001026:	4603      	mov	r3, r0
 8001028:	2b00      	cmp	r3, #0
 800102a:	d10f      	bne.n	800104c <HAL_InitTick+0x54>
 800102c:	687b      	ldr	r3, [r7, #4]
 800102e:	2b0f      	cmp	r3, #15
 8001030:	d809      	bhi.n	8001046 <HAL_InitTick+0x4e>
 8001032:	2200      	movs	r2, #0
 8001034:	6879      	ldr	r1, [r7, #4]
 8001036:	f04f 30ff 	mov.w	r0, #4294967295
 800103a:	f001 fc58 	bl	80028ee <HAL_NVIC_SetPriority>
 800103e:	4a0a      	ldr	r2, [pc, #40]	; (8001068 <HAL_InitTick+0x70>)
 8001040:	687b      	ldr	r3, [r7, #4]
 8001042:	6013      	str	r3, [r2, #0]
 8001044:	e007      	b.n	8001056 <HAL_InitTick+0x5e>
 8001046:	2301      	movs	r3, #1
 8001048:	73fb      	strb	r3, [r7, #15]
 800104a:	e004      	b.n	8001056 <HAL_InitTick+0x5e>
 800104c:	2301      	movs	r3, #1
 800104e:	73fb      	strb	r3, [r7, #15]
 8001050:	e001      	b.n	8001056 <HAL_InitTick+0x5e>
 8001052:	2301      	movs	r3, #1
 8001054:	73fb      	strb	r3, [r7, #15]
 8001056:	7bfb      	ldrb	r3, [r7, #15]
 8001058:	4618      	mov	r0, r3
 800105a:	3710      	adds	r7, #16
 800105c:	46bd      	mov	sp, r7
 800105e:	bd80      	pop	{r7, pc}
 8001060:	20000014 	.word	0x20000014
 8001064:	2000000c 	.word	0x2000000c
 8001068:	20000010 	.word	0x20000010

0800106c <HAL_IncTick>:
 800106c:	b480      	push	{r7}
 800106e:	af00      	add	r7, sp, #0
 8001070:	4b05      	ldr	r3, [pc, #20]	; (8001088 <HAL_IncTick+0x1c>)
 8001072:	681a      	ldr	r2, [r3, #0]
 8001074:	4b05      	ldr	r3, [pc, #20]	; (800108c <HAL_IncTick+0x20>)
 8001076:	681b      	ldr	r3, [r3, #0]
 8001078:	4413      	add	r3, r2
 800107a:	4a03      	ldr	r2, [pc, #12]	; (8001088 <HAL_IncTick+0x1c>)
 800107c:	6013      	str	r3, [r2, #0]
 800107e:	bf00      	nop
 8001080:	46bd      	mov	sp, r7
 8001082:	f85d 7b04 	ldr.w	r7, [sp], #4
 8001086:	4770      	bx	lr
 8001088:	2000029c 	.word	0x2000029c
 800108c:	20000014 	.word	0x20000014

08001090 <HAL_GetTick>:
 8001090:	b480      	push	{r7}
 8001092:	af00      	add	r7, sp, #0
 8001094:	4b03      	ldr	r3, [pc, #12]	; (80010a4 <HAL_GetTick+0x14>)
 8001096:	681b      	ldr	r3, [r3, #0]
 8001098:	4618      	mov	r0, r3
 800109a:	46bd      	mov	sp, r7
 800109c:	f85d 7b04 	ldr.w	r7, [sp], #4
 80010a0:	4770      	bx	lr
 80010a2:	bf00      	nop
 80010a4:	2000029c 	.word	0x2000029c

080010a8 <HAL_Delay>:
 80010a8:	b580      	push	{r7, lr}
 80010aa:	b084      	sub	sp, #16
 80010ac:	af00      	add	r7, sp, #0
 80010ae:	6078      	str	r0, [r7, #4]
 80010b0:	f7ff ffee 	bl	8001090 <HAL_GetTick>
 80010b4:	60b8      	str	r0, [r7, #8]
 80010b6:	687b      	ldr	r3, [r7, #4]
 80010b8:	60fb      	str	r3, [r7, #12]
 80010ba:	68fb      	ldr	r3, [r7, #12]
 80010bc:	f1b3 3fff 	cmp.w	r3, #4294967295
 80010c0:	d004      	beq.n	80010cc <HAL_Delay+0x24>
 80010c2:	4b09      	ldr	r3, [pc, #36]	; (80010e8 <HAL_Delay+0x40>)
 80010c4:	681b      	ldr	r3, [r3, #0]
 80010c6:	68fa      	ldr	r2, [r7, #12]
 80010c8:	4413      	add	r3, r2
 80010ca:	60fb      	str	r3, [r7, #12]
 80010cc:	bf00      	nop
 80010ce:	f7ff ffdf 	bl	8001090 <HAL_GetTick>
 80010d2:	4602      	mov	r2, r0
 80010d4:	68bb      	ldr	r3, [r7, #8]
 80010d6:	1ad3      	subs	r3, r2, r3
 80010d8:	68fa      	ldr	r2, [r7, #12]
 80010da:	429a      	cmp	r2, r3
 80010dc:	d8f7      	bhi.n	80010ce <HAL_Delay+0x26>
 80010de:	bf00      	nop
 80010e0:	bf00      	nop
 80010e2:	3710      	adds	r7, #16
 80010e4:	46bd      	mov	sp, r7
 80010e6:	bd80      	pop	{r7, pc}
 80010e8:	20000014 	.word	0x20000014

080010ec <LL_ADC_SetCommonClock>:
 80010ec:	b480      	push	{r7}
 80010ee:	b083      	sub	sp, #12
 80010f0:	af00      	add	r7, sp, #0
 80010f2:	6078      	str	r0, [r7, #4]
 80010f4:	6039      	str	r1, [r7, #0]
 80010f6:	687b      	ldr	r3, [r7, #4]
 80010f8:	689b      	ldr	r3, [r3, #8]
 80010fa:	f423 127c 	bic.w	r2, r3, #4128768	; 0x3f0000
 80010fe:	683b      	ldr	r3, [r7, #0]
 8001100:	431a      	orrs	r2, r3
 8001102:	687b      	ldr	r3, [r7, #4]
 8001104:	609a      	str	r2, [r3, #8]
 8001106:	bf00      	nop
 8001108:	370c      	adds	r7, #12
 800110a:	46bd      	mov	sp, r7
 800110c:	f85d 7b04 	ldr.w	r7, [sp], #4
 8001110:	4770      	bx	lr

08001112 <LL_ADC_SetCommonPathInternalCh>:
 8001112:	b480      	push	{r7}
 8001114:	b083      	sub	sp, #12
 8001116:	af00      	add	r7, sp, #0
 8001118:	6078      	str	r0, [r7, #4]
 800111a:	6039      	str	r1, [r7, #0]
 800111c:	687b      	ldr	r3, [r7, #4]
 800111e:	689b      	ldr	r3, [r3, #8]
 8001120:	f023 72e0 	bic.w	r2, r3, #29360128	; 0x1c00000
 8001124:	683b      	ldr	r3, [r7, #0]
 8001126:	431a      	orrs	r2, r3
 8001128:	687b      	ldr	r3, [r7, #4]
 800112a:	609a      	str	r2, [r3, #8]
 800112c:	bf00      	nop
 800112e:	370c      	adds	r7, #12
 8001130:	46bd      	mov	sp, r7
 8001132:	f85d 7b04 	ldr.w	r7, [sp], #4
 8001136:	4770      	bx	lr

08001138 <LL_ADC_GetCommonPathInternalCh>:
 8001138:	b480      	push	{r7}
 800113a:	b083      	sub	sp, #12
 800113c:	af00      	add	r7, sp, #0
 800113e:	6078      	str	r0, [r7, #4]
 8001140:	687b      	ldr	r3, [r7, #4]
 8001142:	689b      	ldr	r3, [r3, #8]
 8001144:	f003 73e0 	and.w	r3, r3, #29360128	; 0x1c00000
 8001148:	4618      	mov	r0, r3
 800114a:	370c      	adds	r7, #12
 800114c:	46bd      	mov	sp, r7
 800114e:	f85d 7b04 	ldr.w	r7, [sp], #4
 8001152:	4770      	bx	lr

08001154 <LL_ADC_SetOffset>:
 8001154:	b480      	push	{r7}
 8001156:	b087      	sub	sp, #28
 8001158:	af00      	add	r7, sp, #0
 800115a:	60f8      	str	r0, [r7, #12]
 800115c:	60b9      	str	r1, [r7, #8]
 800115e:	607a      	str	r2, [r7, #4]
 8001160:	603b      	str	r3, [r7, #0]
 8001162:	68fb      	ldr	r3, [r7, #12]
 8001164:	3360      	adds	r3, #96	; 0x60
 8001166:	461a      	mov	r2, r3
 8001168:	68bb      	ldr	r3, [r7, #8]
 800116a:	009b      	lsls	r3, r3, #2
 800116c:	4413      	add	r3, r2
 800116e:	617b      	str	r3, [r7, #20]
 8001170:	697b      	ldr	r3, [r7, #20]
 8001172:	681a      	ldr	r2, [r3, #0]
 8001174:	4b08      	ldr	r3, [pc, #32]	; (8001198 <LL_ADC_SetOffset+0x44>)
 8001176:	4013      	ands	r3, r2
 8001178:	687a      	ldr	r2, [r7, #4]
 800117a:	f002 41f8 	and.w	r1, r2, #2080374784	; 0x7c000000
 800117e:	683a      	ldr	r2, [r7, #0]
 8001180:	430a      	orrs	r2, r1
 8001182:	4313      	orrs	r3, r2
 8001184:	f043 4200 	orr.w	r2, r3, #2147483648	; 0x80000000
 8001188:	697b      	ldr	r3, [r7, #20]
 800118a:	601a      	str	r2, [r3, #0]
 800118c:	bf00      	nop
 800118e:	371c      	adds	r7, #28
 8001190:	46bd      	mov	sp, r7
 8001192:	f85d 7b04 	ldr.w	r7, [sp], #4
 8001196:	4770      	bx	lr
 8001198:	03fff000 	.word	0x03fff000

0800119c <LL_ADC_GetOffsetChannel>:
 800119c:	b480      	push	{r7}
 800119e:	b085      	sub	sp, #20
 80011a0:	af00      	add	r7, sp, #0
 80011a2:	6078      	str	r0, [r7, #4]
 80011a4:	6039      	str	r1, [r7, #0]
 80011a6:	687b      	ldr	r3, [r7, #4]
 80011a8:	3360      	adds	r3, #96	; 0x60
 80011aa:	461a      	mov	r2, r3
 80011ac:	683b      	ldr	r3, [r7, #0]
 80011ae:	009b      	lsls	r3, r3, #2
 80011b0:	4413      	add	r3, r2
 80011b2:	60fb      	str	r3, [r7, #12]
 80011b4:	68fb      	ldr	r3, [r7, #12]
 80011b6:	681b      	ldr	r3, [r3, #0]
 80011b8:	f003 43f8 	and.w	r3, r3, #2080374784	; 0x7c000000
 80011bc:	4618      	mov	r0, r3
 80011be:	3714      	adds	r7, #20
 80011c0:	46bd      	mov	sp, r7
 80011c2:	f85d 7b04 	ldr.w	r7, [sp], #4
 80011c6:	4770      	bx	lr

080011c8 <LL_ADC_SetOffsetState>:
 80011c8:	b480      	push	{r7}
 80011ca:	b087      	sub	sp, #28
 80011cc:	af00      	add	r7, sp, #0
 80011ce:	60f8      	str	r0, [r7, #12]
 80011d0:	60b9      	str	r1, [r7, #8]
 80011d2:	607a      	str	r2, [r7, #4]
 80011d4:	68fb      	ldr	r3, [r7, #12]
 80011d6:	3360      	adds	r3, #96	; 0x60
 80011d8:	461a      	mov	r2, r3
 80011da:	68bb      	ldr	r3, [r7, #8]
 80011dc:	009b      	lsls	r3, r3, #2
 80011de:	4413      	add	r3, r2
 80011e0:	617b      	str	r3, [r7, #20]
 80011e2:	697b      	ldr	r3, [r7, #20]
 80011e4:	681b      	ldr	r3, [r3, #0]
 80011e6:	f023 4200 	bic.w	r2, r3, #2147483648	; 0x80000000
 80011ea:	687b      	ldr	r3, [r7, #4]
 80011ec:	431a      	orrs	r2, r3
 80011ee:	697b      	ldr	r3, [r7, #20]
 80011f0:	601a      	str	r2, [r3, #0]
 80011f2:	bf00      	nop
 80011f4:	371c      	adds	r7, #28
 80011f6:	46bd      	mov	sp, r7
 80011f8:	f85d 7b04 	ldr.w	r7, [sp], #4
 80011fc:	4770      	bx	lr

080011fe <LL_ADC_SetOffsetSign>:
 80011fe:	b480      	push	{r7}
 8001200:	b087      	sub	sp, #28
 8001202:	af00      	add	r7, sp, #0
 8001204:	60f8      	str	r0, [r7, #12]
 8001206:	60b9      	str	r1, [r7, #8]
 8001208:	607a      	str	r2, [r7, #4]
 800120a:	68fb      	ldr	r3, [r7, #12]
 800120c:	3360      	adds	r3, #96	; 0x60
 800120e:	461a      	mov	r2, r3
 8001210:	68bb      	ldr	r3, [r7, #8]
 8001212:	009b      	lsls	r3, r3, #2
 8001214:	4413      	add	r3, r2
 8001216:	617b      	str	r3, [r7, #20]
 8001218:	697b      	ldr	r3, [r7, #20]
 800121a:	681b      	ldr	r3, [r3, #0]
 800121c:	f023 7280 	bic.w	r2, r3, #16777216	; 0x1000000
 8001220:	687b      	ldr	r3, [r7, #4]
 8001222:	431a      	orrs	r2, r3
 8001224:	697b      	ldr	r3, [r7, #20]
 8001226:	601a      	str	r2, [r3, #0]
 8001228:	bf00      	nop
 800122a:	371c      	adds	r7, #28
 800122c:	46bd      	mov	sp, r7
 800122e:	f85d 7b04 	ldr.w	r7, [sp], #4
 8001232:	4770      	bx	lr

08001234 <LL_ADC_SetOffsetSaturation>:
 8001234:	b480      	push	{r7}
 8001236:	b087      	sub	sp, #28
 8001238:	af00      	add	r7, sp, #0
 800123a:	60f8      	str	r0, [r7, #12]
 800123c:	60b9      	str	r1, [r7, #8]
 800123e:	607a      	str	r2, [r7, #4]
 8001240:	68fb      	ldr	r3, [r7, #12]
 8001242:	3360      	adds	r3, #96	; 0x60
 8001244:	461a      	mov	r2, r3
 8001246:	68bb      	ldr	r3, [r7, #8]
 8001248:	009b      	lsls	r3, r3, #2
 800124a:	4413      	add	r3, r2
 800124c:	617b      	str	r3, [r7, #20]
 800124e:	697b      	ldr	r3, [r7, #20]
 8001250:	681b      	ldr	r3, [r3, #0]
 8001252:	f023 7200 	bic.w	r2, r3, #33554432	; 0x2000000
 8001256:	687b      	ldr	r3, [r7, #4]
 8001258:	431a      	orrs	r2, r3
 800125a:	697b      	ldr	r3, [r7, #20]
 800125c:	601a      	str	r2, [r3, #0]
 800125e:	bf00      	nop
 8001260:	371c      	adds	r7, #28
 8001262:	46bd      	mov	sp, r7
 8001264:	f85d 7b04 	ldr.w	r7, [sp], #4
 8001268:	4770      	bx	lr

0800126a <LL_ADC_SetSamplingTimeCommonConfig>:
 800126a:	b480      	push	{r7}
 800126c:	b083      	sub	sp, #12
 800126e:	af00      	add	r7, sp, #0
 8001270:	6078      	str	r0, [r7, #4]
 8001272:	6039      	str	r1, [r7, #0]
 8001274:	687b      	ldr	r3, [r7, #4]
 8001276:	695b      	ldr	r3, [r3, #20]
 8001278:	f023 4200 	bic.w	r2, r3, #2147483648	; 0x80000000
 800127c:	683b      	ldr	r3, [r7, #0]
 800127e:	431a      	orrs	r2, r3
 8001280:	687b      	ldr	r3, [r7, #4]
 8001282:	615a      	str	r2, [r3, #20]
 8001284:	bf00      	nop
 8001286:	370c      	adds	r7, #12
 8001288:	46bd      	mov	sp, r7
 800128a:	f85d 7b04 	ldr.w	r7, [sp], #4
 800128e:	4770      	bx	lr

08001290 <LL_ADC_REG_IsTriggerSourceSWStart>:
 8001290:	b480      	push	{r7}
 8001292:	b083      	sub	sp, #12
 8001294:	af00      	add	r7, sp, #0
 8001296:	6078      	str	r0, [r7, #4]
 8001298:	687b      	ldr	r3, [r7, #4]
 800129a:	68db      	ldr	r3, [r3, #12]
 800129c:	f403 6340 	and.w	r3, r3, #3072	; 0xc00
 80012a0:	2b00      	cmp	r3, #0
 80012a2:	d101      	bne.n	80012a8 <LL_ADC_REG_IsTriggerSourceSWStart+0x18>
 80012a4:	2301      	movs	r3, #1
 80012a6:	e000      	b.n	80012aa <LL_ADC_REG_IsTriggerSourceSWStart+0x1a>
 80012a8:	2300      	movs	r3, #0
 80012aa:	4618      	mov	r0, r3
 80012ac:	370c      	adds	r7, #12
 80012ae:	46bd      	mov	sp, r7
 80012b0:	f85d 7b04 	ldr.w	r7, [sp], #4
 80012b4:	4770      	bx	lr

080012b6 <LL_ADC_REG_SetSequencerRanks>:
 80012b6:	b480      	push	{r7}
 80012b8:	b087      	sub	sp, #28
 80012ba:	af00      	add	r7, sp, #0
 80012bc:	60f8      	str	r0, [r7, #12]
 80012be:	60b9      	str	r1, [r7, #8]
 80012c0:	607a      	str	r2, [r7, #4]
 80012c2:	68fb      	ldr	r3, [r7, #12]
 80012c4:	3330      	adds	r3, #48	; 0x30
 80012c6:	461a      	mov	r2, r3
 80012c8:	68bb      	ldr	r3, [r7, #8]
 80012ca:	0a1b      	lsrs	r3, r3, #8
 80012cc:	009b      	lsls	r3, r3, #2
 80012ce:	f003 030c 	and.w	r3, r3, #12
 80012d2:	4413      	add	r3, r2
 80012d4:	617b      	str	r3, [r7, #20]
 80012d6:	697b      	ldr	r3, [r7, #20]
 80012d8:	681a      	ldr	r2, [r3, #0]
 80012da:	68bb      	ldr	r3, [r7, #8]
 80012dc:	f003 031f 	and.w	r3, r3, #31
 80012e0:	211f      	movs	r1, #31
 80012e2:	fa01 f303 	lsl.w	r3, r1, r3
 80012e6:	43db      	mvns	r3, r3
 80012e8:	401a      	ands	r2, r3
 80012ea:	687b      	ldr	r3, [r7, #4]
 80012ec:	0e9b      	lsrs	r3, r3, #26
 80012ee:	f003 011f 	and.w	r1, r3, #31
 80012f2:	68bb      	ldr	r3, [r7, #8]
 80012f4:	f003 031f 	and.w	r3, r3, #31
 80012f8:	fa01 f303 	lsl.w	r3, r1, r3
 80012fc:	431a      	orrs	r2, r3
 80012fe:	697b      	ldr	r3, [r7, #20]
 8001300:	601a      	str	r2, [r3, #0]
 8001302:	bf00      	nop
 8001304:	371c      	adds	r7, #28
 8001306:	46bd      	mov	sp, r7
 8001308:	f85d 7b04 	ldr.w	r7, [sp], #4
 800130c:	4770      	bx	lr

0800130e <LL_ADC_SetChannelSamplingTime>:
 800130e:	b480      	push	{r7}
 8001310:	b087      	sub	sp, #28
 8001312:	af00      	add	r7, sp, #0
 8001314:	60f8      	str	r0, [r7, #12]
 8001316:	60b9      	str	r1, [r7, #8]
 8001318:	607a      	str	r2, [r7, #4]
 800131a:	68fb      	ldr	r3, [r7, #12]
 800131c:	3314      	adds	r3, #20
 800131e:	461a      	mov	r2, r3
 8001320:	68bb      	ldr	r3, [r7, #8]
 8001322:	0e5b      	lsrs	r3, r3, #25
 8001324:	009b      	lsls	r3, r3, #2
 8001326:	f003 0304 	and.w	r3, r3, #4
 800132a:	4413      	add	r3, r2
 800132c:	617b      	str	r3, [r7, #20]
 800132e:	697b      	ldr	r3, [r7, #20]
 8001330:	681a      	ldr	r2, [r3, #0]
 8001332:	68bb      	ldr	r3, [r7, #8]
 8001334:	0d1b      	lsrs	r3, r3, #20
 8001336:	f003 031f 	and.w	r3, r3, #31
 800133a:	2107      	movs	r1, #7
 800133c:	fa01 f303 	lsl.w	r3, r1, r3
 8001340:	43db      	mvns	r3, r3
 8001342:	401a      	ands	r2, r3
 8001344:	68bb      	ldr	r3, [r7, #8]
 8001346:	0d1b      	lsrs	r3, r3, #20
 8001348:	f003 031f 	and.w	r3, r3, #31
 800134c:	6879      	ldr	r1, [r7, #4]
 800134e:	fa01 f303 	lsl.w	r3, r1, r3
 8001352:	431a      	orrs	r2, r3
 8001354:	697b      	ldr	r3, [r7, #20]
 8001356:	601a      	str	r2, [r3, #0]
 8001358:	bf00      	nop
 800135a:	371c      	adds	r7, #28
 800135c:	46bd      	mov	sp, r7
 800135e:	f85d 7b04 	ldr.w	r7, [sp], #4
 8001362:	4770      	bx	lr

08001364 <LL_ADC_SetChannelSingleDiff>:
 8001364:	b480      	push	{r7}
 8001366:	b085      	sub	sp, #20
 8001368:	af00      	add	r7, sp, #0
 800136a:	60f8      	str	r0, [r7, #12]
 800136c:	60b9      	str	r1, [r7, #8]
 800136e:	607a      	str	r2, [r7, #4]
 8001370:	68fb      	ldr	r3, [r7, #12]
 8001372:	f8d3 20b0 	ldr.w	r2, [r3, #176]	; 0xb0
 8001376:	68bb      	ldr	r3, [r7, #8]
 8001378:	f3c3 0312 	ubfx	r3, r3, #0, #19
 800137c:	43db      	mvns	r3, r3
 800137e:	401a      	ands	r2, r3
 8001380:	687b      	ldr	r3, [r7, #4]
 8001382:	f003 0318 	and.w	r3, r3, #24
 8001386:	4908      	ldr	r1, [pc, #32]	; (80013a8 <LL_ADC_SetChannelSingleDiff+0x44>)
 8001388:	40d9      	lsrs	r1, r3
 800138a:	68bb      	ldr	r3, [r7, #8]
 800138c:	400b      	ands	r3, r1
 800138e:	f3c3 0312 	ubfx	r3, r3, #0, #19
 8001392:	431a      	orrs	r2, r3
 8001394:	68fb      	ldr	r3, [r7, #12]
 8001396:	f8c3 20b0 	str.w	r2, [r3, #176]	; 0xb0
 800139a:	bf00      	nop
 800139c:	3714      	adds	r7, #20
 800139e:	46bd      	mov	sp, r7
 80013a0:	f85d 7b04 	ldr.w	r7, [sp], #4
 80013a4:	4770      	bx	lr
 80013a6:	bf00      	nop
 80013a8:	0007ffff 	.word	0x0007ffff

080013ac <LL_ADC_GetMultimode>:
 80013ac:	b480      	push	{r7}
 80013ae:	b083      	sub	sp, #12
 80013b0:	af00      	add	r7, sp, #0
 80013b2:	6078      	str	r0, [r7, #4]
 80013b4:	687b      	ldr	r3, [r7, #4]
 80013b6:	689b      	ldr	r3, [r3, #8]
 80013b8:	f003 031f 	and.w	r3, r3, #31
 80013bc:	4618      	mov	r0, r3
 80013be:	370c      	adds	r7, #12
 80013c0:	46bd      	mov	sp, r7
 80013c2:	f85d 7b04 	ldr.w	r7, [sp], #4
 80013c6:	4770      	bx	lr

080013c8 <LL_ADC_DisableDeepPowerDown>:
 80013c8:	b480      	push	{r7}
 80013ca:	b083      	sub	sp, #12
 80013cc:	af00      	add	r7, sp, #0
 80013ce:	6078      	str	r0, [r7, #4]
 80013d0:	687b      	ldr	r3, [r7, #4]
 80013d2:	689b      	ldr	r3, [r3, #8]
 80013d4:	f023 4320 	bic.w	r3, r3, #2684354560	; 0xa0000000
 80013d8:	f023 033f 	bic.w	r3, r3, #63	; 0x3f
 80013dc:	687a      	ldr	r2, [r7, #4]
 80013de:	6093      	str	r3, [r2, #8]
 80013e0:	bf00      	nop
 80013e2:	370c      	adds	r7, #12
 80013e4:	46bd      	mov	sp, r7
 80013e6:	f85d 7b04 	ldr.w	r7, [sp], #4
 80013ea:	4770      	bx	lr

080013ec <LL_ADC_IsDeepPowerDownEnabled>:
 80013ec:	b480      	push	{r7}
 80013ee:	b083      	sub	sp, #12
 80013f0:	af00      	add	r7, sp, #0
 80013f2:	6078      	str	r0, [r7, #4]
 80013f4:	687b      	ldr	r3, [r7, #4]
 80013f6:	689b      	ldr	r3, [r3, #8]
 80013f8:	f003 5300 	and.w	r3, r3, #536870912	; 0x20000000
 80013fc:	f1b3 5f00 	cmp.w	r3, #536870912	; 0x20000000
 8001400:	d101      	bne.n	8001406 <LL_ADC_IsDeepPowerDownEnabled+0x1a>
 8001402:	2301      	movs	r3, #1
 8001404:	e000      	b.n	8001408 <LL_ADC_IsDeepPowerDownEnabled+0x1c>
 8001406:	2300      	movs	r3, #0
 8001408:	4618      	mov	r0, r3
 800140a:	370c      	adds	r7, #12
 800140c:	46bd      	mov	sp, r7
 800140e:	f85d 7b04 	ldr.w	r7, [sp], #4
 8001412:	4770      	bx	lr

08001414 <LL_ADC_EnableInternalRegulator>:
 8001414:	b480      	push	{r7}
 8001416:	b083      	sub	sp, #12
 8001418:	af00      	add	r7, sp, #0
 800141a:	6078      	str	r0, [r7, #4]
 800141c:	687b      	ldr	r3, [r7, #4]
 800141e:	689b      	ldr	r3, [r3, #8]
 8001420:	f023 4310 	bic.w	r3, r3, #2415919104	; 0x90000000
 8001424:	f023 033f 	bic.w	r3, r3, #63	; 0x3f
 8001428:	f043 5280 	orr.w	r2, r3, #268435456	; 0x10000000
 800142c:	687b      	ldr	r3, [r7, #4]
 800142e:	609a      	str	r2, [r3, #8]
 8001430:	bf00      	nop
 8001432:	370c      	adds	r7, #12
 8001434:	46bd      	mov	sp, r7
 8001436:	f85d 7b04 	ldr.w	r7, [sp], #4
 800143a:	4770      	bx	lr

0800143c <LL_ADC_IsInternalRegulatorEnabled>:
 800143c:	b480      	push	{r7}
 800143e:	b083      	sub	sp, #12
 8001440:	af00      	add	r7, sp, #0
 8001442:	6078      	str	r0, [r7, #4]
 8001444:	687b      	ldr	r3, [r7, #4]
 8001446:	689b      	ldr	r3, [r3, #8]
 8001448:	f003 5380 	and.w	r3, r3, #268435456	; 0x10000000
 800144c:	f1b3 5f80 	cmp.w	r3, #268435456	; 0x10000000
 8001450:	d101      	bne.n	8001456 <LL_ADC_IsInternalRegulatorEnabled+0x1a>
 8001452:	2301      	movs	r3, #1
 8001454:	e000      	b.n	8001458 <LL_ADC_IsInternalRegulatorEnabled+0x1c>
 8001456:	2300      	movs	r3, #0
 8001458:	4618      	mov	r0, r3
 800145a:	370c      	adds	r7, #12
 800145c:	46bd      	mov	sp, r7
 800145e:	f85d 7b04 	ldr.w	r7, [sp], #4
 8001462:	4770      	bx	lr

08001464 <LL_ADC_Enable>:
 8001464:	b480      	push	{r7}
 8001466:	b083      	sub	sp, #12
 8001468:	af00      	add	r7, sp, #0
 800146a:	6078      	str	r0, [r7, #4]
 800146c:	687b      	ldr	r3, [r7, #4]
 800146e:	689b      	ldr	r3, [r3, #8]
 8001470:	f023 4300 	bic.w	r3, r3, #2147483648	; 0x80000000
 8001474:	f023 033f 	bic.w	r3, r3, #63	; 0x3f
 8001478:	f043 0201 	orr.w	r2, r3, #1
 800147c:	687b      	ldr	r3, [r7, #4]
 800147e:	609a      	str	r2, [r3, #8]
 8001480:	bf00      	nop
 8001482:	370c      	adds	r7, #12
 8001484:	46bd      	mov	sp, r7
 8001486:	f85d 7b04 	ldr.w	r7, [sp], #4
 800148a:	4770      	bx	lr

0800148c <LL_ADC_IsEnabled>:
 800148c:	b480      	push	{r7}
 800148e:	b083      	sub	sp, #12
 8001490:	af00      	add	r7, sp, #0
 8001492:	6078      	str	r0, [r7, #4]
 8001494:	687b      	ldr	r3, [r7, #4]
 8001496:	689b      	ldr	r3, [r3, #8]
 8001498:	f003 0301 	and.w	r3, r3, #1
 800149c:	2b01      	cmp	r3, #1
 800149e:	d101      	bne.n	80014a4 <LL_ADC_IsEnabled+0x18>
 80014a0:	2301      	movs	r3, #1
 80014a2:	e000      	b.n	80014a6 <LL_ADC_IsEnabled+0x1a>
 80014a4:	2300      	movs	r3, #0
 80014a6:	4618      	mov	r0, r3
 80014a8:	370c      	adds	r7, #12
 80014aa:	46bd      	mov	sp, r7
 80014ac:	f85d 7b04 	ldr.w	r7, [sp], #4
 80014b0:	4770      	bx	lr

080014b2 <LL_ADC_REG_StartConversion>:
 80014b2:	b480      	push	{r7}
 80014b4:	b083      	sub	sp, #12
 80014b6:	af00      	add	r7, sp, #0
 80014b8:	6078      	str	r0, [r7, #4]
 80014ba:	687b      	ldr	r3, [r7, #4]
 80014bc:	689b      	ldr	r3, [r3, #8]
 80014be:	f023 4300 	bic.w	r3, r3, #2147483648	; 0x80000000
 80014c2:	f023 033f 	bic.w	r3, r3, #63	; 0x3f
 80014c6:	f043 0204 	orr.w	r2, r3, #4
 80014ca:	687b      	ldr	r3, [r7, #4]
 80014cc:	609a      	str	r2, [r3, #8]
 80014ce:	bf00      	nop
 80014d0:	370c      	adds	r7, #12
 80014d2:	46bd      	mov	sp, r7
 80014d4:	f85d 7b04 	ldr.w	r7, [sp], #4
 80014d8:	4770      	bx	lr

080014da <LL_ADC_REG_IsConversionOngoing>:
 80014da:	b480      	push	{r7}
 80014dc:	b083      	sub	sp, #12
 80014de:	af00      	add	r7, sp, #0
 80014e0:	6078      	str	r0, [r7, #4]
 80014e2:	687b      	ldr	r3, [r7, #4]
 80014e4:	689b      	ldr	r3, [r3, #8]
 80014e6:	f003 0304 	and.w	r3, r3, #4
 80014ea:	2b04      	cmp	r3, #4
 80014ec:	d101      	bne.n	80014f2 <LL_ADC_REG_IsConversionOngoing+0x18>
 80014ee:	2301      	movs	r3, #1
 80014f0:	e000      	b.n	80014f4 <LL_ADC_REG_IsConversionOngoing+0x1a>
 80014f2:	2300      	movs	r3, #0
 80014f4:	4618      	mov	r0, r3
 80014f6:	370c      	adds	r7, #12
 80014f8:	46bd      	mov	sp, r7
 80014fa:	f85d 7b04 	ldr.w	r7, [sp], #4
 80014fe:	4770      	bx	lr

08001500 <LL_ADC_INJ_IsConversionOngoing>:
 8001500:	b480      	push	{r7}
 8001502:	b083      	sub	sp, #12
 8001504:	af00      	add	r7, sp, #0
 8001506:	6078      	str	r0, [r7, #4]
 8001508:	687b      	ldr	r3, [r7, #4]
 800150a:	689b      	ldr	r3, [r3, #8]
 800150c:	f003 0308 	and.w	r3, r3, #8
 8001510:	2b08      	cmp	r3, #8
 8001512:	d101      	bne.n	8001518 <LL_ADC_INJ_IsConversionOngoing+0x18>
 8001514:	2301      	movs	r3, #1
 8001516:	e000      	b.n	800151a <LL_ADC_INJ_IsConversionOngoing+0x1a>
 8001518:	2300      	movs	r3, #0
 800151a:	4618      	mov	r0, r3
 800151c:	370c      	adds	r7, #12
 800151e:	46bd      	mov	sp, r7
 8001520:	f85d 7b04 	ldr.w	r7, [sp], #4
 8001524:	4770      	bx	lr
	...

08001528 <HAL_ADC_Init>:
 8001528:	b590      	push	{r4, r7, lr}
 800152a:	b089      	sub	sp, #36	; 0x24
 800152c:	af00      	add	r7, sp, #0
 800152e:	6078      	str	r0, [r7, #4]
 8001530:	2300      	movs	r3, #0
 8001532:	77fb      	strb	r3, [r7, #31]
 8001534:	2300      	movs	r3, #0
 8001536:	60bb      	str	r3, [r7, #8]
 8001538:	687b      	ldr	r3, [r7, #4]
 800153a:	2b00      	cmp	r3, #0
 800153c:	d101      	bne.n	8001542 <HAL_ADC_Init+0x1a>
 800153e:	2301      	movs	r3, #1
 8001540:	e1af      	b.n	80018a2 <HAL_ADC_Init+0x37a>
 8001542:	687b      	ldr	r3, [r7, #4]
 8001544:	695b      	ldr	r3, [r3, #20]
 8001546:	2b00      	cmp	r3, #0
 8001548:	687b      	ldr	r3, [r7, #4]
 800154a:	6ddb      	ldr	r3, [r3, #92]	; 0x5c
 800154c:	2b00      	cmp	r3, #0
 800154e:	d109      	bne.n	8001564 <HAL_ADC_Init+0x3c>
 8001550:	6878      	ldr	r0, [r7, #4]
 8001552:	f7ff f8b9 	bl	80006c8 <HAL_ADC_MspInit>
 8001556:	687b      	ldr	r3, [r7, #4]
 8001558:	2200      	movs	r2, #0
 800155a:	661a      	str	r2, [r3, #96]	; 0x60
 800155c:	687b      	ldr	r3, [r7, #4]
 800155e:	2200      	movs	r2, #0
 8001560:	f883 2058 	strb.w	r2, [r3, #88]	; 0x58
 8001564:	687b      	ldr	r3, [r7, #4]
 8001566:	681b      	ldr	r3, [r3, #0]
 8001568:	4618      	mov	r0, r3
 800156a:	f7ff ff3f 	bl	80013ec <LL_ADC_IsDeepPowerDownEnabled>
 800156e:	4603      	mov	r3, r0
 8001570:	2b00      	cmp	r3, #0
 8001572:	d004      	beq.n	800157e <HAL_ADC_Init+0x56>
 8001574:	687b      	ldr	r3, [r7, #4]
 8001576:	681b      	ldr	r3, [r3, #0]
 8001578:	4618      	mov	r0, r3
 800157a:	f7ff ff25 	bl	80013c8 <LL_ADC_DisableDeepPowerDown>
 800157e:	687b      	ldr	r3, [r7, #4]
 8001580:	681b      	ldr	r3, [r3, #0]
 8001582:	4618      	mov	r0, r3
 8001584:	f7ff ff5a 	bl	800143c <LL_ADC_IsInternalRegulatorEnabled>
 8001588:	4603      	mov	r3, r0
 800158a:	2b00      	cmp	r3, #0
 800158c:	d115      	bne.n	80015ba <HAL_ADC_Init+0x92>
 800158e:	687b      	ldr	r3, [r7, #4]
 8001590:	681b      	ldr	r3, [r3, #0]
 8001592:	4618      	mov	r0, r3
 8001594:	f7ff ff3e 	bl	8001414 <LL_ADC_EnableInternalRegulator>
 8001598:	4b9f      	ldr	r3, [pc, #636]	; (8001818 <HAL_ADC_Init+0x2f0>)
 800159a:	681b      	ldr	r3, [r3, #0]
 800159c:	099b      	lsrs	r3, r3, #6
 800159e:	4a9f      	ldr	r2, [pc, #636]	; (800181c <HAL_ADC_Init+0x2f4>)
 80015a0:	fba2 2303 	umull	r2, r3, r2, r3
 80015a4:	099b      	lsrs	r3, r3, #6
 80015a6:	3301      	adds	r3, #1
 80015a8:	005b      	lsls	r3, r3, #1
 80015aa:	60bb      	str	r3, [r7, #8]
 80015ac:	e002      	b.n	80015b4 <HAL_ADC_Init+0x8c>
 80015ae:	68bb      	ldr	r3, [r7, #8]
 80015b0:	3b01      	subs	r3, #1
 80015b2:	60bb      	str	r3, [r7, #8]
 80015b4:	68bb      	ldr	r3, [r7, #8]
 80015b6:	2b00      	cmp	r3, #0
 80015b8:	d1f9      	bne.n	80015ae <HAL_ADC_Init+0x86>
 80015ba:	687b      	ldr	r3, [r7, #4]
 80015bc:	681b      	ldr	r3, [r3, #0]
 80015be:	4618      	mov	r0, r3
 80015c0:	f7ff ff3c 	bl	800143c <LL_ADC_IsInternalRegulatorEnabled>
 80015c4:	4603      	mov	r3, r0
 80015c6:	2b00      	cmp	r3, #0
 80015c8:	d10d      	bne.n	80015e6 <HAL_ADC_Init+0xbe>
 80015ca:	687b      	ldr	r3, [r7, #4]
 80015cc:	6ddb      	ldr	r3, [r3, #92]	; 0x5c
 80015ce:	f043 0210 	orr.w	r2, r3, #16
 80015d2:	687b      	ldr	r3, [r7, #4]
 80015d4:	65da      	str	r2, [r3, #92]	; 0x5c
 80015d6:	687b      	ldr	r3, [r7, #4]
 80015d8:	6e1b      	ldr	r3, [r3, #96]	; 0x60
 80015da:	f043 0201 	orr.w	r2, r3, #1
 80015de:	687b      	ldr	r3, [r7, #4]
 80015e0:	661a      	str	r2, [r3, #96]	; 0x60
 80015e2:	2301      	movs	r3, #1
 80015e4:	77fb      	strb	r3, [r7, #31]
 80015e6:	687b      	ldr	r3, [r7, #4]
 80015e8:	681b      	ldr	r3, [r3, #0]
 80015ea:	4618      	mov	r0, r3
 80015ec:	f7ff ff75 	bl	80014da <LL_ADC_REG_IsConversionOngoing>
 80015f0:	6178      	str	r0, [r7, #20]
 80015f2:	687b      	ldr	r3, [r7, #4]
 80015f4:	6ddb      	ldr	r3, [r3, #92]	; 0x5c
 80015f6:	f003 0310 	and.w	r3, r3, #16
 80015fa:	2b00      	cmp	r3, #0
 80015fc:	f040 8148 	bne.w	8001890 <HAL_ADC_Init+0x368>
 8001600:	697b      	ldr	r3, [r7, #20]
 8001602:	2b00      	cmp	r3, #0
 8001604:	f040 8144 	bne.w	8001890 <HAL_ADC_Init+0x368>
 8001608:	687b      	ldr	r3, [r7, #4]
 800160a:	6ddb      	ldr	r3, [r3, #92]	; 0x5c
 800160c:	f423 7381 	bic.w	r3, r3, #258	; 0x102
 8001610:	f043 0202 	orr.w	r2, r3, #2
 8001614:	687b      	ldr	r3, [r7, #4]
 8001616:	65da      	str	r2, [r3, #92]	; 0x5c
 8001618:	687b      	ldr	r3, [r7, #4]
 800161a:	681b      	ldr	r3, [r3, #0]
 800161c:	4618      	mov	r0, r3
 800161e:	f7ff ff35 	bl	800148c <LL_ADC_IsEnabled>
 8001622:	4603      	mov	r3, r0
 8001624:	2b00      	cmp	r3, #0
 8001626:	d141      	bne.n	80016ac <HAL_ADC_Init+0x184>
 8001628:	687b      	ldr	r3, [r7, #4]
 800162a:	681b      	ldr	r3, [r3, #0]
 800162c:	f1b3 4fa0 	cmp.w	r3, #1342177280	; 0x50000000
 8001630:	d004      	beq.n	800163c <HAL_ADC_Init+0x114>
 8001632:	687b      	ldr	r3, [r7, #4]
 8001634:	681b      	ldr	r3, [r3, #0]
 8001636:	4a7a      	ldr	r2, [pc, #488]	; (8001820 <HAL_ADC_Init+0x2f8>)
 8001638:	4293      	cmp	r3, r2
 800163a:	d10f      	bne.n	800165c <HAL_ADC_Init+0x134>
 800163c:	f04f 40a0 	mov.w	r0, #1342177280	; 0x50000000
 8001640:	f7ff ff24 	bl	800148c <LL_ADC_IsEnabled>
 8001644:	4604      	mov	r4, r0
 8001646:	4876      	ldr	r0, [pc, #472]	; (8001820 <HAL_ADC_Init+0x2f8>)
 8001648:	f7ff ff20 	bl	800148c <LL_ADC_IsEnabled>
 800164c:	4603      	mov	r3, r0
 800164e:	4323      	orrs	r3, r4
 8001650:	2b00      	cmp	r3, #0
 8001652:	bf0c      	ite	eq
 8001654:	2301      	moveq	r3, #1
 8001656:	2300      	movne	r3, #0
 8001658:	b2db      	uxtb	r3, r3
 800165a:	e012      	b.n	8001682 <HAL_ADC_Init+0x15a>
 800165c:	4871      	ldr	r0, [pc, #452]	; (8001824 <HAL_ADC_Init+0x2fc>)
 800165e:	f7ff ff15 	bl	800148c <LL_ADC_IsEnabled>
 8001662:	4604      	mov	r4, r0
 8001664:	4870      	ldr	r0, [pc, #448]	; (8001828 <HAL_ADC_Init+0x300>)
 8001666:	f7ff ff11 	bl	800148c <LL_ADC_IsEnabled>
 800166a:	4603      	mov	r3, r0
 800166c:	431c      	orrs	r4, r3
 800166e:	486f      	ldr	r0, [pc, #444]	; (800182c <HAL_ADC_Init+0x304>)
 8001670:	f7ff ff0c 	bl	800148c <LL_ADC_IsEnabled>
 8001674:	4603      	mov	r3, r0
 8001676:	4323      	orrs	r3, r4
 8001678:	2b00      	cmp	r3, #0
 800167a:	bf0c      	ite	eq
 800167c:	2301      	moveq	r3, #1
 800167e:	2300      	movne	r3, #0
 8001680:	b2db      	uxtb	r3, r3
 8001682:	2b00      	cmp	r3, #0
 8001684:	d012      	beq.n	80016ac <HAL_ADC_Init+0x184>
 8001686:	687b      	ldr	r3, [r7, #4]
 8001688:	681b      	ldr	r3, [r3, #0]
 800168a:	f1b3 4fa0 	cmp.w	r3, #1342177280	; 0x50000000
 800168e:	d004      	beq.n	800169a <HAL_ADC_Init+0x172>
 8001690:	687b      	ldr	r3, [r7, #4]
 8001692:	681b      	ldr	r3, [r3, #0]
 8001694:	4a62      	ldr	r2, [pc, #392]	; (8001820 <HAL_ADC_Init+0x2f8>)
 8001696:	4293      	cmp	r3, r2
 8001698:	d101      	bne.n	800169e <HAL_ADC_Init+0x176>
 800169a:	4a65      	ldr	r2, [pc, #404]	; (8001830 <HAL_ADC_Init+0x308>)
 800169c:	e000      	b.n	80016a0 <HAL_ADC_Init+0x178>
 800169e:	4a65      	ldr	r2, [pc, #404]	; (8001834 <HAL_ADC_Init+0x30c>)
 80016a0:	687b      	ldr	r3, [r7, #4]
 80016a2:	685b      	ldr	r3, [r3, #4]
 80016a4:	4619      	mov	r1, r3
 80016a6:	4610      	mov	r0, r2
 80016a8:	f7ff fd20 	bl	80010ec <LL_ADC_SetCommonClock>
 80016ac:	687b      	ldr	r3, [r7, #4]
 80016ae:	7f5b      	ldrb	r3, [r3, #29]
 80016b0:	035a      	lsls	r2, r3, #13
 80016b2:	687b      	ldr	r3, [r7, #4]
 80016b4:	6bdb      	ldr	r3, [r3, #60]	; 0x3c
 80016b6:	431a      	orrs	r2, r3
 80016b8:	687b      	ldr	r3, [r7, #4]
 80016ba:	68db      	ldr	r3, [r3, #12]
 80016bc:	431a      	orrs	r2, r3
 80016be:	687b      	ldr	r3, [r7, #4]
 80016c0:	689b      	ldr	r3, [r3, #8]
 80016c2:	431a      	orrs	r2, r3
 80016c4:	687b      	ldr	r3, [r7, #4]
 80016c6:	f893 3024 	ldrb.w	r3, [r3, #36]	; 0x24
 80016ca:	041b      	lsls	r3, r3, #16
 80016cc:	4313      	orrs	r3, r2
 80016ce:	61bb      	str	r3, [r7, #24]
 80016d0:	687b      	ldr	r3, [r7, #4]
 80016d2:	f893 3024 	ldrb.w	r3, [r3, #36]	; 0x24
 80016d6:	2b01      	cmp	r3, #1
 80016d8:	d106      	bne.n	80016e8 <HAL_ADC_Init+0x1c0>
 80016da:	687b      	ldr	r3, [r7, #4]
 80016dc:	6a9b      	ldr	r3, [r3, #40]	; 0x28
 80016de:	3b01      	subs	r3, #1
 80016e0:	045b      	lsls	r3, r3, #17
 80016e2:	69ba      	ldr	r2, [r7, #24]
 80016e4:	4313      	orrs	r3, r2
 80016e6:	61bb      	str	r3, [r7, #24]
 80016e8:	687b      	ldr	r3, [r7, #4]
 80016ea:	6adb      	ldr	r3, [r3, #44]	; 0x2c
 80016ec:	2b00      	cmp	r3, #0
 80016ee:	d009      	beq.n	8001704 <HAL_ADC_Init+0x1dc>
 80016f0:	687b      	ldr	r3, [r7, #4]
 80016f2:	6adb      	ldr	r3, [r3, #44]	; 0x2c
 80016f4:	f403 7278 	and.w	r2, r3, #992	; 0x3e0
 80016f8:	687b      	ldr	r3, [r7, #4]
 80016fa:	6b1b      	ldr	r3, [r3, #48]	; 0x30
 80016fc:	4313      	orrs	r3, r2
 80016fe:	69ba      	ldr	r2, [r7, #24]
 8001700:	4313      	orrs	r3, r2
 8001702:	61bb      	str	r3, [r7, #24]
 8001704:	687b      	ldr	r3, [r7, #4]
 8001706:	681b      	ldr	r3, [r3, #0]
 8001708:	68da      	ldr	r2, [r3, #12]
 800170a:	4b4b      	ldr	r3, [pc, #300]	; (8001838 <HAL_ADC_Init+0x310>)
 800170c:	4013      	ands	r3, r2
 800170e:	687a      	ldr	r2, [r7, #4]
 8001710:	6812      	ldr	r2, [r2, #0]
 8001712:	69b9      	ldr	r1, [r7, #24]
 8001714:	430b      	orrs	r3, r1
 8001716:	60d3      	str	r3, [r2, #12]
 8001718:	687b      	ldr	r3, [r7, #4]
 800171a:	681b      	ldr	r3, [r3, #0]
 800171c:	691b      	ldr	r3, [r3, #16]
 800171e:	f023 6140 	bic.w	r1, r3, #201326592	; 0xc000000
 8001722:	687b      	ldr	r3, [r7, #4]
 8001724:	6b5a      	ldr	r2, [r3, #52]	; 0x34
 8001726:	687b      	ldr	r3, [r7, #4]
 8001728:	681b      	ldr	r3, [r3, #0]
 800172a:	430a      	orrs	r2, r1
 800172c:	611a      	str	r2, [r3, #16]
 800172e:	687b      	ldr	r3, [r7, #4]
 8001730:	681b      	ldr	r3, [r3, #0]
 8001732:	4618      	mov	r0, r3
 8001734:	f7ff fed1 	bl	80014da <LL_ADC_REG_IsConversionOngoing>
 8001738:	6138      	str	r0, [r7, #16]
 800173a:	687b      	ldr	r3, [r7, #4]
 800173c:	681b      	ldr	r3, [r3, #0]
 800173e:	4618      	mov	r0, r3
 8001740:	f7ff fede 	bl	8001500 <LL_ADC_INJ_IsConversionOngoing>
 8001744:	60f8      	str	r0, [r7, #12]
 8001746:	693b      	ldr	r3, [r7, #16]
 8001748:	2b00      	cmp	r3, #0
 800174a:	d17f      	bne.n	800184c <HAL_ADC_Init+0x324>
 800174c:	68fb      	ldr	r3, [r7, #12]
 800174e:	2b00      	cmp	r3, #0
 8001750:	d17c      	bne.n	800184c <HAL_ADC_Init+0x324>
 8001752:	687b      	ldr	r3, [r7, #4]
 8001754:	7f1b      	ldrb	r3, [r3, #28]
 8001756:	039a      	lsls	r2, r3, #14
 8001758:	687b      	ldr	r3, [r7, #4]
 800175a:	f893 3038 	ldrb.w	r3, [r3, #56]	; 0x38
 800175e:	005b      	lsls	r3, r3, #1
 8001760:	4313      	orrs	r3, r2
 8001762:	61bb      	str	r3, [r7, #24]
 8001764:	687b      	ldr	r3, [r7, #4]
 8001766:	681b      	ldr	r3, [r3, #0]
 8001768:	68db      	ldr	r3, [r3, #12]
 800176a:	f423 4380 	bic.w	r3, r3, #16384	; 0x4000
 800176e:	f023 0302 	bic.w	r3, r3, #2
 8001772:	687a      	ldr	r2, [r7, #4]
 8001774:	6812      	ldr	r2, [r2, #0]
 8001776:	69b9      	ldr	r1, [r7, #24]
 8001778:	430b      	orrs	r3, r1
 800177a:	60d3      	str	r3, [r2, #12]
 800177c:	687b      	ldr	r3, [r7, #4]
 800177e:	691b      	ldr	r3, [r3, #16]
 8001780:	2b00      	cmp	r3, #0
 8001782:	d017      	beq.n	80017b4 <HAL_ADC_Init+0x28c>
 8001784:	687b      	ldr	r3, [r7, #4]
 8001786:	681b      	ldr	r3, [r3, #0]
 8001788:	691a      	ldr	r2, [r3, #16]
 800178a:	687b      	ldr	r3, [r7, #4]
 800178c:	681b      	ldr	r3, [r3, #0]
 800178e:	f442 3280 	orr.w	r2, r2, #65536	; 0x10000
 8001792:	611a      	str	r2, [r3, #16]
 8001794:	687b      	ldr	r3, [r7, #4]
 8001796:	681b      	ldr	r3, [r3, #0]
 8001798:	f8d3 30c0 	ldr.w	r3, [r3, #192]	; 0xc0
 800179c:	f423 537f 	bic.w	r3, r3, #16320	; 0x3fc0
 80017a0:	f023 033f 	bic.w	r3, r3, #63	; 0x3f
 80017a4:	687a      	ldr	r2, [r7, #4]
 80017a6:	6911      	ldr	r1, [r2, #16]
 80017a8:	687a      	ldr	r2, [r7, #4]
 80017aa:	6812      	ldr	r2, [r2, #0]
 80017ac:	430b      	orrs	r3, r1
 80017ae:	f8c2 30c0 	str.w	r3, [r2, #192]	; 0xc0
 80017b2:	e013      	b.n	80017dc <HAL_ADC_Init+0x2b4>
 80017b4:	687b      	ldr	r3, [r7, #4]
 80017b6:	681b      	ldr	r3, [r3, #0]
 80017b8:	691a      	ldr	r2, [r3, #16]
 80017ba:	687b      	ldr	r3, [r7, #4]
 80017bc:	681b      	ldr	r3, [r3, #0]
 80017be:	f422 3280 	bic.w	r2, r2, #65536	; 0x10000
 80017c2:	611a      	str	r2, [r3, #16]
 80017c4:	687b      	ldr	r3, [r7, #4]
 80017c6:	681b      	ldr	r3, [r3, #0]
 80017c8:	f8d3 30c0 	ldr.w	r3, [r3, #192]	; 0xc0
 80017cc:	687a      	ldr	r2, [r7, #4]
 80017ce:	6812      	ldr	r2, [r2, #0]
 80017d0:	f423 537f 	bic.w	r3, r3, #16320	; 0x3fc0
 80017d4:	f023 033f 	bic.w	r3, r3, #63	; 0x3f
 80017d8:	f8c2 30c0 	str.w	r3, [r2, #192]	; 0xc0
 80017dc:	687b      	ldr	r3, [r7, #4]
 80017de:	f893 3040 	ldrb.w	r3, [r3, #64]	; 0x40
 80017e2:	2b01      	cmp	r3, #1
 80017e4:	d12a      	bne.n	800183c <HAL_ADC_Init+0x314>
 80017e6:	687b      	ldr	r3, [r7, #4]
 80017e8:	681b      	ldr	r3, [r3, #0]
 80017ea:	691b      	ldr	r3, [r3, #16]
 80017ec:	f423 63ff 	bic.w	r3, r3, #2040	; 0x7f8
 80017f0:	f023 0304 	bic.w	r3, r3, #4
 80017f4:	687a      	ldr	r2, [r7, #4]
 80017f6:	6c51      	ldr	r1, [r2, #68]	; 0x44
 80017f8:	687a      	ldr	r2, [r7, #4]
 80017fa:	6c92      	ldr	r2, [r2, #72]	; 0x48
 80017fc:	4311      	orrs	r1, r2
 80017fe:	687a      	ldr	r2, [r7, #4]
 8001800:	6cd2      	ldr	r2, [r2, #76]	; 0x4c
 8001802:	4311      	orrs	r1, r2
 8001804:	687a      	ldr	r2, [r7, #4]
 8001806:	6d12      	ldr	r2, [r2, #80]	; 0x50
 8001808:	430a      	orrs	r2, r1
 800180a:	431a      	orrs	r2, r3
 800180c:	687b      	ldr	r3, [r7, #4]
 800180e:	681b      	ldr	r3, [r3, #0]
 8001810:	f042 0201 	orr.w	r2, r2, #1
 8001814:	611a      	str	r2, [r3, #16]
 8001816:	e019      	b.n	800184c <HAL_ADC_Init+0x324>
 8001818:	2000000c 	.word	0x2000000c
 800181c:	053e2d63 	.word	0x053e2d63
 8001820:	50000100 	.word	0x50000100
 8001824:	50000400 	.word	0x50000400
 8001828:	50000500 	.word	0x50000500
 800182c:	50000600 	.word	0x50000600
 8001830:	50000300 	.word	0x50000300
 8001834:	50000700 	.word	0x50000700
 8001838:	fff04007 	.word	0xfff04007
 800183c:	687b      	ldr	r3, [r7, #4]
 800183e:	681b      	ldr	r3, [r3, #0]
 8001840:	691a      	ldr	r2, [r3, #16]
 8001842:	687b      	ldr	r3, [r7, #4]
 8001844:	681b      	ldr	r3, [r3, #0]
 8001846:	f022 0201 	bic.w	r2, r2, #1
 800184a:	611a      	str	r2, [r3, #16]
 800184c:	687b      	ldr	r3, [r7, #4]
 800184e:	695b      	ldr	r3, [r3, #20]
 8001850:	2b01      	cmp	r3, #1
 8001852:	d10c      	bne.n	800186e <HAL_ADC_Init+0x346>
 8001854:	687b      	ldr	r3, [r7, #4]
 8001856:	681b      	ldr	r3, [r3, #0]
 8001858:	6b1b      	ldr	r3, [r3, #48]	; 0x30
 800185a:	f023 010f 	bic.w	r1, r3, #15
 800185e:	687b      	ldr	r3, [r7, #4]
 8001860:	6a1b      	ldr	r3, [r3, #32]
 8001862:	1e5a      	subs	r2, r3, #1
 8001864:	687b      	ldr	r3, [r7, #4]
 8001866:	681b      	ldr	r3, [r3, #0]
 8001868:	430a      	orrs	r2, r1
 800186a:	631a      	str	r2, [r3, #48]	; 0x30
 800186c:	e007      	b.n	800187e <HAL_ADC_Init+0x356>
 800186e:	687b      	ldr	r3, [r7, #4]
 8001870:	681b      	ldr	r3, [r3, #0]
 8001872:	6b1a      	ldr	r2, [r3, #48]	; 0x30
 8001874:	687b      	ldr	r3, [r7, #4]
 8001876:	681b      	ldr	r3, [r3, #0]
 8001878:	f022 020f 	bic.w	r2, r2, #15
 800187c:	631a      	str	r2, [r3, #48]	; 0x30
 800187e:	687b      	ldr	r3, [r7, #4]
 8001880:	6ddb      	ldr	r3, [r3, #92]	; 0x5c
 8001882:	f023 0303 	bic.w	r3, r3, #3
 8001886:	f043 0201 	orr.w	r2, r3, #1
 800188a:	687b      	ldr	r3, [r7, #4]
 800188c:	65da      	str	r2, [r3, #92]	; 0x5c
 800188e:	e007      	b.n	80018a0 <HAL_ADC_Init+0x378>
 8001890:	687b      	ldr	r3, [r7, #4]
 8001892:	6ddb      	ldr	r3, [r3, #92]	; 0x5c
 8001894:	f043 0210 	orr.w	r2, r3, #16
 8001898:	687b      	ldr	r3, [r7, #4]
 800189a:	65da      	str	r2, [r3, #92]	; 0x5c
 800189c:	2301      	movs	r3, #1
 800189e:	77fb      	strb	r3, [r7, #31]
 80018a0:	7ffb      	ldrb	r3, [r7, #31]
 80018a2:	4618      	mov	r0, r3
 80018a4:	3724      	adds	r7, #36	; 0x24
 80018a6:	46bd      	mov	sp, r7
 80018a8:	bd90      	pop	{r4, r7, pc}
 80018aa:	bf00      	nop

080018ac <HAL_ADC_Start_DMA>:
 80018ac:	b580      	push	{r7, lr}
 80018ae:	b086      	sub	sp, #24
 80018b0:	af00      	add	r7, sp, #0
 80018b2:	60f8      	str	r0, [r7, #12]
 80018b4:	60b9      	str	r1, [r7, #8]
 80018b6:	607a      	str	r2, [r7, #4]
 80018b8:	68fb      	ldr	r3, [r7, #12]
 80018ba:	681b      	ldr	r3, [r3, #0]
 80018bc:	f1b3 4fa0 	cmp.w	r3, #1342177280	; 0x50000000
 80018c0:	d004      	beq.n	80018cc <HAL_ADC_Start_DMA+0x20>
 80018c2:	68fb      	ldr	r3, [r7, #12]
 80018c4:	681b      	ldr	r3, [r3, #0]
 80018c6:	4a58      	ldr	r2, [pc, #352]	; (8001a28 <HAL_ADC_Start_DMA+0x17c>)
 80018c8:	4293      	cmp	r3, r2
 80018ca:	d101      	bne.n	80018d0 <HAL_ADC_Start_DMA+0x24>
 80018cc:	4b57      	ldr	r3, [pc, #348]	; (8001a2c <HAL_ADC_Start_DMA+0x180>)
 80018ce:	e000      	b.n	80018d2 <HAL_ADC_Start_DMA+0x26>
 80018d0:	4b57      	ldr	r3, [pc, #348]	; (8001a30 <HAL_ADC_Start_DMA+0x184>)
 80018d2:	4618      	mov	r0, r3
 80018d4:	f7ff fd6a 	bl	80013ac <LL_ADC_GetMultimode>
 80018d8:	6138      	str	r0, [r7, #16]
 80018da:	68fb      	ldr	r3, [r7, #12]
 80018dc:	681b      	ldr	r3, [r3, #0]
 80018de:	4618      	mov	r0, r3
 80018e0:	f7ff fdfb 	bl	80014da <LL_ADC_REG_IsConversionOngoing>
 80018e4:	4603      	mov	r3, r0
 80018e6:	2b00      	cmp	r3, #0
 80018e8:	f040 8096 	bne.w	8001a18 <HAL_ADC_Start_DMA+0x16c>
 80018ec:	68fb      	ldr	r3, [r7, #12]
 80018ee:	f893 3058 	ldrb.w	r3, [r3, #88]	; 0x58
 80018f2:	2b01      	cmp	r3, #1
 80018f4:	d101      	bne.n	80018fa <HAL_ADC_Start_DMA+0x4e>
 80018f6:	2302      	movs	r3, #2
 80018f8:	e091      	b.n	8001a1e <HAL_ADC_Start_DMA+0x172>
 80018fa:	68fb      	ldr	r3, [r7, #12]
 80018fc:	2201      	movs	r2, #1
 80018fe:	f883 2058 	strb.w	r2, [r3, #88]	; 0x58
 8001902:	693b      	ldr	r3, [r7, #16]
 8001904:	2b00      	cmp	r3, #0
 8001906:	d005      	beq.n	8001914 <HAL_ADC_Start_DMA+0x68>
 8001908:	693b      	ldr	r3, [r7, #16]
 800190a:	2b05      	cmp	r3, #5
 800190c:	d002      	beq.n	8001914 <HAL_ADC_Start_DMA+0x68>
 800190e:	693b      	ldr	r3, [r7, #16]
 8001910:	2b09      	cmp	r3, #9
 8001912:	d17a      	bne.n	8001a0a <HAL_ADC_Start_DMA+0x15e>
 8001914:	68f8      	ldr	r0, [r7, #12]
 8001916:	f000 fceb 	bl	80022f0 <ADC_Enable>
 800191a:	4603      	mov	r3, r0
 800191c:	75fb      	strb	r3, [r7, #23]
 800191e:	7dfb      	ldrb	r3, [r7, #23]
 8001920:	2b00      	cmp	r3, #0
 8001922:	d16d      	bne.n	8001a00 <HAL_ADC_Start_DMA+0x154>
 8001924:	68fb      	ldr	r3, [r7, #12]
 8001926:	6ddb      	ldr	r3, [r3, #92]	; 0x5c
 8001928:	f423 6370 	bic.w	r3, r3, #3840	; 0xf00
 800192c:	f023 0301 	bic.w	r3, r3, #1
 8001930:	f443 7280 	orr.w	r2, r3, #256	; 0x100
 8001934:	68fb      	ldr	r3, [r7, #12]
 8001936:	65da      	str	r2, [r3, #92]	; 0x5c
 8001938:	68fb      	ldr	r3, [r7, #12]
 800193a:	681b      	ldr	r3, [r3, #0]
 800193c:	4a3a      	ldr	r2, [pc, #232]	; (8001a28 <HAL_ADC_Start_DMA+0x17c>)
 800193e:	4293      	cmp	r3, r2
 8001940:	d009      	beq.n	8001956 <HAL_ADC_Start_DMA+0xaa>
 8001942:	68fb      	ldr	r3, [r7, #12]
 8001944:	681b      	ldr	r3, [r3, #0]
 8001946:	4a3b      	ldr	r2, [pc, #236]	; (8001a34 <HAL_ADC_Start_DMA+0x188>)
 8001948:	4293      	cmp	r3, r2
 800194a:	d002      	beq.n	8001952 <HAL_ADC_Start_DMA+0xa6>
 800194c:	68fb      	ldr	r3, [r7, #12]
 800194e:	681b      	ldr	r3, [r3, #0]
 8001950:	e003      	b.n	800195a <HAL_ADC_Start_DMA+0xae>
 8001952:	4b39      	ldr	r3, [pc, #228]	; (8001a38 <HAL_ADC_Start_DMA+0x18c>)
 8001954:	e001      	b.n	800195a <HAL_ADC_Start_DMA+0xae>
 8001956:	f04f 43a0 	mov.w	r3, #1342177280	; 0x50000000
 800195a:	68fa      	ldr	r2, [r7, #12]
 800195c:	6812      	ldr	r2, [r2, #0]
 800195e:	4293      	cmp	r3, r2
 8001960:	d002      	beq.n	8001968 <HAL_ADC_Start_DMA+0xbc>
 8001962:	693b      	ldr	r3, [r7, #16]
 8001964:	2b00      	cmp	r3, #0
 8001966:	d105      	bne.n	8001974 <HAL_ADC_Start_DMA+0xc8>
 8001968:	68fb      	ldr	r3, [r7, #12]
 800196a:	6ddb      	ldr	r3, [r3, #92]	; 0x5c
 800196c:	f423 1280 	bic.w	r2, r3, #1048576	; 0x100000
 8001970:	68fb      	ldr	r3, [r7, #12]
 8001972:	65da      	str	r2, [r3, #92]	; 0x5c
 8001974:	68fb      	ldr	r3, [r7, #12]
 8001976:	6ddb      	ldr	r3, [r3, #92]	; 0x5c
 8001978:	f403 5380 	and.w	r3, r3, #4096	; 0x1000
 800197c:	2b00      	cmp	r3, #0
 800197e:	d006      	beq.n	800198e <HAL_ADC_Start_DMA+0xe2>
 8001980:	68fb      	ldr	r3, [r7, #12]
 8001982:	6e1b      	ldr	r3, [r3, #96]	; 0x60
 8001984:	f023 0206 	bic.w	r2, r3, #6
 8001988:	68fb      	ldr	r3, [r7, #12]
 800198a:	661a      	str	r2, [r3, #96]	; 0x60
 800198c:	e002      	b.n	8001994 <HAL_ADC_Start_DMA+0xe8>
 800198e:	68fb      	ldr	r3, [r7, #12]
 8001990:	2200      	movs	r2, #0
 8001992:	661a      	str	r2, [r3, #96]	; 0x60
 8001994:	68fb      	ldr	r3, [r7, #12]
 8001996:	6d5b      	ldr	r3, [r3, #84]	; 0x54
 8001998:	4a28      	ldr	r2, [pc, #160]	; (8001a3c <HAL_ADC_Start_DMA+0x190>)
 800199a:	62da      	str	r2, [r3, #44]	; 0x2c
 800199c:	68fb      	ldr	r3, [r7, #12]
 800199e:	6d5b      	ldr	r3, [r3, #84]	; 0x54
 80019a0:	4a27      	ldr	r2, [pc, #156]	; (8001a40 <HAL_ADC_Start_DMA+0x194>)
 80019a2:	631a      	str	r2, [r3, #48]	; 0x30
 80019a4:	68fb      	ldr	r3, [r7, #12]
 80019a6:	6d5b      	ldr	r3, [r3, #84]	; 0x54
 80019a8:	4a26      	ldr	r2, [pc, #152]	; (8001a44 <HAL_ADC_Start_DMA+0x198>)
 80019aa:	635a      	str	r2, [r3, #52]	; 0x34
 80019ac:	68fb      	ldr	r3, [r7, #12]
 80019ae:	681b      	ldr	r3, [r3, #0]
 80019b0:	221c      	movs	r2, #28
 80019b2:	601a      	str	r2, [r3, #0]
 80019b4:	68fb      	ldr	r3, [r7, #12]
 80019b6:	2200      	movs	r2, #0
 80019b8:	f883 2058 	strb.w	r2, [r3, #88]	; 0x58
 80019bc:	68fb      	ldr	r3, [r7, #12]
 80019be:	681b      	ldr	r3, [r3, #0]
 80019c0:	685a      	ldr	r2, [r3, #4]
 80019c2:	68fb      	ldr	r3, [r7, #12]
 80019c4:	681b      	ldr	r3, [r3, #0]
 80019c6:	f042 0210 	orr.w	r2, r2, #16
 80019ca:	605a      	str	r2, [r3, #4]
 80019cc:	68fb      	ldr	r3, [r7, #12]
 80019ce:	681b      	ldr	r3, [r3, #0]
 80019d0:	68da      	ldr	r2, [r3, #12]
 80019d2:	68fb      	ldr	r3, [r7, #12]
 80019d4:	681b      	ldr	r3, [r3, #0]
 80019d6:	f042 0201 	orr.w	r2, r2, #1
 80019da:	60da      	str	r2, [r3, #12]
 80019dc:	68fb      	ldr	r3, [r7, #12]
 80019de:	6d58      	ldr	r0, [r3, #84]	; 0x54
 80019e0:	68fb      	ldr	r3, [r7, #12]
 80019e2:	681b      	ldr	r3, [r3, #0]
 80019e4:	3340      	adds	r3, #64	; 0x40
 80019e6:	4619      	mov	r1, r3
 80019e8:	68ba      	ldr	r2, [r7, #8]
 80019ea:	687b      	ldr	r3, [r7, #4]
 80019ec:	f001 f85c 	bl	8002aa8 <HAL_DMA_Start_IT>
 80019f0:	4603      	mov	r3, r0
 80019f2:	75fb      	strb	r3, [r7, #23]
 80019f4:	68fb      	ldr	r3, [r7, #12]
 80019f6:	681b      	ldr	r3, [r3, #0]
 80019f8:	4618      	mov	r0, r3
 80019fa:	f7ff fd5a 	bl	80014b2 <LL_ADC_REG_StartConversion>
 80019fe:	e00d      	b.n	8001a1c <HAL_ADC_Start_DMA+0x170>
 8001a00:	68fb      	ldr	r3, [r7, #12]
 8001a02:	2200      	movs	r2, #0
 8001a04:	f883 2058 	strb.w	r2, [r3, #88]	; 0x58
 8001a08:	e008      	b.n	8001a1c <HAL_ADC_Start_DMA+0x170>
 8001a0a:	2301      	movs	r3, #1
 8001a0c:	75fb      	strb	r3, [r7, #23]
 8001a0e:	68fb      	ldr	r3, [r7, #12]
 8001a10:	2200      	movs	r2, #0
 8001a12:	f883 2058 	strb.w	r2, [r3, #88]	; 0x58
 8001a16:	e001      	b.n	8001a1c <HAL_ADC_Start_DMA+0x170>
 8001a18:	2302      	movs	r3, #2
 8001a1a:	75fb      	strb	r3, [r7, #23]
 8001a1c:	7dfb      	ldrb	r3, [r7, #23]
 8001a1e:	4618      	mov	r0, r3
 8001a20:	3718      	adds	r7, #24
 8001a22:	46bd      	mov	sp, r7
 8001a24:	bd80      	pop	{r7, pc}
 8001a26:	bf00      	nop
 8001a28:	50000100 	.word	0x50000100
 8001a2c:	50000300 	.word	0x50000300
 8001a30:	50000700 	.word	0x50000700
 8001a34:	50000500 	.word	0x50000500
 8001a38:	50000400 	.word	0x50000400
 8001a3c:	080023b5 	.word	0x080023b5
 8001a40:	0800248d 	.word	0x0800248d
 8001a44:	080024a9 	.word	0x080024a9

08001a48 <HAL_ADC_ConvHalfCpltCallback>:
 8001a48:	b480      	push	{r7}
 8001a4a:	b083      	sub	sp, #12
 8001a4c:	af00      	add	r7, sp, #0
 8001a4e:	6078      	str	r0, [r7, #4]
 8001a50:	bf00      	nop
 8001a52:	370c      	adds	r7, #12
 8001a54:	46bd      	mov	sp, r7
 8001a56:	f85d 7b04 	ldr.w	r7, [sp], #4
 8001a5a:	4770      	bx	lr

08001a5c <HAL_ADC_ErrorCallback>:
 8001a5c:	b480      	push	{r7}
 8001a5e:	b083      	sub	sp, #12
 8001a60:	af00      	add	r7, sp, #0
 8001a62:	6078      	str	r0, [r7, #4]
 8001a64:	bf00      	nop
 8001a66:	370c      	adds	r7, #12
 8001a68:	46bd      	mov	sp, r7
 8001a6a:	f85d 7b04 	ldr.w	r7, [sp], #4
 8001a6e:	4770      	bx	lr

08001a70 <HAL_ADC_ConfigChannel>:
 8001a70:	b580      	push	{r7, lr}
 8001a72:	b0b6      	sub	sp, #216	; 0xd8
 8001a74:	af00      	add	r7, sp, #0
 8001a76:	6078      	str	r0, [r7, #4]
 8001a78:	6039      	str	r1, [r7, #0]
 8001a7a:	2300      	movs	r3, #0
 8001a7c:	f887 30d7 	strb.w	r3, [r7, #215]	; 0xd7
 8001a80:	2300      	movs	r3, #0
 8001a82:	60fb      	str	r3, [r7, #12]
 8001a84:	687b      	ldr	r3, [r7, #4]
 8001a86:	f893 3058 	ldrb.w	r3, [r3, #88]	; 0x58
 8001a8a:	2b01      	cmp	r3, #1
 8001a8c:	d102      	bne.n	8001a94 <HAL_ADC_ConfigChannel+0x24>
 8001a8e:	2302      	movs	r3, #2
 8001a90:	f000 bc13 	b.w	80022ba <HAL_ADC_ConfigChannel+0x84a>
 8001a94:	687b      	ldr	r3, [r7, #4]
 8001a96:	2201      	movs	r2, #1
 8001a98:	f883 2058 	strb.w	r2, [r3, #88]	; 0x58
 8001a9c:	687b      	ldr	r3, [r7, #4]
 8001a9e:	681b      	ldr	r3, [r3, #0]
 8001aa0:	4618      	mov	r0, r3
 8001aa2:	f7ff fd1a 	bl	80014da <LL_ADC_REG_IsConversionOngoing>
 8001aa6:	4603      	mov	r3, r0
 8001aa8:	2b00      	cmp	r3, #0
 8001aaa:	f040 83f3 	bne.w	8002294 <HAL_ADC_ConfigChannel+0x824>
 8001aae:	687b      	ldr	r3, [r7, #4]
 8001ab0:	6818      	ldr	r0, [r3, #0]
 8001ab2:	683b      	ldr	r3, [r7, #0]
 8001ab4:	6859      	ldr	r1, [r3, #4]
 8001ab6:	683b      	ldr	r3, [r7, #0]
 8001ab8:	681b      	ldr	r3, [r3, #0]
 8001aba:	461a      	mov	r2, r3
 8001abc:	f7ff fbfb 	bl	80012b6 <LL_ADC_REG_SetSequencerRanks>
 8001ac0:	687b      	ldr	r3, [r7, #4]
 8001ac2:	681b      	ldr	r3, [r3, #0]
 8001ac4:	4618      	mov	r0, r3
 8001ac6:	f7ff fd08 	bl	80014da <LL_ADC_REG_IsConversionOngoing>
 8001aca:	f8c7 00d0 	str.w	r0, [r7, #208]	; 0xd0
 8001ace:	687b      	ldr	r3, [r7, #4]
 8001ad0:	681b      	ldr	r3, [r3, #0]
 8001ad2:	4618      	mov	r0, r3
 8001ad4:	f7ff fd14 	bl	8001500 <LL_ADC_INJ_IsConversionOngoing>
 8001ad8:	f8c7 00cc 	str.w	r0, [r7, #204]	; 0xcc
 8001adc:	f8d7 30d0 	ldr.w	r3, [r7, #208]	; 0xd0
 8001ae0:	2b00      	cmp	r3, #0
 8001ae2:	f040 81d9 	bne.w	8001e98 <HAL_ADC_ConfigChannel+0x428>
 8001ae6:	f8d7 30cc 	ldr.w	r3, [r7, #204]	; 0xcc
 8001aea:	2b00      	cmp	r3, #0
 8001aec:	f040 81d4 	bne.w	8001e98 <HAL_ADC_ConfigChannel+0x428>
 8001af0:	683b      	ldr	r3, [r7, #0]
 8001af2:	689b      	ldr	r3, [r3, #8]
 8001af4:	f1b3 4f00 	cmp.w	r3, #2147483648	; 0x80000000
 8001af8:	d10f      	bne.n	8001b1a <HAL_ADC_ConfigChannel+0xaa>
 8001afa:	687b      	ldr	r3, [r7, #4]
 8001afc:	6818      	ldr	r0, [r3, #0]
 8001afe:	683b      	ldr	r3, [r7, #0]
 8001b00:	681b      	ldr	r3, [r3, #0]
 8001b02:	2200      	movs	r2, #0
 8001b04:	4619      	mov	r1, r3
 8001b06:	f7ff fc02 	bl	800130e <LL_ADC_SetChannelSamplingTime>
 8001b0a:	687b      	ldr	r3, [r7, #4]
 8001b0c:	681b      	ldr	r3, [r3, #0]
 8001b0e:	f04f 4100 	mov.w	r1, #2147483648	; 0x80000000
 8001b12:	4618      	mov	r0, r3
 8001b14:	f7ff fba9 	bl	800126a <LL_ADC_SetSamplingTimeCommonConfig>
 8001b18:	e00e      	b.n	8001b38 <HAL_ADC_ConfigChannel+0xc8>
 8001b1a:	687b      	ldr	r3, [r7, #4]
 8001b1c:	6818      	ldr	r0, [r3, #0]
 8001b1e:	683b      	ldr	r3, [r7, #0]
 8001b20:	6819      	ldr	r1, [r3, #0]
 8001b22:	683b      	ldr	r3, [r7, #0]
 8001b24:	689b      	ldr	r3, [r3, #8]
 8001b26:	461a      	mov	r2, r3
 8001b28:	f7ff fbf1 	bl	800130e <LL_ADC_SetChannelSamplingTime>
 8001b2c:	687b      	ldr	r3, [r7, #4]
 8001b2e:	681b      	ldr	r3, [r3, #0]
 8001b30:	2100      	movs	r1, #0
 8001b32:	4618      	mov	r0, r3
 8001b34:	f7ff fb99 	bl	800126a <LL_ADC_SetSamplingTimeCommonConfig>
 8001b38:	683b      	ldr	r3, [r7, #0]
 8001b3a:	695a      	ldr	r2, [r3, #20]
 8001b3c:	687b      	ldr	r3, [r7, #4]
 8001b3e:	681b      	ldr	r3, [r3, #0]
 8001b40:	68db      	ldr	r3, [r3, #12]
 8001b42:	08db      	lsrs	r3, r3, #3
 8001b44:	f003 0303 	and.w	r3, r3, #3
 8001b48:	005b      	lsls	r3, r3, #1
 8001b4a:	fa02 f303 	lsl.w	r3, r2, r3
 8001b4e:	f8c7 30c8 	str.w	r3, [r7, #200]	; 0xc8
 8001b52:	683b      	ldr	r3, [r7, #0]
 8001b54:	691b      	ldr	r3, [r3, #16]
 8001b56:	2b04      	cmp	r3, #4
 8001b58:	d022      	beq.n	8001ba0 <HAL_ADC_ConfigChannel+0x130>
 8001b5a:	687b      	ldr	r3, [r7, #4]
 8001b5c:	6818      	ldr	r0, [r3, #0]
 8001b5e:	683b      	ldr	r3, [r7, #0]
 8001b60:	6919      	ldr	r1, [r3, #16]
 8001b62:	683b      	ldr	r3, [r7, #0]
 8001b64:	681a      	ldr	r2, [r3, #0]
 8001b66:	f8d7 30c8 	ldr.w	r3, [r7, #200]	; 0xc8
 8001b6a:	f7ff faf3 	bl	8001154 <LL_ADC_SetOffset>
 8001b6e:	687b      	ldr	r3, [r7, #4]
 8001b70:	6818      	ldr	r0, [r3, #0]
 8001b72:	683b      	ldr	r3, [r7, #0]
 8001b74:	6919      	ldr	r1, [r3, #16]
 8001b76:	683b      	ldr	r3, [r7, #0]
 8001b78:	699b      	ldr	r3, [r3, #24]
 8001b7a:	461a      	mov	r2, r3
 8001b7c:	f7ff fb3f 	bl	80011fe <LL_ADC_SetOffsetSign>
 8001b80:	687b      	ldr	r3, [r7, #4]
 8001b82:	6818      	ldr	r0, [r3, #0]
 8001b84:	683b      	ldr	r3, [r7, #0]
 8001b86:	6919      	ldr	r1, [r3, #16]
 8001b88:	683b      	ldr	r3, [r7, #0]
 8001b8a:	7f1b      	ldrb	r3, [r3, #28]
 8001b8c:	2b01      	cmp	r3, #1
 8001b8e:	d102      	bne.n	8001b96 <HAL_ADC_ConfigChannel+0x126>
 8001b90:	f04f 7300 	mov.w	r3, #33554432	; 0x2000000
 8001b94:	e000      	b.n	8001b98 <HAL_ADC_ConfigChannel+0x128>
 8001b96:	2300      	movs	r3, #0
 8001b98:	461a      	mov	r2, r3
 8001b9a:	f7ff fb4b 	bl	8001234 <LL_ADC_SetOffsetSaturation>
 8001b9e:	e17b      	b.n	8001e98 <HAL_ADC_ConfigChannel+0x428>
 8001ba0:	687b      	ldr	r3, [r7, #4]
 8001ba2:	681b      	ldr	r3, [r3, #0]
 8001ba4:	2100      	movs	r1, #0
 8001ba6:	4618      	mov	r0, r3
 8001ba8:	f7ff faf8 	bl	800119c <LL_ADC_GetOffsetChannel>
 8001bac:	4603      	mov	r3, r0
 8001bae:	f3c3 0312 	ubfx	r3, r3, #0, #19
 8001bb2:	2b00      	cmp	r3, #0
 8001bb4:	d10a      	bne.n	8001bcc <HAL_ADC_ConfigChannel+0x15c>
 8001bb6:	687b      	ldr	r3, [r7, #4]
 8001bb8:	681b      	ldr	r3, [r3, #0]
 8001bba:	2100      	movs	r1, #0
 8001bbc:	4618      	mov	r0, r3
 8001bbe:	f7ff faed 	bl	800119c <LL_ADC_GetOffsetChannel>
 8001bc2:	4603      	mov	r3, r0
 8001bc4:	0e9b      	lsrs	r3, r3, #26
 8001bc6:	f003 021f 	and.w	r2, r3, #31
 8001bca:	e01e      	b.n	8001c0a <HAL_ADC_ConfigChannel+0x19a>
 8001bcc:	687b      	ldr	r3, [r7, #4]
 8001bce:	681b      	ldr	r3, [r3, #0]
 8001bd0:	2100      	movs	r1, #0
 8001bd2:	4618      	mov	r0, r3
 8001bd4:	f7ff fae2 	bl	800119c <LL_ADC_GetOffsetChannel>
 8001bd8:	4603      	mov	r3, r0
 8001bda:	f8c7 30bc 	str.w	r3, [r7, #188]	; 0xbc
 8001bde:	f8d7 30bc 	ldr.w	r3, [r7, #188]	; 0xbc
 8001be2:	fa93 f3a3 	rbit	r3, r3
 8001be6:	f8c7 30b8 	str.w	r3, [r7, #184]	; 0xb8
 8001bea:	f8d7 30b8 	ldr.w	r3, [r7, #184]	; 0xb8
 8001bee:	f8c7 30c0 	str.w	r3, [r7, #192]	; 0xc0
 8001bf2:	f8d7 30c0 	ldr.w	r3, [r7, #192]	; 0xc0
 8001bf6:	2b00      	cmp	r3, #0
 8001bf8:	d101      	bne.n	8001bfe <HAL_ADC_ConfigChannel+0x18e>
 8001bfa:	2320      	movs	r3, #32
 8001bfc:	e004      	b.n	8001c08 <HAL_ADC_ConfigChannel+0x198>
 8001bfe:	f8d7 30c0 	ldr.w	r3, [r7, #192]	; 0xc0
 8001c02:	fab3 f383 	clz	r3, r3
 8001c06:	b2db      	uxtb	r3, r3
 8001c08:	461a      	mov	r2, r3
 8001c0a:	683b      	ldr	r3, [r7, #0]
 8001c0c:	681b      	ldr	r3, [r3, #0]
 8001c0e:	f3c3 0312 	ubfx	r3, r3, #0, #19
 8001c12:	2b00      	cmp	r3, #0
 8001c14:	d105      	bne.n	8001c22 <HAL_ADC_ConfigChannel+0x1b2>
 8001c16:	683b      	ldr	r3, [r7, #0]
 8001c18:	681b      	ldr	r3, [r3, #0]
 8001c1a:	0e9b      	lsrs	r3, r3, #26
 8001c1c:	f003 031f 	and.w	r3, r3, #31
 8001c20:	e018      	b.n	8001c54 <HAL_ADC_ConfigChannel+0x1e4>
 8001c22:	683b      	ldr	r3, [r7, #0]
 8001c24:	681b      	ldr	r3, [r3, #0]
 8001c26:	f8c7 30b0 	str.w	r3, [r7, #176]	; 0xb0
 8001c2a:	f8d7 30b0 	ldr.w	r3, [r7, #176]	; 0xb0
 8001c2e:	fa93 f3a3 	rbit	r3, r3
 8001c32:	f8c7 30ac 	str.w	r3, [r7, #172]	; 0xac
 8001c36:	f8d7 30ac 	ldr.w	r3, [r7, #172]	; 0xac
 8001c3a:	f8c7 30b4 	str.w	r3, [r7, #180]	; 0xb4
 8001c3e:	f8d7 30b4 	ldr.w	r3, [r7, #180]	; 0xb4
 8001c42:	2b00      	cmp	r3, #0
 8001c44:	d101      	bne.n	8001c4a <HAL_ADC_ConfigChannel+0x1da>
 8001c46:	2320      	movs	r3, #32
 8001c48:	e004      	b.n	8001c54 <HAL_ADC_ConfigChannel+0x1e4>
 8001c4a:	f8d7 30b4 	ldr.w	r3, [r7, #180]	; 0xb4
 8001c4e:	fab3 f383 	clz	r3, r3
 8001c52:	b2db      	uxtb	r3, r3
 8001c54:	429a      	cmp	r2, r3
 8001c56:	d106      	bne.n	8001c66 <HAL_ADC_ConfigChannel+0x1f6>
 8001c58:	687b      	ldr	r3, [r7, #4]
 8001c5a:	681b      	ldr	r3, [r3, #0]
 8001c5c:	2200      	movs	r2, #0
 8001c5e:	2100      	movs	r1, #0
 8001c60:	4618      	mov	r0, r3
 8001c62:	f7ff fab1 	bl	80011c8 <LL_ADC_SetOffsetState>
 8001c66:	687b      	ldr	r3, [r7, #4]
 8001c68:	681b      	ldr	r3, [r3, #0]
 8001c6a:	2101      	movs	r1, #1
 8001c6c:	4618      	mov	r0, r3
 8001c6e:	f7ff fa95 	bl	800119c <LL_ADC_GetOffsetChannel>
 8001c72:	4603      	mov	r3, r0
 8001c74:	f3c3 0312 	ubfx	r3, r3, #0, #19
 8001c78:	2b00      	cmp	r3, #0
 8001c7a:	d10a      	bne.n	8001c92 <HAL_ADC_ConfigChannel+0x222>
 8001c7c:	687b      	ldr	r3, [r7, #4]
 8001c7e:	681b      	ldr	r3, [r3, #0]
 8001c80:	2101      	movs	r1, #1
 8001c82:	4618      	mov	r0, r3
 8001c84:	f7ff fa8a 	bl	800119c <LL_ADC_GetOffsetChannel>
 8001c88:	4603      	mov	r3, r0
 8001c8a:	0e9b      	lsrs	r3, r3, #26
 8001c8c:	f003 021f 	and.w	r2, r3, #31
 8001c90:	e01e      	b.n	8001cd0 <HAL_ADC_ConfigChannel+0x260>
 8001c92:	687b      	ldr	r3, [r7, #4]
 8001c94:	681b      	ldr	r3, [r3, #0]
 8001c96:	2101      	movs	r1, #1
 8001c98:	4618      	mov	r0, r3
 8001c9a:	f7ff fa7f 	bl	800119c <LL_ADC_GetOffsetChannel>
 8001c9e:	4603      	mov	r3, r0
 8001ca0:	f8c7 30a4 	str.w	r3, [r7, #164]	; 0xa4
 8001ca4:	f8d7 30a4 	ldr.w	r3, [r7, #164]	; 0xa4
 8001ca8:	fa93 f3a3 	rbit	r3, r3
 8001cac:	f8c7 30a0 	str.w	r3, [r7, #160]	; 0xa0
 8001cb0:	f8d7 30a0 	ldr.w	r3, [r7, #160]	; 0xa0
 8001cb4:	f8c7 30a8 	str.w	r3, [r7, #168]	; 0xa8
 8001cb8:	f8d7 30a8 	ldr.w	r3, [r7, #168]	; 0xa8
 8001cbc:	2b00      	cmp	r3, #0
 8001cbe:	d101      	bne.n	8001cc4 <HAL_ADC_ConfigChannel+0x254>
 8001cc0:	2320      	movs	r3, #32
 8001cc2:	e004      	b.n	8001cce <HAL_ADC_ConfigChannel+0x25e>
 8001cc4:	f8d7 30a8 	ldr.w	r3, [r7, #168]	; 0xa8
 8001cc8:	fab3 f383 	clz	r3, r3
 8001ccc:	b2db      	uxtb	r3, r3
 8001cce:	461a      	mov	r2, r3
 8001cd0:	683b      	ldr	r3, [r7, #0]
 8001cd2:	681b      	ldr	r3, [r3, #0]
 8001cd4:	f3c3 0312 	ubfx	r3, r3, #0, #19
 8001cd8:	2b00      	cmp	r3, #0
 8001cda:	d105      	bne.n	8001ce8 <HAL_ADC_ConfigChannel+0x278>
 8001cdc:	683b      	ldr	r3, [r7, #0]
 8001cde:	681b      	ldr	r3, [r3, #0]
 8001ce0:	0e9b      	lsrs	r3, r3, #26
 8001ce2:	f003 031f 	and.w	r3, r3, #31
 8001ce6:	e018      	b.n	8001d1a <HAL_ADC_ConfigChannel+0x2aa>
 8001ce8:	683b      	ldr	r3, [r7, #0]
 8001cea:	681b      	ldr	r3, [r3, #0]
 8001cec:	f8c7 3098 	str.w	r3, [r7, #152]	; 0x98
 8001cf0:	f8d7 3098 	ldr.w	r3, [r7, #152]	; 0x98
 8001cf4:	fa93 f3a3 	rbit	r3, r3
 8001cf8:	f8c7 3094 	str.w	r3, [r7, #148]	; 0x94
 8001cfc:	f8d7 3094 	ldr.w	r3, [r7, #148]	; 0x94
 8001d00:	f8c7 309c 	str.w	r3, [r7, #156]	; 0x9c
 8001d04:	f8d7 309c 	ldr.w	r3, [r7, #156]	; 0x9c
 8001d08:	2b00      	cmp	r3, #0
 8001d0a:	d101      	bne.n	8001d10 <HAL_ADC_ConfigChannel+0x2a0>
 8001d0c:	2320      	movs	r3, #32
 8001d0e:	e004      	b.n	8001d1a <HAL_ADC_ConfigChannel+0x2aa>
 8001d10:	f8d7 309c 	ldr.w	r3, [r7, #156]	; 0x9c
 8001d14:	fab3 f383 	clz	r3, r3
 8001d18:	b2db      	uxtb	r3, r3
 8001d1a:	429a      	cmp	r2, r3
 8001d1c:	d106      	bne.n	8001d2c <HAL_ADC_ConfigChannel+0x2bc>
 8001d1e:	687b      	ldr	r3, [r7, #4]
 8001d20:	681b      	ldr	r3, [r3, #0]
 8001d22:	2200      	movs	r2, #0
 8001d24:	2101      	movs	r1, #1
 8001d26:	4618      	mov	r0, r3
 8001d28:	f7ff fa4e 	bl	80011c8 <LL_ADC_SetOffsetState>
 8001d2c:	687b      	ldr	r3, [r7, #4]
 8001d2e:	681b      	ldr	r3, [r3, #0]
 8001d30:	2102      	movs	r1, #2
 8001d32:	4618      	mov	r0, r3
 8001d34:	f7ff fa32 	bl	800119c <LL_ADC_GetOffsetChannel>
 8001d38:	4603      	mov	r3, r0
 8001d3a:	f3c3 0312 	ubfx	r3, r3, #0, #19
 8001d3e:	2b00      	cmp	r3, #0
 8001d40:	d10a      	bne.n	8001d58 <HAL_ADC_ConfigChannel+0x2e8>
 8001d42:	687b      	ldr	r3, [r7, #4]
 8001d44:	681b      	ldr	r3, [r3, #0]
 8001d46:	2102      	movs	r1, #2
 8001d48:	4618      	mov	r0, r3
 8001d4a:	f7ff fa27 	bl	800119c <LL_ADC_GetOffsetChannel>
 8001d4e:	4603      	mov	r3, r0
 8001d50:	0e9b      	lsrs	r3, r3, #26
 8001d52:	f003 021f 	and.w	r2, r3, #31
 8001d56:	e01e      	b.n	8001d96 <HAL_ADC_ConfigChannel+0x326>
 8001d58:	687b      	ldr	r3, [r7, #4]
 8001d5a:	681b      	ldr	r3, [r3, #0]
 8001d5c:	2102      	movs	r1, #2
 8001d5e:	4618      	mov	r0, r3
 8001d60:	f7ff fa1c 	bl	800119c <LL_ADC_GetOffsetChannel>
 8001d64:	4603      	mov	r3, r0
 8001d66:	f8c7 308c 	str.w	r3, [r7, #140]	; 0x8c
 8001d6a:	f8d7 308c 	ldr.w	r3, [r7, #140]	; 0x8c
 8001d6e:	fa93 f3a3 	rbit	r3, r3
 8001d72:	f8c7 3088 	str.w	r3, [r7, #136]	; 0x88
 8001d76:	f8d7 3088 	ldr.w	r3, [r7, #136]	; 0x88
 8001d7a:	f8c7 3090 	str.w	r3, [r7, #144]	; 0x90
 8001d7e:	f8d7 3090 	ldr.w	r3, [r7, #144]	; 0x90
 8001d82:	2b00      	cmp	r3, #0
 8001d84:	d101      	bne.n	8001d8a <HAL_ADC_ConfigChannel+0x31a>
 8001d86:	2320      	movs	r3, #32
 8001d88:	e004      	b.n	8001d94 <HAL_ADC_ConfigChannel+0x324>
 8001d8a:	f8d7 3090 	ldr.w	r3, [r7, #144]	; 0x90
 8001d8e:	fab3 f383 	clz	r3, r3
 8001d92:	b2db      	uxtb	r3, r3
 8001d94:	461a      	mov	r2, r3
 8001d96:	683b      	ldr	r3, [r7, #0]
 8001d98:	681b      	ldr	r3, [r3, #0]
 8001d9a:	f3c3 0312 	ubfx	r3, r3, #0, #19
 8001d9e:	2b00      	cmp	r3, #0
 8001da0:	d105      	bne.n	8001dae <HAL_ADC_ConfigChannel+0x33e>
 8001da2:	683b      	ldr	r3, [r7, #0]
 8001da4:	681b      	ldr	r3, [r3, #0]
 8001da6:	0e9b      	lsrs	r3, r3, #26
 8001da8:	f003 031f 	and.w	r3, r3, #31
 8001dac:	e016      	b.n	8001ddc <HAL_ADC_ConfigChannel+0x36c>
 8001dae:	683b      	ldr	r3, [r7, #0]
 8001db0:	681b      	ldr	r3, [r3, #0]
 8001db2:	f8c7 3080 	str.w	r3, [r7, #128]	; 0x80
 8001db6:	f8d7 3080 	ldr.w	r3, [r7, #128]	; 0x80
 8001dba:	fa93 f3a3 	rbit	r3, r3
 8001dbe:	67fb      	str	r3, [r7, #124]	; 0x7c
 8001dc0:	6ffb      	ldr	r3, [r7, #124]	; 0x7c
 8001dc2:	f8c7 3084 	str.w	r3, [r7, #132]	; 0x84
 8001dc6:	f8d7 3084 	ldr.w	r3, [r7, #132]	; 0x84
 8001dca:	2b00      	cmp	r3, #0
 8001dcc:	d101      	bne.n	8001dd2 <HAL_ADC_ConfigChannel+0x362>
 8001dce:	2320      	movs	r3, #32
 8001dd0:	e004      	b.n	8001ddc <HAL_ADC_ConfigChannel+0x36c>
 8001dd2:	f8d7 3084 	ldr.w	r3, [r7, #132]	; 0x84
 8001dd6:	fab3 f383 	clz	r3, r3
 8001dda:	b2db      	uxtb	r3, r3
 8001ddc:	429a      	cmp	r2, r3
 8001dde:	d106      	bne.n	8001dee <HAL_ADC_ConfigChannel+0x37e>
 8001de0:	687b      	ldr	r3, [r7, #4]
 8001de2:	681b      	ldr	r3, [r3, #0]
 8001de4:	2200      	movs	r2, #0
 8001de6:	2102      	movs	r1, #2
 8001de8:	4618      	mov	r0, r3
 8001dea:	f7ff f9ed 	bl	80011c8 <LL_ADC_SetOffsetState>
 8001dee:	687b      	ldr	r3, [r7, #4]
 8001df0:	681b      	ldr	r3, [r3, #0]
 8001df2:	2103      	movs	r1, #3
 8001df4:	4618      	mov	r0, r3
 8001df6:	f7ff f9d1 	bl	800119c <LL_ADC_GetOffsetChannel>
 8001dfa:	4603      	mov	r3, r0
 8001dfc:	f3c3 0312 	ubfx	r3, r3, #0, #19
 8001e00:	2b00      	cmp	r3, #0
 8001e02:	d10a      	bne.n	8001e1a <HAL_ADC_ConfigChannel+0x3aa>
 8001e04:	687b      	ldr	r3, [r7, #4]
 8001e06:	681b      	ldr	r3, [r3, #0]
 8001e08:	2103      	movs	r1, #3
 8001e0a:	4618      	mov	r0, r3
 8001e0c:	f7ff f9c6 	bl	800119c <LL_ADC_GetOffsetChannel>
 8001e10:	4603      	mov	r3, r0
 8001e12:	0e9b      	lsrs	r3, r3, #26
 8001e14:	f003 021f 	and.w	r2, r3, #31
 8001e18:	e017      	b.n	8001e4a <HAL_ADC_ConfigChannel+0x3da>
 8001e1a:	687b      	ldr	r3, [r7, #4]
 8001e1c:	681b      	ldr	r3, [r3, #0]
 8001e1e:	2103      	movs	r1, #3
 8001e20:	4618      	mov	r0, r3
 8001e22:	f7ff f9bb 	bl	800119c <LL_ADC_GetOffsetChannel>
 8001e26:	4603      	mov	r3, r0
 8001e28:	677b      	str	r3, [r7, #116]	; 0x74
 8001e2a:	6f7b      	ldr	r3, [r7, #116]	; 0x74
 8001e2c:	fa93 f3a3 	rbit	r3, r3
 8001e30:	673b      	str	r3, [r7, #112]	; 0x70
 8001e32:	6f3b      	ldr	r3, [r7, #112]	; 0x70
 8001e34:	67bb      	str	r3, [r7, #120]	; 0x78
 8001e36:	6fbb      	ldr	r3, [r7, #120]	; 0x78
 8001e38:	2b00      	cmp	r3, #0
 8001e3a:	d101      	bne.n	8001e40 <HAL_ADC_ConfigChannel+0x3d0>
 8001e3c:	2320      	movs	r3, #32
 8001e3e:	e003      	b.n	8001e48 <HAL_ADC_ConfigChannel+0x3d8>
 8001e40:	6fbb      	ldr	r3, [r7, #120]	; 0x78
 8001e42:	fab3 f383 	clz	r3, r3
 8001e46:	b2db      	uxtb	r3, r3
 8001e48:	461a      	mov	r2, r3
 8001e4a:	683b      	ldr	r3, [r7, #0]
 8001e4c:	681b      	ldr	r3, [r3, #0]
 8001e4e:	f3c3 0312 	ubfx	r3, r3, #0, #19
 8001e52:	2b00      	cmp	r3, #0
 8001e54:	d105      	bne.n	8001e62 <HAL_ADC_ConfigChannel+0x3f2>
 8001e56:	683b      	ldr	r3, [r7, #0]
 8001e58:	681b      	ldr	r3, [r3, #0]
 8001e5a:	0e9b      	lsrs	r3, r3, #26
 8001e5c:	f003 031f 	and.w	r3, r3, #31
 8001e60:	e011      	b.n	8001e86 <HAL_ADC_ConfigChannel+0x416>
 8001e62:	683b      	ldr	r3, [r7, #0]
 8001e64:	681b      	ldr	r3, [r3, #0]
 8001e66:	66bb      	str	r3, [r7, #104]	; 0x68
 8001e68:	6ebb      	ldr	r3, [r7, #104]	; 0x68
 8001e6a:	fa93 f3a3 	rbit	r3, r3
 8001e6e:	667b      	str	r3, [r7, #100]	; 0x64
 8001e70:	6e7b      	ldr	r3, [r7, #100]	; 0x64
 8001e72:	66fb      	str	r3, [r7, #108]	; 0x6c
 8001e74:	6efb      	ldr	r3, [r7, #108]	; 0x6c
 8001e76:	2b00      	cmp	r3, #0
 8001e78:	d101      	bne.n	8001e7e <HAL_ADC_ConfigChannel+0x40e>
 8001e7a:	2320      	movs	r3, #32
 8001e7c:	e003      	b.n	8001e86 <HAL_ADC_ConfigChannel+0x416>
 8001e7e:	6efb      	ldr	r3, [r7, #108]	; 0x6c
 8001e80:	fab3 f383 	clz	r3, r3
 8001e84:	b2db      	uxtb	r3, r3
 8001e86:	429a      	cmp	r2, r3
 8001e88:	d106      	bne.n	8001e98 <HAL_ADC_ConfigChannel+0x428>
 8001e8a:	687b      	ldr	r3, [r7, #4]
 8001e8c:	681b      	ldr	r3, [r3, #0]
 8001e8e:	2200      	movs	r2, #0
 8001e90:	2103      	movs	r1, #3
 8001e92:	4618      	mov	r0, r3
 8001e94:	f7ff f998 	bl	80011c8 <LL_ADC_SetOffsetState>
 8001e98:	687b      	ldr	r3, [r7, #4]
 8001e9a:	681b      	ldr	r3, [r3, #0]
 8001e9c:	4618      	mov	r0, r3
 8001e9e:	f7ff faf5 	bl	800148c <LL_ADC_IsEnabled>
 8001ea2:	4603      	mov	r3, r0
 8001ea4:	2b00      	cmp	r3, #0
 8001ea6:	f040 813d 	bne.w	8002124 <HAL_ADC_ConfigChannel+0x6b4>
 8001eaa:	687b      	ldr	r3, [r7, #4]
 8001eac:	6818      	ldr	r0, [r3, #0]
 8001eae:	683b      	ldr	r3, [r7, #0]
 8001eb0:	6819      	ldr	r1, [r3, #0]
 8001eb2:	683b      	ldr	r3, [r7, #0]
 8001eb4:	68db      	ldr	r3, [r3, #12]
 8001eb6:	461a      	mov	r2, r3
 8001eb8:	f7ff fa54 	bl	8001364 <LL_ADC_SetChannelSingleDiff>
 8001ebc:	683b      	ldr	r3, [r7, #0]
 8001ebe:	68db      	ldr	r3, [r3, #12]
 8001ec0:	4aa2      	ldr	r2, [pc, #648]	; (800214c <HAL_ADC_ConfigChannel+0x6dc>)
 8001ec2:	4293      	cmp	r3, r2
 8001ec4:	f040 812e 	bne.w	8002124 <HAL_ADC_ConfigChannel+0x6b4>
 8001ec8:	687b      	ldr	r3, [r7, #4]
 8001eca:	6818      	ldr	r0, [r3, #0]
 8001ecc:	683b      	ldr	r3, [r7, #0]
 8001ece:	681b      	ldr	r3, [r3, #0]
 8001ed0:	f3c3 0312 	ubfx	r3, r3, #0, #19
 8001ed4:	2b00      	cmp	r3, #0
 8001ed6:	d10b      	bne.n	8001ef0 <HAL_ADC_ConfigChannel+0x480>
 8001ed8:	683b      	ldr	r3, [r7, #0]
 8001eda:	681b      	ldr	r3, [r3, #0]
 8001edc:	0e9b      	lsrs	r3, r3, #26
 8001ede:	3301      	adds	r3, #1
 8001ee0:	f003 031f 	and.w	r3, r3, #31
 8001ee4:	2b09      	cmp	r3, #9
 8001ee6:	bf94      	ite	ls
 8001ee8:	2301      	movls	r3, #1
 8001eea:	2300      	movhi	r3, #0
 8001eec:	b2db      	uxtb	r3, r3
 8001eee:	e019      	b.n	8001f24 <HAL_ADC_ConfigChannel+0x4b4>
 8001ef0:	683b      	ldr	r3, [r7, #0]
 8001ef2:	681b      	ldr	r3, [r3, #0]
 8001ef4:	65fb      	str	r3, [r7, #92]	; 0x5c
 8001ef6:	6dfb      	ldr	r3, [r7, #92]	; 0x5c
 8001ef8:	fa93 f3a3 	rbit	r3, r3
 8001efc:	65bb      	str	r3, [r7, #88]	; 0x58
 8001efe:	6dbb      	ldr	r3, [r7, #88]	; 0x58
 8001f00:	663b      	str	r3, [r7, #96]	; 0x60
 8001f02:	6e3b      	ldr	r3, [r7, #96]	; 0x60
 8001f04:	2b00      	cmp	r3, #0
 8001f06:	d101      	bne.n	8001f0c <HAL_ADC_ConfigChannel+0x49c>
 8001f08:	2320      	movs	r3, #32
 8001f0a:	e003      	b.n	8001f14 <HAL_ADC_ConfigChannel+0x4a4>
 8001f0c:	6e3b      	ldr	r3, [r7, #96]	; 0x60
 8001f0e:	fab3 f383 	clz	r3, r3
 8001f12:	b2db      	uxtb	r3, r3
 8001f14:	3301      	adds	r3, #1
 8001f16:	f003 031f 	and.w	r3, r3, #31
 8001f1a:	2b09      	cmp	r3, #9
 8001f1c:	bf94      	ite	ls
 8001f1e:	2301      	movls	r3, #1
 8001f20:	2300      	movhi	r3, #0
 8001f22:	b2db      	uxtb	r3, r3
 8001f24:	2b00      	cmp	r3, #0
 8001f26:	d079      	beq.n	800201c <HAL_ADC_ConfigChannel+0x5ac>
 8001f28:	683b      	ldr	r3, [r7, #0]
 8001f2a:	681b      	ldr	r3, [r3, #0]
 8001f2c:	f3c3 0312 	ubfx	r3, r3, #0, #19
 8001f30:	2b00      	cmp	r3, #0
 8001f32:	d107      	bne.n	8001f44 <HAL_ADC_ConfigChannel+0x4d4>
 8001f34:	683b      	ldr	r3, [r7, #0]
 8001f36:	681b      	ldr	r3, [r3, #0]
 8001f38:	0e9b      	lsrs	r3, r3, #26
 8001f3a:	3301      	adds	r3, #1
 8001f3c:	069b      	lsls	r3, r3, #26
 8001f3e:	f003 42f8 	and.w	r2, r3, #2080374784	; 0x7c000000
 8001f42:	e015      	b.n	8001f70 <HAL_ADC_ConfigChannel+0x500>
 8001f44:	683b      	ldr	r3, [r7, #0]
 8001f46:	681b      	ldr	r3, [r3, #0]
 8001f48:	653b      	str	r3, [r7, #80]	; 0x50
 8001f4a:	6d3b      	ldr	r3, [r7, #80]	; 0x50
 8001f4c:	fa93 f3a3 	rbit	r3, r3
 8001f50:	64fb      	str	r3, [r7, #76]	; 0x4c
 8001f52:	6cfb      	ldr	r3, [r7, #76]	; 0x4c
 8001f54:	657b      	str	r3, [r7, #84]	; 0x54
 8001f56:	6d7b      	ldr	r3, [r7, #84]	; 0x54
 8001f58:	2b00      	cmp	r3, #0
 8001f5a:	d101      	bne.n	8001f60 <HAL_ADC_ConfigChannel+0x4f0>
 8001f5c:	2320      	movs	r3, #32
 8001f5e:	e003      	b.n	8001f68 <HAL_ADC_ConfigChannel+0x4f8>
 8001f60:	6d7b      	ldr	r3, [r7, #84]	; 0x54
 8001f62:	fab3 f383 	clz	r3, r3
 8001f66:	b2db      	uxtb	r3, r3
 8001f68:	3301      	adds	r3, #1
 8001f6a:	069b      	lsls	r3, r3, #26
 8001f6c:	f003 42f8 	and.w	r2, r3, #2080374784	; 0x7c000000
 8001f70:	683b      	ldr	r3, [r7, #0]
 8001f72:	681b      	ldr	r3, [r3, #0]
 8001f74:	f3c3 0312 	ubfx	r3, r3, #0, #19
 8001f78:	2b00      	cmp	r3, #0
 8001f7a:	d109      	bne.n	8001f90 <HAL_ADC_ConfigChannel+0x520>
 8001f7c:	683b      	ldr	r3, [r7, #0]
 8001f7e:	681b      	ldr	r3, [r3, #0]
 8001f80:	0e9b      	lsrs	r3, r3, #26
 8001f82:	3301      	adds	r3, #1
 8001f84:	f003 031f 	and.w	r3, r3, #31
 8001f88:	2101      	movs	r1, #1
 8001f8a:	fa01 f303 	lsl.w	r3, r1, r3
 8001f8e:	e017      	b.n	8001fc0 <HAL_ADC_ConfigChannel+0x550>
 8001f90:	683b      	ldr	r3, [r7, #0]
 8001f92:	681b      	ldr	r3, [r3, #0]
 8001f94:	647b      	str	r3, [r7, #68]	; 0x44
 8001f96:	6c7b      	ldr	r3, [r7, #68]	; 0x44
 8001f98:	fa93 f3a3 	rbit	r3, r3
 8001f9c:	643b      	str	r3, [r7, #64]	; 0x40
 8001f9e:	6c3b      	ldr	r3, [r7, #64]	; 0x40
 8001fa0:	64bb      	str	r3, [r7, #72]	; 0x48
 8001fa2:	6cbb      	ldr	r3, [r7, #72]	; 0x48
 8001fa4:	2b00      	cmp	r3, #0
 8001fa6:	d101      	bne.n	8001fac <HAL_ADC_ConfigChannel+0x53c>
 8001fa8:	2320      	movs	r3, #32
 8001faa:	e003      	b.n	8001fb4 <HAL_ADC_ConfigChannel+0x544>
 8001fac:	6cbb      	ldr	r3, [r7, #72]	; 0x48
 8001fae:	fab3 f383 	clz	r3, r3
 8001fb2:	b2db      	uxtb	r3, r3
 8001fb4:	3301      	adds	r3, #1
 8001fb6:	f003 031f 	and.w	r3, r3, #31
 8001fba:	2101      	movs	r1, #1
 8001fbc:	fa01 f303 	lsl.w	r3, r1, r3
 8001fc0:	ea42 0103 	orr.w	r1, r2, r3
 8001fc4:	683b      	ldr	r3, [r7, #0]
 8001fc6:	681b      	ldr	r3, [r3, #0]
 8001fc8:	f3c3 0312 	ubfx	r3, r3, #0, #19
 8001fcc:	2b00      	cmp	r3, #0
 8001fce:	d10a      	bne.n	8001fe6 <HAL_ADC_ConfigChannel+0x576>
 8001fd0:	683b      	ldr	r3, [r7, #0]
 8001fd2:	681b      	ldr	r3, [r3, #0]
 8001fd4:	0e9b      	lsrs	r3, r3, #26
 8001fd6:	3301      	adds	r3, #1
 8001fd8:	f003 021f 	and.w	r2, r3, #31
 8001fdc:	4613      	mov	r3, r2
 8001fde:	005b      	lsls	r3, r3, #1
 8001fe0:	4413      	add	r3, r2
 8001fe2:	051b      	lsls	r3, r3, #20
 8001fe4:	e018      	b.n	8002018 <HAL_ADC_ConfigChannel+0x5a8>
 8001fe6:	683b      	ldr	r3, [r7, #0]
 8001fe8:	681b      	ldr	r3, [r3, #0]
 8001fea:	63bb      	str	r3, [r7, #56]	; 0x38
 8001fec:	6bbb      	ldr	r3, [r7, #56]	; 0x38
 8001fee:	fa93 f3a3 	rbit	r3, r3
 8001ff2:	637b      	str	r3, [r7, #52]	; 0x34
 8001ff4:	6b7b      	ldr	r3, [r7, #52]	; 0x34
 8001ff6:	63fb      	str	r3, [r7, #60]	; 0x3c
 8001ff8:	6bfb      	ldr	r3, [r7, #60]	; 0x3c
 8001ffa:	2b00      	cmp	r3, #0
 8001ffc:	d101      	bne.n	8002002 <HAL_ADC_ConfigChannel+0x592>
 8001ffe:	2320      	movs	r3, #32
 8002000:	e003      	b.n	800200a <HAL_ADC_ConfigChannel+0x59a>
 8002002:	6bfb      	ldr	r3, [r7, #60]	; 0x3c
 8002004:	fab3 f383 	clz	r3, r3
 8002008:	b2db      	uxtb	r3, r3
 800200a:	3301      	adds	r3, #1
 800200c:	f003 021f 	and.w	r2, r3, #31
 8002010:	4613      	mov	r3, r2
 8002012:	005b      	lsls	r3, r3, #1
 8002014:	4413      	add	r3, r2
 8002016:	051b      	lsls	r3, r3, #20
 8002018:	430b      	orrs	r3, r1
 800201a:	e07e      	b.n	800211a <HAL_ADC_ConfigChannel+0x6aa>
 800201c:	683b      	ldr	r3, [r7, #0]
 800201e:	681b      	ldr	r3, [r3, #0]
 8002020:	f3c3 0312 	ubfx	r3, r3, #0, #19
 8002024:	2b00      	cmp	r3, #0
 8002026:	d107      	bne.n	8002038 <HAL_ADC_ConfigChannel+0x5c8>
 8002028:	683b      	ldr	r3, [r7, #0]
 800202a:	681b      	ldr	r3, [r3, #0]
 800202c:	0e9b      	lsrs	r3, r3, #26
 800202e:	3301      	adds	r3, #1
 8002030:	069b      	lsls	r3, r3, #26
 8002032:	f003 42f8 	and.w	r2, r3, #2080374784	; 0x7c000000
 8002036:	e015      	b.n	8002064 <HAL_ADC_ConfigChannel+0x5f4>
 8002038:	683b      	ldr	r3, [r7, #0]
 800203a:	681b      	ldr	r3, [r3, #0]
 800203c:	62fb      	str	r3, [r7, #44]	; 0x2c
 800203e:	6afb      	ldr	r3, [r7, #44]	; 0x2c
 8002040:	fa93 f3a3 	rbit	r3, r3
 8002044:	62bb      	str	r3, [r7, #40]	; 0x28
 8002046:	6abb      	ldr	r3, [r7, #40]	; 0x28
 8002048:	633b      	str	r3, [r7, #48]	; 0x30
 800204a:	6b3b      	ldr	r3, [r7, #48]	; 0x30
 800204c:	2b00      	cmp	r3, #0
 800204e:	d101      	bne.n	8002054 <HAL_ADC_ConfigChannel+0x5e4>
 8002050:	2320      	movs	r3, #32
 8002052:	e003      	b.n	800205c <HAL_ADC_ConfigChannel+0x5ec>
 8002054:	6b3b      	ldr	r3, [r7, #48]	; 0x30
 8002056:	fab3 f383 	clz	r3, r3
 800205a:	b2db      	uxtb	r3, r3
 800205c:	3301      	adds	r3, #1
 800205e:	069b      	lsls	r3, r3, #26
 8002060:	f003 42f8 	and.w	r2, r3, #2080374784	; 0x7c000000
 8002064:	683b      	ldr	r3, [r7, #0]
 8002066:	681b      	ldr	r3, [r3, #0]
 8002068:	f3c3 0312 	ubfx	r3, r3, #0, #19
 800206c:	2b00      	cmp	r3, #0
 800206e:	d109      	bne.n	8002084 <HAL_ADC_ConfigChannel+0x614>
 8002070:	683b      	ldr	r3, [r7, #0]
 8002072:	681b      	ldr	r3, [r3, #0]
 8002074:	0e9b      	lsrs	r3, r3, #26
 8002076:	3301      	adds	r3, #1
 8002078:	f003 031f 	and.w	r3, r3, #31
 800207c:	2101      	movs	r1, #1
 800207e:	fa01 f303 	lsl.w	r3, r1, r3
 8002082:	e017      	b.n	80020b4 <HAL_ADC_ConfigChannel+0x644>
 8002084:	683b      	ldr	r3, [r7, #0]
 8002086:	681b      	ldr	r3, [r3, #0]
 8002088:	623b      	str	r3, [r7, #32]
 800208a:	6a3b      	ldr	r3, [r7, #32]
 800208c:	fa93 f3a3 	rbit	r3, r3
 8002090:	61fb      	str	r3, [r7, #28]
 8002092:	69fb      	ldr	r3, [r7, #28]
 8002094:	627b      	str	r3, [r7, #36]	; 0x24
 8002096:	6a7b      	ldr	r3, [r7, #36]	; 0x24
 8002098:	2b00      	cmp	r3, #0
 800209a:	d101      	bne.n	80020a0 <HAL_ADC_ConfigChannel+0x630>
 800209c:	2320      	movs	r3, #32
 800209e:	e003      	b.n	80020a8 <HAL_ADC_ConfigChannel+0x638>
 80020a0:	6a7b      	ldr	r3, [r7, #36]	; 0x24
 80020a2:	fab3 f383 	clz	r3, r3
 80020a6:	b2db      	uxtb	r3, r3
 80020a8:	3301      	adds	r3, #1
 80020aa:	f003 031f 	and.w	r3, r3, #31
 80020ae:	2101      	movs	r1, #1
 80020b0:	fa01 f303 	lsl.w	r3, r1, r3
 80020b4:	ea42 0103 	orr.w	r1, r2, r3
 80020b8:	683b      	ldr	r3, [r7, #0]
 80020ba:	681b      	ldr	r3, [r3, #0]
 80020bc:	f3c3 0312 	ubfx	r3, r3, #0, #19
 80020c0:	2b00      	cmp	r3, #0
 80020c2:	d10d      	bne.n	80020e0 <HAL_ADC_ConfigChannel+0x670>
 80020c4:	683b      	ldr	r3, [r7, #0]
 80020c6:	681b      	ldr	r3, [r3, #0]
 80020c8:	0e9b      	lsrs	r3, r3, #26
 80020ca:	3301      	adds	r3, #1
 80020cc:	f003 021f 	and.w	r2, r3, #31
 80020d0:	4613      	mov	r3, r2
 80020d2:	005b      	lsls	r3, r3, #1
 80020d4:	4413      	add	r3, r2
 80020d6:	3b1e      	subs	r3, #30
 80020d8:	051b      	lsls	r3, r3, #20
 80020da:	f043 7300 	orr.w	r3, r3, #33554432	; 0x2000000
 80020de:	e01b      	b.n	8002118 <HAL_ADC_ConfigChannel+0x6a8>
 80020e0:	683b      	ldr	r3, [r7, #0]
 80020e2:	681b      	ldr	r3, [r3, #0]
 80020e4:	617b      	str	r3, [r7, #20]
 80020e6:	697b      	ldr	r3, [r7, #20]
 80020e8:	fa93 f3a3 	rbit	r3, r3
 80020ec:	613b      	str	r3, [r7, #16]
 80020ee:	693b      	ldr	r3, [r7, #16]
 80020f0:	61bb      	str	r3, [r7, #24]
 80020f2:	69bb      	ldr	r3, [r7, #24]
 80020f4:	2b00      	cmp	r3, #0
 80020f6:	d101      	bne.n	80020fc <HAL_ADC_ConfigChannel+0x68c>
 80020f8:	2320      	movs	r3, #32
 80020fa:	e003      	b.n	8002104 <HAL_ADC_ConfigChannel+0x694>
 80020fc:	69bb      	ldr	r3, [r7, #24]
 80020fe:	fab3 f383 	clz	r3, r3
 8002102:	b2db      	uxtb	r3, r3
 8002104:	3301      	adds	r3, #1
 8002106:	f003 021f 	and.w	r2, r3, #31
 800210a:	4613      	mov	r3, r2
 800210c:	005b      	lsls	r3, r3, #1
 800210e:	4413      	add	r3, r2
 8002110:	3b1e      	subs	r3, #30
 8002112:	051b      	lsls	r3, r3, #20
 8002114:	f043 7300 	orr.w	r3, r3, #33554432	; 0x2000000
 8002118:	430b      	orrs	r3, r1
 800211a:	683a      	ldr	r2, [r7, #0]
 800211c:	6892      	ldr	r2, [r2, #8]
 800211e:	4619      	mov	r1, r3
 8002120:	f7ff f8f5 	bl	800130e <LL_ADC_SetChannelSamplingTime>
 8002124:	683b      	ldr	r3, [r7, #0]
 8002126:	681a      	ldr	r2, [r3, #0]
 8002128:	4b09      	ldr	r3, [pc, #36]	; (8002150 <HAL_ADC_ConfigChannel+0x6e0>)
 800212a:	4013      	ands	r3, r2
 800212c:	2b00      	cmp	r3, #0
 800212e:	f000 80be 	beq.w	80022ae <HAL_ADC_ConfigChannel+0x83e>
 8002132:	687b      	ldr	r3, [r7, #4]
 8002134:	681b      	ldr	r3, [r3, #0]
 8002136:	f1b3 4fa0 	cmp.w	r3, #1342177280	; 0x50000000
 800213a:	d004      	beq.n	8002146 <HAL_ADC_ConfigChannel+0x6d6>
 800213c:	687b      	ldr	r3, [r7, #4]
 800213e:	681b      	ldr	r3, [r3, #0]
 8002140:	4a04      	ldr	r2, [pc, #16]	; (8002154 <HAL_ADC_ConfigChannel+0x6e4>)
 8002142:	4293      	cmp	r3, r2
 8002144:	d10a      	bne.n	800215c <HAL_ADC_ConfigChannel+0x6ec>
 8002146:	4b04      	ldr	r3, [pc, #16]	; (8002158 <HAL_ADC_ConfigChannel+0x6e8>)
 8002148:	e009      	b.n	800215e <HAL_ADC_ConfigChannel+0x6ee>
 800214a:	bf00      	nop
 800214c:	407f0000 	.word	0x407f0000
 8002150:	80080000 	.word	0x80080000
 8002154:	50000100 	.word	0x50000100
 8002158:	50000300 	.word	0x50000300
 800215c:	4b59      	ldr	r3, [pc, #356]	; (80022c4 <HAL_ADC_ConfigChannel+0x854>)
 800215e:	4618      	mov	r0, r3
 8002160:	f7fe ffea 	bl	8001138 <LL_ADC_GetCommonPathInternalCh>
 8002164:	f8c7 00c4 	str.w	r0, [r7, #196]	; 0xc4
 8002168:	683b      	ldr	r3, [r7, #0]
 800216a:	681b      	ldr	r3, [r3, #0]
 800216c:	4a56      	ldr	r2, [pc, #344]	; (80022c8 <HAL_ADC_ConfigChannel+0x858>)
 800216e:	4293      	cmp	r3, r2
 8002170:	d004      	beq.n	800217c <HAL_ADC_ConfigChannel+0x70c>
 8002172:	683b      	ldr	r3, [r7, #0]
 8002174:	681b      	ldr	r3, [r3, #0]
 8002176:	4a55      	ldr	r2, [pc, #340]	; (80022cc <HAL_ADC_ConfigChannel+0x85c>)
 8002178:	4293      	cmp	r3, r2
 800217a:	d13a      	bne.n	80021f2 <HAL_ADC_ConfigChannel+0x782>
 800217c:	f8d7 30c4 	ldr.w	r3, [r7, #196]	; 0xc4
 8002180:	f403 0300 	and.w	r3, r3, #8388608	; 0x800000
 8002184:	2b00      	cmp	r3, #0
 8002186:	d134      	bne.n	80021f2 <HAL_ADC_ConfigChannel+0x782>
 8002188:	687b      	ldr	r3, [r7, #4]
 800218a:	681b      	ldr	r3, [r3, #0]
 800218c:	f1b3 4fa0 	cmp.w	r3, #1342177280	; 0x50000000
 8002190:	d005      	beq.n	800219e <HAL_ADC_ConfigChannel+0x72e>
 8002192:	687b      	ldr	r3, [r7, #4]
 8002194:	681b      	ldr	r3, [r3, #0]
 8002196:	4a4e      	ldr	r2, [pc, #312]	; (80022d0 <HAL_ADC_ConfigChannel+0x860>)
 8002198:	4293      	cmp	r3, r2
 800219a:	f040 8085 	bne.w	80022a8 <HAL_ADC_ConfigChannel+0x838>
 800219e:	687b      	ldr	r3, [r7, #4]
 80021a0:	681b      	ldr	r3, [r3, #0]
 80021a2:	f1b3 4fa0 	cmp.w	r3, #1342177280	; 0x50000000
 80021a6:	d004      	beq.n	80021b2 <HAL_ADC_ConfigChannel+0x742>
 80021a8:	687b      	ldr	r3, [r7, #4]
 80021aa:	681b      	ldr	r3, [r3, #0]
 80021ac:	4a49      	ldr	r2, [pc, #292]	; (80022d4 <HAL_ADC_ConfigChannel+0x864>)
 80021ae:	4293      	cmp	r3, r2
 80021b0:	d101      	bne.n	80021b6 <HAL_ADC_ConfigChannel+0x746>
 80021b2:	4a49      	ldr	r2, [pc, #292]	; (80022d8 <HAL_ADC_ConfigChannel+0x868>)
 80021b4:	e000      	b.n	80021b8 <HAL_ADC_ConfigChannel+0x748>
 80021b6:	4a43      	ldr	r2, [pc, #268]	; (80022c4 <HAL_ADC_ConfigChannel+0x854>)
 80021b8:	f8d7 30c4 	ldr.w	r3, [r7, #196]	; 0xc4
 80021bc:	f443 0300 	orr.w	r3, r3, #8388608	; 0x800000
 80021c0:	4619      	mov	r1, r3
 80021c2:	4610      	mov	r0, r2
 80021c4:	f7fe ffa5 	bl	8001112 <LL_ADC_SetCommonPathInternalCh>
 80021c8:	4b44      	ldr	r3, [pc, #272]	; (80022dc <HAL_ADC_ConfigChannel+0x86c>)
 80021ca:	681b      	ldr	r3, [r3, #0]
 80021cc:	099b      	lsrs	r3, r3, #6
 80021ce:	4a44      	ldr	r2, [pc, #272]	; (80022e0 <HAL_ADC_ConfigChannel+0x870>)
 80021d0:	fba2 2303 	umull	r2, r3, r2, r3
 80021d4:	099b      	lsrs	r3, r3, #6
 80021d6:	1c5a      	adds	r2, r3, #1
 80021d8:	4613      	mov	r3, r2
 80021da:	005b      	lsls	r3, r3, #1
 80021dc:	4413      	add	r3, r2
 80021de:	009b      	lsls	r3, r3, #2
 80021e0:	60fb      	str	r3, [r7, #12]
 80021e2:	e002      	b.n	80021ea <HAL_ADC_ConfigChannel+0x77a>
 80021e4:	68fb      	ldr	r3, [r7, #12]
 80021e6:	3b01      	subs	r3, #1
 80021e8:	60fb      	str	r3, [r7, #12]
 80021ea:	68fb      	ldr	r3, [r7, #12]
 80021ec:	2b00      	cmp	r3, #0
 80021ee:	d1f9      	bne.n	80021e4 <HAL_ADC_ConfigChannel+0x774>
 80021f0:	e05a      	b.n	80022a8 <HAL_ADC_ConfigChannel+0x838>
 80021f2:	683b      	ldr	r3, [r7, #0]
 80021f4:	681b      	ldr	r3, [r3, #0]
 80021f6:	4a3b      	ldr	r2, [pc, #236]	; (80022e4 <HAL_ADC_ConfigChannel+0x874>)
 80021f8:	4293      	cmp	r3, r2
 80021fa:	d125      	bne.n	8002248 <HAL_ADC_ConfigChannel+0x7d8>
 80021fc:	f8d7 30c4 	ldr.w	r3, [r7, #196]	; 0xc4
 8002200:	f003 7380 	and.w	r3, r3, #16777216	; 0x1000000
 8002204:	2b00      	cmp	r3, #0
 8002206:	d11f      	bne.n	8002248 <HAL_ADC_ConfigChannel+0x7d8>
 8002208:	687b      	ldr	r3, [r7, #4]
 800220a:	681b      	ldr	r3, [r3, #0]
 800220c:	4a31      	ldr	r2, [pc, #196]	; (80022d4 <HAL_ADC_ConfigChannel+0x864>)
 800220e:	4293      	cmp	r3, r2
 8002210:	d104      	bne.n	800221c <HAL_ADC_ConfigChannel+0x7ac>
 8002212:	687b      	ldr	r3, [r7, #4]
 8002214:	681b      	ldr	r3, [r3, #0]
 8002216:	4a34      	ldr	r2, [pc, #208]	; (80022e8 <HAL_ADC_ConfigChannel+0x878>)
 8002218:	4293      	cmp	r3, r2
 800221a:	d047      	beq.n	80022ac <HAL_ADC_ConfigChannel+0x83c>
 800221c:	687b      	ldr	r3, [r7, #4]
 800221e:	681b      	ldr	r3, [r3, #0]
 8002220:	f1b3 4fa0 	cmp.w	r3, #1342177280	; 0x50000000
 8002224:	d004      	beq.n	8002230 <HAL_ADC_ConfigChannel+0x7c0>
 8002226:	687b      	ldr	r3, [r7, #4]
 8002228:	681b      	ldr	r3, [r3, #0]
 800222a:	4a2a      	ldr	r2, [pc, #168]	; (80022d4 <HAL_ADC_ConfigChannel+0x864>)
 800222c:	4293      	cmp	r3, r2
 800222e:	d101      	bne.n	8002234 <HAL_ADC_ConfigChannel+0x7c4>
 8002230:	4a29      	ldr	r2, [pc, #164]	; (80022d8 <HAL_ADC_ConfigChannel+0x868>)
 8002232:	e000      	b.n	8002236 <HAL_ADC_ConfigChannel+0x7c6>
 8002234:	4a23      	ldr	r2, [pc, #140]	; (80022c4 <HAL_ADC_ConfigChannel+0x854>)
 8002236:	f8d7 30c4 	ldr.w	r3, [r7, #196]	; 0xc4
 800223a:	f043 7380 	orr.w	r3, r3, #16777216	; 0x1000000
 800223e:	4619      	mov	r1, r3
 8002240:	4610      	mov	r0, r2
 8002242:	f7fe ff66 	bl	8001112 <LL_ADC_SetCommonPathInternalCh>
 8002246:	e031      	b.n	80022ac <HAL_ADC_ConfigChannel+0x83c>
 8002248:	683b      	ldr	r3, [r7, #0]
 800224a:	681b      	ldr	r3, [r3, #0]
 800224c:	4a27      	ldr	r2, [pc, #156]	; (80022ec <HAL_ADC_ConfigChannel+0x87c>)
 800224e:	4293      	cmp	r3, r2
 8002250:	d12d      	bne.n	80022ae <HAL_ADC_ConfigChannel+0x83e>
 8002252:	f8d7 30c4 	ldr.w	r3, [r7, #196]	; 0xc4
 8002256:	f403 0380 	and.w	r3, r3, #4194304	; 0x400000
 800225a:	2b00      	cmp	r3, #0
 800225c:	d127      	bne.n	80022ae <HAL_ADC_ConfigChannel+0x83e>
 800225e:	687b      	ldr	r3, [r7, #4]
 8002260:	681b      	ldr	r3, [r3, #0]
 8002262:	4a1c      	ldr	r2, [pc, #112]	; (80022d4 <HAL_ADC_ConfigChannel+0x864>)
 8002264:	4293      	cmp	r3, r2
 8002266:	d022      	beq.n	80022ae <HAL_ADC_ConfigChannel+0x83e>
 8002268:	687b      	ldr	r3, [r7, #4]
 800226a:	681b      	ldr	r3, [r3, #0]
 800226c:	f1b3 4fa0 	cmp.w	r3, #1342177280	; 0x50000000
 8002270:	d004      	beq.n	800227c <HAL_ADC_ConfigChannel+0x80c>
 8002272:	687b      	ldr	r3, [r7, #4]
 8002274:	681b      	ldr	r3, [r3, #0]
 8002276:	4a17      	ldr	r2, [pc, #92]	; (80022d4 <HAL_ADC_ConfigChannel+0x864>)
 8002278:	4293      	cmp	r3, r2
 800227a:	d101      	bne.n	8002280 <HAL_ADC_ConfigChannel+0x810>
 800227c:	4a16      	ldr	r2, [pc, #88]	; (80022d8 <HAL_ADC_ConfigChannel+0x868>)
 800227e:	e000      	b.n	8002282 <HAL_ADC_ConfigChannel+0x812>
 8002280:	4a10      	ldr	r2, [pc, #64]	; (80022c4 <HAL_ADC_ConfigChannel+0x854>)
 8002282:	f8d7 30c4 	ldr.w	r3, [r7, #196]	; 0xc4
 8002286:	f443 0380 	orr.w	r3, r3, #4194304	; 0x400000
 800228a:	4619      	mov	r1, r3
 800228c:	4610      	mov	r0, r2
 800228e:	f7fe ff40 	bl	8001112 <LL_ADC_SetCommonPathInternalCh>
 8002292:	e00c      	b.n	80022ae <HAL_ADC_ConfigChannel+0x83e>
 8002294:	687b      	ldr	r3, [r7, #4]
 8002296:	6ddb      	ldr	r3, [r3, #92]	; 0x5c
 8002298:	f043 0220 	orr.w	r2, r3, #32
 800229c:	687b      	ldr	r3, [r7, #4]
 800229e:	65da      	str	r2, [r3, #92]	; 0x5c
 80022a0:	2301      	movs	r3, #1
 80022a2:	f887 30d7 	strb.w	r3, [r7, #215]	; 0xd7
 80022a6:	e002      	b.n	80022ae <HAL_ADC_ConfigChannel+0x83e>
 80022a8:	bf00      	nop
 80022aa:	e000      	b.n	80022ae <HAL_ADC_ConfigChannel+0x83e>
 80022ac:	bf00      	nop
 80022ae:	687b      	ldr	r3, [r7, #4]
 80022b0:	2200      	movs	r2, #0
 80022b2:	f883 2058 	strb.w	r2, [r3, #88]	; 0x58
 80022b6:	f897 30d7 	ldrb.w	r3, [r7, #215]	; 0xd7
 80022ba:	4618      	mov	r0, r3
 80022bc:	37d8      	adds	r7, #216	; 0xd8
 80022be:	46bd      	mov	sp, r7
 80022c0:	bd80      	pop	{r7, pc}
 80022c2:	bf00      	nop
 80022c4:	50000700 	.word	0x50000700
 80022c8:	c3210000 	.word	0xc3210000
 80022cc:	90c00010 	.word	0x90c00010
 80022d0:	50000600 	.word	0x50000600
 80022d4:	50000100 	.word	0x50000100
 80022d8:	50000300 	.word	0x50000300
 80022dc:	2000000c 	.word	0x2000000c
 80022e0:	053e2d63 	.word	0x053e2d63
 80022e4:	c7520000 	.word	0xc7520000
 80022e8:	50000500 	.word	0x50000500
 80022ec:	cb840000 	.word	0xcb840000

080022f0 <ADC_Enable>:
 80022f0:	b580      	push	{r7, lr}
 80022f2:	b084      	sub	sp, #16
 80022f4:	af00      	add	r7, sp, #0
 80022f6:	6078      	str	r0, [r7, #4]
 80022f8:	687b      	ldr	r3, [r7, #4]
 80022fa:	681b      	ldr	r3, [r3, #0]
 80022fc:	4618      	mov	r0, r3
 80022fe:	f7ff f8c5 	bl	800148c <LL_ADC_IsEnabled>
 8002302:	4603      	mov	r3, r0
 8002304:	2b00      	cmp	r3, #0
 8002306:	d14d      	bne.n	80023a4 <ADC_Enable+0xb4>
 8002308:	687b      	ldr	r3, [r7, #4]
 800230a:	681b      	ldr	r3, [r3, #0]
 800230c:	689a      	ldr	r2, [r3, #8]
 800230e:	4b28      	ldr	r3, [pc, #160]	; (80023b0 <ADC_Enable+0xc0>)
 8002310:	4013      	ands	r3, r2
 8002312:	2b00      	cmp	r3, #0
 8002314:	d00d      	beq.n	8002332 <ADC_Enable+0x42>
 8002316:	687b      	ldr	r3, [r7, #4]
 8002318:	6ddb      	ldr	r3, [r3, #92]	; 0x5c
 800231a:	f043 0210 	orr.w	r2, r3, #16
 800231e:	687b      	ldr	r3, [r7, #4]
 8002320:	65da      	str	r2, [r3, #92]	; 0x5c
 8002322:	687b      	ldr	r3, [r7, #4]
 8002324:	6e1b      	ldr	r3, [r3, #96]	; 0x60
 8002326:	f043 0201 	orr.w	r2, r3, #1
 800232a:	687b      	ldr	r3, [r7, #4]
 800232c:	661a      	str	r2, [r3, #96]	; 0x60
 800232e:	2301      	movs	r3, #1
 8002330:	e039      	b.n	80023a6 <ADC_Enable+0xb6>
 8002332:	687b      	ldr	r3, [r7, #4]
 8002334:	681b      	ldr	r3, [r3, #0]
 8002336:	4618      	mov	r0, r3
 8002338:	f7ff f894 	bl	8001464 <LL_ADC_Enable>
 800233c:	f7fe fea8 	bl	8001090 <HAL_GetTick>
 8002340:	60f8      	str	r0, [r7, #12]
 8002342:	e028      	b.n	8002396 <ADC_Enable+0xa6>
 8002344:	687b      	ldr	r3, [r7, #4]
 8002346:	681b      	ldr	r3, [r3, #0]
 8002348:	4618      	mov	r0, r3
 800234a:	f7ff f89f 	bl	800148c <LL_ADC_IsEnabled>
 800234e:	4603      	mov	r3, r0
 8002350:	2b00      	cmp	r3, #0
 8002352:	d104      	bne.n	800235e <ADC_Enable+0x6e>
 8002354:	687b      	ldr	r3, [r7, #4]
 8002356:	681b      	ldr	r3, [r3, #0]
 8002358:	4618      	mov	r0, r3
 800235a:	f7ff f883 	bl	8001464 <LL_ADC_Enable>
 800235e:	f7fe fe97 	bl	8001090 <HAL_GetTick>
 8002362:	4602      	mov	r2, r0
 8002364:	68fb      	ldr	r3, [r7, #12]
 8002366:	1ad3      	subs	r3, r2, r3
 8002368:	2b02      	cmp	r3, #2
 800236a:	d914      	bls.n	8002396 <ADC_Enable+0xa6>
 800236c:	687b      	ldr	r3, [r7, #4]
 800236e:	681b      	ldr	r3, [r3, #0]
 8002370:	681b      	ldr	r3, [r3, #0]
 8002372:	f003 0301 	and.w	r3, r3, #1
 8002376:	2b01      	cmp	r3, #1
 8002378:	d00d      	beq.n	8002396 <ADC_Enable+0xa6>
 800237a:	687b      	ldr	r3, [r7, #4]
 800237c:	6ddb      	ldr	r3, [r3, #92]	; 0x5c
 800237e:	f043 0210 	orr.w	r2, r3, #16
 8002382:	687b      	ldr	r3, [r7, #4]
 8002384:	65da      	str	r2, [r3, #92]	; 0x5c
 8002386:	687b      	ldr	r3, [r7, #4]
 8002388:	6e1b      	ldr	r3, [r3, #96]	; 0x60
 800238a:	f043 0201 	orr.w	r2, r3, #1
 800238e:	687b      	ldr	r3, [r7, #4]
 8002390:	661a      	str	r2, [r3, #96]	; 0x60
 8002392:	2301      	movs	r3, #1
 8002394:	e007      	b.n	80023a6 <ADC_Enable+0xb6>
 8002396:	687b      	ldr	r3, [r7, #4]
 8002398:	681b      	ldr	r3, [r3, #0]
 800239a:	681b      	ldr	r3, [r3, #0]
 800239c:	f003 0301 	and.w	r3, r3, #1
 80023a0:	2b01      	cmp	r3, #1
 80023a2:	d1cf      	bne.n	8002344 <ADC_Enable+0x54>
 80023a4:	2300      	movs	r3, #0
 80023a6:	4618      	mov	r0, r3
 80023a8:	3710      	adds	r7, #16
 80023aa:	46bd      	mov	sp, r7
 80023ac:	bd80      	pop	{r7, pc}
 80023ae:	bf00      	nop
 80023b0:	8000003f 	.word	0x8000003f

080023b4 <ADC_DMAConvCplt>:
 80023b4:	b580      	push	{r7, lr}
 80023b6:	b084      	sub	sp, #16
 80023b8:	af00      	add	r7, sp, #0
 80023ba:	6078      	str	r0, [r7, #4]
 80023bc:	687b      	ldr	r3, [r7, #4]
 80023be:	6a9b      	ldr	r3, [r3, #40]	; 0x28
 80023c0:	60fb      	str	r3, [r7, #12]
 80023c2:	68fb      	ldr	r3, [r7, #12]
 80023c4:	6ddb      	ldr	r3, [r3, #92]	; 0x5c
 80023c6:	f003 0350 	and.w	r3, r3, #80	; 0x50
 80023ca:	2b00      	cmp	r3, #0
 80023cc:	d14b      	bne.n	8002466 <ADC_DMAConvCplt+0xb2>
 80023ce:	68fb      	ldr	r3, [r7, #12]
 80023d0:	6ddb      	ldr	r3, [r3, #92]	; 0x5c
 80023d2:	f443 7200 	orr.w	r2, r3, #512	; 0x200
 80023d6:	68fb      	ldr	r3, [r7, #12]
 80023d8:	65da      	str	r2, [r3, #92]	; 0x5c
 80023da:	68fb      	ldr	r3, [r7, #12]
 80023dc:	681b      	ldr	r3, [r3, #0]
 80023de:	681b      	ldr	r3, [r3, #0]
 80023e0:	f003 0308 	and.w	r3, r3, #8
 80023e4:	2b00      	cmp	r3, #0
 80023e6:	d021      	beq.n	800242c <ADC_DMAConvCplt+0x78>
 80023e8:	68fb      	ldr	r3, [r7, #12]
 80023ea:	681b      	ldr	r3, [r3, #0]
 80023ec:	4618      	mov	r0, r3
 80023ee:	f7fe ff4f 	bl	8001290 <LL_ADC_REG_IsTriggerSourceSWStart>
 80023f2:	4603      	mov	r3, r0
 80023f4:	2b00      	cmp	r3, #0
 80023f6:	d032      	beq.n	800245e <ADC_DMAConvCplt+0xaa>
 80023f8:	68fb      	ldr	r3, [r7, #12]
 80023fa:	681b      	ldr	r3, [r3, #0]
 80023fc:	68db      	ldr	r3, [r3, #12]
 80023fe:	f403 5300 	and.w	r3, r3, #8192	; 0x2000
 8002402:	2b00      	cmp	r3, #0
 8002404:	d12b      	bne.n	800245e <ADC_DMAConvCplt+0xaa>
 8002406:	68fb      	ldr	r3, [r7, #12]
 8002408:	6ddb      	ldr	r3, [r3, #92]	; 0x5c
 800240a:	f423 7280 	bic.w	r2, r3, #256	; 0x100
 800240e:	68fb      	ldr	r3, [r7, #12]
 8002410:	65da      	str	r2, [r3, #92]	; 0x5c
 8002412:	68fb      	ldr	r3, [r7, #12]
 8002414:	6ddb      	ldr	r3, [r3, #92]	; 0x5c
 8002416:	f403 5380 	and.w	r3, r3, #4096	; 0x1000
 800241a:	2b00      	cmp	r3, #0
 800241c:	d11f      	bne.n	800245e <ADC_DMAConvCplt+0xaa>
 800241e:	68fb      	ldr	r3, [r7, #12]
 8002420:	6ddb      	ldr	r3, [r3, #92]	; 0x5c
 8002422:	f043 0201 	orr.w	r2, r3, #1
 8002426:	68fb      	ldr	r3, [r7, #12]
 8002428:	65da      	str	r2, [r3, #92]	; 0x5c
 800242a:	e018      	b.n	800245e <ADC_DMAConvCplt+0xaa>
 800242c:	68fb      	ldr	r3, [r7, #12]
 800242e:	681b      	ldr	r3, [r3, #0]
 8002430:	68db      	ldr	r3, [r3, #12]
 8002432:	f003 0302 	and.w	r3, r3, #2
 8002436:	2b00      	cmp	r3, #0
 8002438:	d111      	bne.n	800245e <ADC_DMAConvCplt+0xaa>
 800243a:	68fb      	ldr	r3, [r7, #12]
 800243c:	6ddb      	ldr	r3, [r3, #92]	; 0x5c
 800243e:	f423 7280 	bic.w	r2, r3, #256	; 0x100
 8002442:	68fb      	ldr	r3, [r7, #12]
 8002444:	65da      	str	r2, [r3, #92]	; 0x5c
 8002446:	68fb      	ldr	r3, [r7, #12]
 8002448:	6ddb      	ldr	r3, [r3, #92]	; 0x5c
 800244a:	f403 5380 	and.w	r3, r3, #4096	; 0x1000
 800244e:	2b00      	cmp	r3, #0
 8002450:	d105      	bne.n	800245e <ADC_DMAConvCplt+0xaa>
 8002452:	68fb      	ldr	r3, [r7, #12]
 8002454:	6ddb      	ldr	r3, [r3, #92]	; 0x5c
 8002456:	f043 0201 	orr.w	r2, r3, #1
 800245a:	68fb      	ldr	r3, [r7, #12]
 800245c:	65da      	str	r2, [r3, #92]	; 0x5c
 800245e:	68f8      	ldr	r0, [r7, #12]
 8002460:	f7fe fae8 	bl	8000a34 <HAL_ADC_ConvCpltCallback>
 8002464:	e00e      	b.n	8002484 <ADC_DMAConvCplt+0xd0>
 8002466:	68fb      	ldr	r3, [r7, #12]
 8002468:	6ddb      	ldr	r3, [r3, #92]	; 0x5c
 800246a:	f003 0310 	and.w	r3, r3, #16
 800246e:	2b00      	cmp	r3, #0
 8002470:	d003      	beq.n	800247a <ADC_DMAConvCplt+0xc6>
 8002472:	68f8      	ldr	r0, [r7, #12]
 8002474:	f7ff faf2 	bl	8001a5c <HAL_ADC_ErrorCallback>
 8002478:	e004      	b.n	8002484 <ADC_DMAConvCplt+0xd0>
 800247a:	68fb      	ldr	r3, [r7, #12]
 800247c:	6d5b      	ldr	r3, [r3, #84]	; 0x54
 800247e:	6b5b      	ldr	r3, [r3, #52]	; 0x34
 8002480:	6878      	ldr	r0, [r7, #4]
 8002482:	4798      	blx	r3
 8002484:	bf00      	nop
 8002486:	3710      	adds	r7, #16
 8002488:	46bd      	mov	sp, r7
 800248a:	bd80      	pop	{r7, pc}

0800248c <ADC_DMAHalfConvCplt>:
 800248c:	b580      	push	{r7, lr}
 800248e:	b084      	sub	sp, #16
 8002490:	af00      	add	r7, sp, #0
 8002492:	6078      	str	r0, [r7, #4]
 8002494:	687b      	ldr	r3, [r7, #4]
 8002496:	6a9b      	ldr	r3, [r3, #40]	; 0x28
 8002498:	60fb      	str	r3, [r7, #12]
 800249a:	68f8      	ldr	r0, [r7, #12]
 800249c:	f7ff fad4 	bl	8001a48 <HAL_ADC_ConvHalfCpltCallback>
 80024a0:	bf00      	nop
 80024a2:	3710      	adds	r7, #16
 80024a4:	46bd      	mov	sp, r7
 80024a6:	bd80      	pop	{r7, pc}

080024a8 <ADC_DMAError>:
 80024a8:	b580      	push	{r7, lr}
 80024aa:	b084      	sub	sp, #16
 80024ac:	af00      	add	r7, sp, #0
 80024ae:	6078      	str	r0, [r7, #4]
 80024b0:	687b      	ldr	r3, [r7, #4]
 80024b2:	6a9b      	ldr	r3, [r3, #40]	; 0x28
 80024b4:	60fb      	str	r3, [r7, #12]
 80024b6:	68fb      	ldr	r3, [r7, #12]
 80024b8:	6ddb      	ldr	r3, [r3, #92]	; 0x5c
 80024ba:	f043 0240 	orr.w	r2, r3, #64	; 0x40
 80024be:	68fb      	ldr	r3, [r7, #12]
 80024c0:	65da      	str	r2, [r3, #92]	; 0x5c
 80024c2:	68fb      	ldr	r3, [r7, #12]
 80024c4:	6e1b      	ldr	r3, [r3, #96]	; 0x60
 80024c6:	f043 0204 	orr.w	r2, r3, #4
 80024ca:	68fb      	ldr	r3, [r7, #12]
 80024cc:	661a      	str	r2, [r3, #96]	; 0x60
 80024ce:	68f8      	ldr	r0, [r7, #12]
 80024d0:	f7ff fac4 	bl	8001a5c <HAL_ADC_ErrorCallback>
 80024d4:	bf00      	nop
 80024d6:	3710      	adds	r7, #16
 80024d8:	46bd      	mov	sp, r7
 80024da:	bd80      	pop	{r7, pc}

080024dc <LL_ADC_IsEnabled>:
 80024dc:	b480      	push	{r7}
 80024de:	b083      	sub	sp, #12
 80024e0:	af00      	add	r7, sp, #0
 80024e2:	6078      	str	r0, [r7, #4]
 80024e4:	687b      	ldr	r3, [r7, #4]
 80024e6:	689b      	ldr	r3, [r3, #8]
 80024e8:	f003 0301 	and.w	r3, r3, #1
 80024ec:	2b01      	cmp	r3, #1
 80024ee:	d101      	bne.n	80024f4 <LL_ADC_IsEnabled+0x18>
 80024f0:	2301      	movs	r3, #1
 80024f2:	e000      	b.n	80024f6 <LL_ADC_IsEnabled+0x1a>
 80024f4:	2300      	movs	r3, #0
 80024f6:	4618      	mov	r0, r3
 80024f8:	370c      	adds	r7, #12
 80024fa:	46bd      	mov	sp, r7
 80024fc:	f85d 7b04 	ldr.w	r7, [sp], #4
 8002500:	4770      	bx	lr

08002502 <LL_ADC_REG_IsConversionOngoing>:
 8002502:	b480      	push	{r7}
 8002504:	b083      	sub	sp, #12
 8002506:	af00      	add	r7, sp, #0
 8002508:	6078      	str	r0, [r7, #4]
 800250a:	687b      	ldr	r3, [r7, #4]
 800250c:	689b      	ldr	r3, [r3, #8]
 800250e:	f003 0304 	and.w	r3, r3, #4
 8002512:	2b04      	cmp	r3, #4
 8002514:	d101      	bne.n	800251a <LL_ADC_REG_IsConversionOngoing+0x18>
 8002516:	2301      	movs	r3, #1
 8002518:	e000      	b.n	800251c <LL_ADC_REG_IsConversionOngoing+0x1a>
 800251a:	2300      	movs	r3, #0
 800251c:	4618      	mov	r0, r3
 800251e:	370c      	adds	r7, #12
 8002520:	46bd      	mov	sp, r7
 8002522:	f85d 7b04 	ldr.w	r7, [sp], #4
 8002526:	4770      	bx	lr

08002528 <HAL_ADCEx_MultiModeConfigChannel>:
 8002528:	b590      	push	{r4, r7, lr}
 800252a:	b0a1      	sub	sp, #132	; 0x84
 800252c:	af00      	add	r7, sp, #0
 800252e:	6078      	str	r0, [r7, #4]
 8002530:	6039      	str	r1, [r7, #0]
 8002532:	2300      	movs	r3, #0
 8002534:	f887 307f 	strb.w	r3, [r7, #127]	; 0x7f
 8002538:	687b      	ldr	r3, [r7, #4]
 800253a:	f893 3058 	ldrb.w	r3, [r3, #88]	; 0x58
 800253e:	2b01      	cmp	r3, #1
 8002540:	d101      	bne.n	8002546 <HAL_ADCEx_MultiModeConfigChannel+0x1e>
 8002542:	2302      	movs	r3, #2
 8002544:	e0e7      	b.n	8002716 <HAL_ADCEx_MultiModeConfigChannel+0x1ee>
 8002546:	687b      	ldr	r3, [r7, #4]
 8002548:	2201      	movs	r2, #1
 800254a:	f883 2058 	strb.w	r2, [r3, #88]	; 0x58
 800254e:	2300      	movs	r3, #0
 8002550:	667b      	str	r3, [r7, #100]	; 0x64
 8002552:	2300      	movs	r3, #0
 8002554:	66bb      	str	r3, [r7, #104]	; 0x68
 8002556:	687b      	ldr	r3, [r7, #4]
 8002558:	681b      	ldr	r3, [r3, #0]
 800255a:	f1b3 4fa0 	cmp.w	r3, #1342177280	; 0x50000000
 800255e:	d102      	bne.n	8002566 <HAL_ADCEx_MultiModeConfigChannel+0x3e>
 8002560:	4b6f      	ldr	r3, [pc, #444]	; (8002720 <HAL_ADCEx_MultiModeConfigChannel+0x1f8>)
 8002562:	60bb      	str	r3, [r7, #8]
 8002564:	e009      	b.n	800257a <HAL_ADCEx_MultiModeConfigChannel+0x52>
 8002566:	687b      	ldr	r3, [r7, #4]
 8002568:	681b      	ldr	r3, [r3, #0]
 800256a:	4a6e      	ldr	r2, [pc, #440]	; (8002724 <HAL_ADCEx_MultiModeConfigChannel+0x1fc>)
 800256c:	4293      	cmp	r3, r2
 800256e:	d102      	bne.n	8002576 <HAL_ADCEx_MultiModeConfigChannel+0x4e>
 8002570:	4b6d      	ldr	r3, [pc, #436]	; (8002728 <HAL_ADCEx_MultiModeConfigChannel+0x200>)
 8002572:	60bb      	str	r3, [r7, #8]
 8002574:	e001      	b.n	800257a <HAL_ADCEx_MultiModeConfigChannel+0x52>
 8002576:	2300      	movs	r3, #0
 8002578:	60bb      	str	r3, [r7, #8]
 800257a:	68bb      	ldr	r3, [r7, #8]
 800257c:	2b00      	cmp	r3, #0
 800257e:	d10b      	bne.n	8002598 <HAL_ADCEx_MultiModeConfigChannel+0x70>
 8002580:	687b      	ldr	r3, [r7, #4]
 8002582:	6ddb      	ldr	r3, [r3, #92]	; 0x5c
 8002584:	f043 0220 	orr.w	r2, r3, #32
 8002588:	687b      	ldr	r3, [r7, #4]
 800258a:	65da      	str	r2, [r3, #92]	; 0x5c
 800258c:	687b      	ldr	r3, [r7, #4]
 800258e:	2200      	movs	r2, #0
 8002590:	f883 2058 	strb.w	r2, [r3, #88]	; 0x58
 8002594:	2301      	movs	r3, #1
 8002596:	e0be      	b.n	8002716 <HAL_ADCEx_MultiModeConfigChannel+0x1ee>
 8002598:	68bb      	ldr	r3, [r7, #8]
 800259a:	4618      	mov	r0, r3
 800259c:	f7ff ffb1 	bl	8002502 <LL_ADC_REG_IsConversionOngoing>
 80025a0:	67b8      	str	r0, [r7, #120]	; 0x78
 80025a2:	687b      	ldr	r3, [r7, #4]
 80025a4:	681b      	ldr	r3, [r3, #0]
 80025a6:	4618      	mov	r0, r3
 80025a8:	f7ff ffab 	bl	8002502 <LL_ADC_REG_IsConversionOngoing>
 80025ac:	4603      	mov	r3, r0
 80025ae:	2b00      	cmp	r3, #0
 80025b0:	f040 80a0 	bne.w	80026f4 <HAL_ADCEx_MultiModeConfigChannel+0x1cc>
 80025b4:	6fbb      	ldr	r3, [r7, #120]	; 0x78
 80025b6:	2b00      	cmp	r3, #0
 80025b8:	f040 809c 	bne.w	80026f4 <HAL_ADCEx_MultiModeConfigChannel+0x1cc>
 80025bc:	687b      	ldr	r3, [r7, #4]
 80025be:	681b      	ldr	r3, [r3, #0]
 80025c0:	f1b3 4fa0 	cmp.w	r3, #1342177280	; 0x50000000
 80025c4:	d004      	beq.n	80025d0 <HAL_ADCEx_MultiModeConfigChannel+0xa8>
 80025c6:	687b      	ldr	r3, [r7, #4]
 80025c8:	681b      	ldr	r3, [r3, #0]
 80025ca:	4a55      	ldr	r2, [pc, #340]	; (8002720 <HAL_ADCEx_MultiModeConfigChannel+0x1f8>)
 80025cc:	4293      	cmp	r3, r2
 80025ce:	d101      	bne.n	80025d4 <HAL_ADCEx_MultiModeConfigChannel+0xac>
 80025d0:	4b56      	ldr	r3, [pc, #344]	; (800272c <HAL_ADCEx_MultiModeConfigChannel+0x204>)
 80025d2:	e000      	b.n	80025d6 <HAL_ADCEx_MultiModeConfigChannel+0xae>
 80025d4:	4b56      	ldr	r3, [pc, #344]	; (8002730 <HAL_ADCEx_MultiModeConfigChannel+0x208>)
 80025d6:	677b      	str	r3, [r7, #116]	; 0x74
 80025d8:	683b      	ldr	r3, [r7, #0]
 80025da:	681b      	ldr	r3, [r3, #0]
 80025dc:	2b00      	cmp	r3, #0
 80025de:	d04b      	beq.n	8002678 <HAL_ADCEx_MultiModeConfigChannel+0x150>
 80025e0:	6f7b      	ldr	r3, [r7, #116]	; 0x74
 80025e2:	689b      	ldr	r3, [r3, #8]
 80025e4:	f423 4260 	bic.w	r2, r3, #57344	; 0xe000
 80025e8:	683b      	ldr	r3, [r7, #0]
 80025ea:	6859      	ldr	r1, [r3, #4]
 80025ec:	687b      	ldr	r3, [r7, #4]
 80025ee:	f893 3038 	ldrb.w	r3, [r3, #56]	; 0x38
 80025f2:	035b      	lsls	r3, r3, #13
 80025f4:	430b      	orrs	r3, r1
 80025f6:	431a      	orrs	r2, r3
 80025f8:	6f7b      	ldr	r3, [r7, #116]	; 0x74
 80025fa:	609a      	str	r2, [r3, #8]
 80025fc:	687b      	ldr	r3, [r7, #4]
 80025fe:	681b      	ldr	r3, [r3, #0]
 8002600:	f1b3 4fa0 	cmp.w	r3, #1342177280	; 0x50000000
 8002604:	d004      	beq.n	8002610 <HAL_ADCEx_MultiModeConfigChannel+0xe8>
 8002606:	687b      	ldr	r3, [r7, #4]
 8002608:	681b      	ldr	r3, [r3, #0]
 800260a:	4a45      	ldr	r2, [pc, #276]	; (8002720 <HAL_ADCEx_MultiModeConfigChannel+0x1f8>)
 800260c:	4293      	cmp	r3, r2
 800260e:	d10f      	bne.n	8002630 <HAL_ADCEx_MultiModeConfigChannel+0x108>
 8002610:	f04f 40a0 	mov.w	r0, #1342177280	; 0x50000000
 8002614:	f7ff ff62 	bl	80024dc <LL_ADC_IsEnabled>
 8002618:	4604      	mov	r4, r0
 800261a:	4841      	ldr	r0, [pc, #260]	; (8002720 <HAL_ADCEx_MultiModeConfigChannel+0x1f8>)
 800261c:	f7ff ff5e 	bl	80024dc <LL_ADC_IsEnabled>
 8002620:	4603      	mov	r3, r0
 8002622:	4323      	orrs	r3, r4
 8002624:	2b00      	cmp	r3, #0
 8002626:	bf0c      	ite	eq
 8002628:	2301      	moveq	r3, #1
 800262a:	2300      	movne	r3, #0
 800262c:	b2db      	uxtb	r3, r3
 800262e:	e012      	b.n	8002656 <HAL_ADCEx_MultiModeConfigChannel+0x12e>
 8002630:	483c      	ldr	r0, [pc, #240]	; (8002724 <HAL_ADCEx_MultiModeConfigChannel+0x1fc>)
 8002632:	f7ff ff53 	bl	80024dc <LL_ADC_IsEnabled>
 8002636:	4604      	mov	r4, r0
 8002638:	483b      	ldr	r0, [pc, #236]	; (8002728 <HAL_ADCEx_MultiModeConfigChannel+0x200>)
 800263a:	f7ff ff4f 	bl	80024dc <LL_ADC_IsEnabled>
 800263e:	4603      	mov	r3, r0
 8002640:	431c      	orrs	r4, r3
 8002642:	483c      	ldr	r0, [pc, #240]	; (8002734 <HAL_ADCEx_MultiModeConfigChannel+0x20c>)
 8002644:	f7ff ff4a 	bl	80024dc <LL_ADC_IsEnabled>
 8002648:	4603      	mov	r3, r0
 800264a:	4323      	orrs	r3, r4
 800264c:	2b00      	cmp	r3, #0
 800264e:	bf0c      	ite	eq
 8002650:	2301      	moveq	r3, #1
 8002652:	2300      	movne	r3, #0
 8002654:	b2db      	uxtb	r3, r3
 8002656:	2b00      	cmp	r3, #0
 8002658:	d056      	beq.n	8002708 <HAL_ADCEx_MultiModeConfigChannel+0x1e0>
 800265a:	6f7b      	ldr	r3, [r7, #116]	; 0x74
 800265c:	689b      	ldr	r3, [r3, #8]
 800265e:	f423 6371 	bic.w	r3, r3, #3856	; 0xf10
 8002662:	f023 030f 	bic.w	r3, r3, #15
 8002666:	683a      	ldr	r2, [r7, #0]
 8002668:	6811      	ldr	r1, [r2, #0]
 800266a:	683a      	ldr	r2, [r7, #0]
 800266c:	6892      	ldr	r2, [r2, #8]
 800266e:	430a      	orrs	r2, r1
 8002670:	431a      	orrs	r2, r3
 8002672:	6f7b      	ldr	r3, [r7, #116]	; 0x74
 8002674:	609a      	str	r2, [r3, #8]
 8002676:	e047      	b.n	8002708 <HAL_ADCEx_MultiModeConfigChannel+0x1e0>
 8002678:	6f7b      	ldr	r3, [r7, #116]	; 0x74
 800267a:	689b      	ldr	r3, [r3, #8]
 800267c:	f423 4260 	bic.w	r2, r3, #57344	; 0xe000
 8002680:	6f7b      	ldr	r3, [r7, #116]	; 0x74
 8002682:	609a      	str	r2, [r3, #8]
 8002684:	687b      	ldr	r3, [r7, #4]
 8002686:	681b      	ldr	r3, [r3, #0]
 8002688:	f1b3 4fa0 	cmp.w	r3, #1342177280	; 0x50000000
 800268c:	d004      	beq.n	8002698 <HAL_ADCEx_MultiModeConfigChannel+0x170>
 800268e:	687b      	ldr	r3, [r7, #4]
 8002690:	681b      	ldr	r3, [r3, #0]
 8002692:	4a23      	ldr	r2, [pc, #140]	; (8002720 <HAL_ADCEx_MultiModeConfigChannel+0x1f8>)
 8002694:	4293      	cmp	r3, r2
 8002696:	d10f      	bne.n	80026b8 <HAL_ADCEx_MultiModeConfigChannel+0x190>
 8002698:	f04f 40a0 	mov.w	r0, #1342177280	; 0x50000000
 800269c:	f7ff ff1e 	bl	80024dc <LL_ADC_IsEnabled>
 80026a0:	4604      	mov	r4, r0
 80026a2:	481f      	ldr	r0, [pc, #124]	; (8002720 <HAL_ADCEx_MultiModeConfigChannel+0x1f8>)
 80026a4:	f7ff ff1a 	bl	80024dc <LL_ADC_IsEnabled>
 80026a8:	4603      	mov	r3, r0
 80026aa:	4323      	orrs	r3, r4
 80026ac:	2b00      	cmp	r3, #0
 80026ae:	bf0c      	ite	eq
 80026b0:	2301      	moveq	r3, #1
 80026b2:	2300      	movne	r3, #0
 80026b4:	b2db      	uxtb	r3, r3
 80026b6:	e012      	b.n	80026de <HAL_ADCEx_MultiModeConfigChannel+0x1b6>
 80026b8:	481a      	ldr	r0, [pc, #104]	; (8002724 <HAL_ADCEx_MultiModeConfigChannel+0x1fc>)
 80026ba:	f7ff ff0f 	bl	80024dc <LL_ADC_IsEnabled>
 80026be:	4604      	mov	r4, r0
 80026c0:	4819      	ldr	r0, [pc, #100]	; (8002728 <HAL_ADCEx_MultiModeConfigChannel+0x200>)
 80026c2:	f7ff ff0b 	bl	80024dc <LL_ADC_IsEnabled>
 80026c6:	4603      	mov	r3, r0
 80026c8:	431c      	orrs	r4, r3
 80026ca:	481a      	ldr	r0, [pc, #104]	; (8002734 <HAL_ADCEx_MultiModeConfigChannel+0x20c>)
 80026cc:	f7ff ff06 	bl	80024dc <LL_ADC_IsEnabled>
 80026d0:	4603      	mov	r3, r0
 80026d2:	4323      	orrs	r3, r4
 80026d4:	2b00      	cmp	r3, #0
 80026d6:	bf0c      	ite	eq
 80026d8:	2301      	moveq	r3, #1
 80026da:	2300      	movne	r3, #0
 80026dc:	b2db      	uxtb	r3, r3
 80026de:	2b00      	cmp	r3, #0
 80026e0:	d012      	beq.n	8002708 <HAL_ADCEx_MultiModeConfigChannel+0x1e0>
 80026e2:	6f7b      	ldr	r3, [r7, #116]	; 0x74
 80026e4:	689b      	ldr	r3, [r3, #8]
 80026e6:	f423 6371 	bic.w	r3, r3, #3856	; 0xf10
 80026ea:	f023 030f 	bic.w	r3, r3, #15
 80026ee:	6f7a      	ldr	r2, [r7, #116]	; 0x74
 80026f0:	6093      	str	r3, [r2, #8]
 80026f2:	e009      	b.n	8002708 <HAL_ADCEx_MultiModeConfigChannel+0x1e0>
 80026f4:	687b      	ldr	r3, [r7, #4]
 80026f6:	6ddb      	ldr	r3, [r3, #92]	; 0x5c
 80026f8:	f043 0220 	orr.w	r2, r3, #32
 80026fc:	687b      	ldr	r3, [r7, #4]
 80026fe:	65da      	str	r2, [r3, #92]	; 0x5c
 8002700:	2301      	movs	r3, #1
 8002702:	f887 307f 	strb.w	r3, [r7, #127]	; 0x7f
 8002706:	e000      	b.n	800270a <HAL_ADCEx_MultiModeConfigChannel+0x1e2>
 8002708:	bf00      	nop
 800270a:	687b      	ldr	r3, [r7, #4]
 800270c:	2200      	movs	r2, #0
 800270e:	f883 2058 	strb.w	r2, [r3, #88]	; 0x58
 8002712:	f897 307f 	ldrb.w	r3, [r7, #127]	; 0x7f
 8002716:	4618      	mov	r0, r3
 8002718:	3784      	adds	r7, #132	; 0x84
 800271a:	46bd      	mov	sp, r7
 800271c:	bd90      	pop	{r4, r7, pc}
 800271e:	bf00      	nop
 8002720:	50000100 	.word	0x50000100
 8002724:	50000400 	.word	0x50000400
 8002728:	50000500 	.word	0x50000500
 800272c:	50000300 	.word	0x50000300
 8002730:	50000700 	.word	0x50000700
 8002734:	50000600 	.word	0x50000600

08002738 <__NVIC_SetPriorityGrouping>:
 8002738:	b480      	push	{r7}
 800273a:	b085      	sub	sp, #20
 800273c:	af00      	add	r7, sp, #0
 800273e:	6078      	str	r0, [r7, #4]
 8002740:	687b      	ldr	r3, [r7, #4]
 8002742:	f003 0307 	and.w	r3, r3, #7
 8002746:	60fb      	str	r3, [r7, #12]
 8002748:	4b0c      	ldr	r3, [pc, #48]	; (800277c <__NVIC_SetPriorityGrouping+0x44>)
 800274a:	68db      	ldr	r3, [r3, #12]
 800274c:	60bb      	str	r3, [r7, #8]
 800274e:	68ba      	ldr	r2, [r7, #8]
 8002750:	f64f 03ff 	movw	r3, #63743	; 0xf8ff
 8002754:	4013      	ands	r3, r2
 8002756:	60bb      	str	r3, [r7, #8]
 8002758:	68fb      	ldr	r3, [r7, #12]
 800275a:	021a      	lsls	r2, r3, #8
 800275c:	68bb      	ldr	r3, [r7, #8]
 800275e:	4313      	orrs	r3, r2
 8002760:	f043 63bf 	orr.w	r3, r3, #100139008	; 0x5f80000
 8002764:	f443 3300 	orr.w	r3, r3, #131072	; 0x20000
 8002768:	60bb      	str	r3, [r7, #8]
 800276a:	4a04      	ldr	r2, [pc, #16]	; (800277c <__NVIC_SetPriorityGrouping+0x44>)
 800276c:	68bb      	ldr	r3, [r7, #8]
 800276e:	60d3      	str	r3, [r2, #12]
 8002770:	bf00      	nop
 8002772:	3714      	adds	r7, #20
 8002774:	46bd      	mov	sp, r7
 8002776:	f85d 7b04 	ldr.w	r7, [sp], #4
 800277a:	4770      	bx	lr
 800277c:	e000ed00 	.word	0xe000ed00

08002780 <__NVIC_GetPriorityGrouping>:
 8002780:	b480      	push	{r7}
 8002782:	af00      	add	r7, sp, #0
 8002784:	4b04      	ldr	r3, [pc, #16]	; (8002798 <__NVIC_GetPriorityGrouping+0x18>)
 8002786:	68db      	ldr	r3, [r3, #12]
 8002788:	0a1b      	lsrs	r3, r3, #8
 800278a:	f003 0307 	and.w	r3, r3, #7
 800278e:	4618      	mov	r0, r3
 8002790:	46bd      	mov	sp, r7
 8002792:	f85d 7b04 	ldr.w	r7, [sp], #4
 8002796:	4770      	bx	lr
 8002798:	e000ed00 	.word	0xe000ed00

0800279c <__NVIC_EnableIRQ>:
 800279c:	b480      	push	{r7}
 800279e:	b083      	sub	sp, #12
 80027a0:	af00      	add	r7, sp, #0
 80027a2:	4603      	mov	r3, r0
 80027a4:	71fb      	strb	r3, [r7, #7]
 80027a6:	f997 3007 	ldrsb.w	r3, [r7, #7]
 80027aa:	2b00      	cmp	r3, #0
 80027ac:	db0b      	blt.n	80027c6 <__NVIC_EnableIRQ+0x2a>
 80027ae:	79fb      	ldrb	r3, [r7, #7]
 80027b0:	f003 021f 	and.w	r2, r3, #31
 80027b4:	4907      	ldr	r1, [pc, #28]	; (80027d4 <__NVIC_EnableIRQ+0x38>)
 80027b6:	f997 3007 	ldrsb.w	r3, [r7, #7]
 80027ba:	095b      	lsrs	r3, r3, #5
 80027bc:	2001      	movs	r0, #1
 80027be:	fa00 f202 	lsl.w	r2, r0, r2
 80027c2:	f841 2023 	str.w	r2, [r1, r3, lsl #2]
 80027c6:	bf00      	nop
 80027c8:	370c      	adds	r7, #12
 80027ca:	46bd      	mov	sp, r7
 80027cc:	f85d 7b04 	ldr.w	r7, [sp], #4
 80027d0:	4770      	bx	lr
 80027d2:	bf00      	nop
 80027d4:	e000e100 	.word	0xe000e100

080027d8 <__NVIC_SetPriority>:
 80027d8:	b480      	push	{r7}
 80027da:	b083      	sub	sp, #12
 80027dc:	af00      	add	r7, sp, #0
 80027de:	4603      	mov	r3, r0
 80027e0:	6039      	str	r1, [r7, #0]
 80027e2:	71fb      	strb	r3, [r7, #7]
 80027e4:	f997 3007 	ldrsb.w	r3, [r7, #7]
 80027e8:	2b00      	cmp	r3, #0
 80027ea:	db0a      	blt.n	8002802 <__NVIC_SetPriority+0x2a>
 80027ec:	683b      	ldr	r3, [r7, #0]
 80027ee:	b2da      	uxtb	r2, r3
 80027f0:	490c      	ldr	r1, [pc, #48]	; (8002824 <__NVIC_SetPriority+0x4c>)
 80027f2:	f997 3007 	ldrsb.w	r3, [r7, #7]
 80027f6:	0112      	lsls	r2, r2, #4
 80027f8:	b2d2      	uxtb	r2, r2
 80027fa:	440b      	add	r3, r1
 80027fc:	f883 2300 	strb.w	r2, [r3, #768]	; 0x300
 8002800:	e00a      	b.n	8002818 <__NVIC_SetPriority+0x40>
 8002802:	683b      	ldr	r3, [r7, #0]
 8002804:	b2da      	uxtb	r2, r3
 8002806:	4908      	ldr	r1, [pc, #32]	; (8002828 <__NVIC_SetPriority+0x50>)
 8002808:	79fb      	ldrb	r3, [r7, #7]
 800280a:	f003 030f 	and.w	r3, r3, #15
 800280e:	3b04      	subs	r3, #4
 8002810:	0112      	lsls	r2, r2, #4
 8002812:	b2d2      	uxtb	r2, r2
 8002814:	440b      	add	r3, r1
 8002816:	761a      	strb	r2, [r3, #24]
 8002818:	bf00      	nop
 800281a:	370c      	adds	r7, #12
 800281c:	46bd      	mov	sp, r7
 800281e:	f85d 7b04 	ldr.w	r7, [sp], #4
 8002822:	4770      	bx	lr
 8002824:	e000e100 	.word	0xe000e100
 8002828:	e000ed00 	.word	0xe000ed00

0800282c <NVIC_EncodePriority>:
 800282c:	b480      	push	{r7}
 800282e:	b089      	sub	sp, #36	; 0x24
 8002830:	af00      	add	r7, sp, #0
 8002832:	60f8      	str	r0, [r7, #12]
 8002834:	60b9      	str	r1, [r7, #8]
 8002836:	607a      	str	r2, [r7, #4]
 8002838:	68fb      	ldr	r3, [r7, #12]
 800283a:	f003 0307 	and.w	r3, r3, #7
 800283e:	61fb      	str	r3, [r7, #28]
 8002840:	69fb      	ldr	r3, [r7, #28]
 8002842:	f1c3 0307 	rsb	r3, r3, #7
 8002846:	2b04      	cmp	r3, #4
 8002848:	bf28      	it	cs
 800284a:	2304      	movcs	r3, #4
 800284c:	61bb      	str	r3, [r7, #24]
 800284e:	69fb      	ldr	r3, [r7, #28]
 8002850:	3304      	adds	r3, #4
 8002852:	2b06      	cmp	r3, #6
 8002854:	d902      	bls.n	800285c <NVIC_EncodePriority+0x30>
 8002856:	69fb      	ldr	r3, [r7, #28]
 8002858:	3b03      	subs	r3, #3
 800285a:	e000      	b.n	800285e <NVIC_EncodePriority+0x32>
 800285c:	2300      	movs	r3, #0
 800285e:	617b      	str	r3, [r7, #20]
 8002860:	f04f 32ff 	mov.w	r2, #4294967295
 8002864:	69bb      	ldr	r3, [r7, #24]
 8002866:	fa02 f303 	lsl.w	r3, r2, r3
 800286a:	43da      	mvns	r2, r3
 800286c:	68bb      	ldr	r3, [r7, #8]
 800286e:	401a      	ands	r2, r3
 8002870:	697b      	ldr	r3, [r7, #20]
 8002872:	409a      	lsls	r2, r3
 8002874:	f04f 31ff 	mov.w	r1, #4294967295
 8002878:	697b      	ldr	r3, [r7, #20]
 800287a:	fa01 f303 	lsl.w	r3, r1, r3
 800287e:	43d9      	mvns	r1, r3
 8002880:	687b      	ldr	r3, [r7, #4]
 8002882:	400b      	ands	r3, r1
 8002884:	4313      	orrs	r3, r2
 8002886:	4618      	mov	r0, r3
 8002888:	3724      	adds	r7, #36	; 0x24
 800288a:	46bd      	mov	sp, r7
 800288c:	f85d 7b04 	ldr.w	r7, [sp], #4
 8002890:	4770      	bx	lr
	...

08002894 <SysTick_Config>:
 8002894:	b580      	push	{r7, lr}
 8002896:	b082      	sub	sp, #8
 8002898:	af00      	add	r7, sp, #0
 800289a:	6078      	str	r0, [r7, #4]
 800289c:	687b      	ldr	r3, [r7, #4]
 800289e:	3b01      	subs	r3, #1
 80028a0:	f1b3 7f80 	cmp.w	r3, #16777216	; 0x1000000
 80028a4:	d301      	bcc.n	80028aa <SysTick_Config+0x16>
 80028a6:	2301      	movs	r3, #1
 80028a8:	e00f      	b.n	80028ca <SysTick_Config+0x36>
 80028aa:	4a0a      	ldr	r2, [pc, #40]	; (80028d4 <SysTick_Config+0x40>)
 80028ac:	687b      	ldr	r3, [r7, #4]
 80028ae:	3b01      	subs	r3, #1
 80028b0:	6053      	str	r3, [r2, #4]
 80028b2:	210f      	movs	r1, #15
 80028b4:	f04f 30ff 	mov.w	r0, #4294967295
 80028b8:	f7ff ff8e 	bl	80027d8 <__NVIC_SetPriority>
 80028bc:	4b05      	ldr	r3, [pc, #20]	; (80028d4 <SysTick_Config+0x40>)
 80028be:	2200      	movs	r2, #0
 80028c0:	609a      	str	r2, [r3, #8]
 80028c2:	4b04      	ldr	r3, [pc, #16]	; (80028d4 <SysTick_Config+0x40>)
 80028c4:	2207      	movs	r2, #7
 80028c6:	601a      	str	r2, [r3, #0]
 80028c8:	2300      	movs	r3, #0
 80028ca:	4618      	mov	r0, r3
 80028cc:	3708      	adds	r7, #8
 80028ce:	46bd      	mov	sp, r7
 80028d0:	bd80      	pop	{r7, pc}
 80028d2:	bf00      	nop
 80028d4:	e000e010 	.word	0xe000e010

080028d8 <HAL_NVIC_SetPriorityGrouping>:
 80028d8:	b580      	push	{r7, lr}
 80028da:	b082      	sub	sp, #8
 80028dc:	af00      	add	r7, sp, #0
 80028de:	6078      	str	r0, [r7, #4]
 80028e0:	6878      	ldr	r0, [r7, #4]
 80028e2:	f7ff ff29 	bl	8002738 <__NVIC_SetPriorityGrouping>
 80028e6:	bf00      	nop
 80028e8:	3708      	adds	r7, #8
 80028ea:	46bd      	mov	sp, r7
 80028ec:	bd80      	pop	{r7, pc}

080028ee <HAL_NVIC_SetPriority>:
 80028ee:	b580      	push	{r7, lr}
 80028f0:	b086      	sub	sp, #24
 80028f2:	af00      	add	r7, sp, #0
 80028f4:	4603      	mov	r3, r0
 80028f6:	60b9      	str	r1, [r7, #8]
 80028f8:	607a      	str	r2, [r7, #4]
 80028fa:	73fb      	strb	r3, [r7, #15]
 80028fc:	f7ff ff40 	bl	8002780 <__NVIC_GetPriorityGrouping>
 8002900:	6178      	str	r0, [r7, #20]
 8002902:	687a      	ldr	r2, [r7, #4]
 8002904:	68b9      	ldr	r1, [r7, #8]
 8002906:	6978      	ldr	r0, [r7, #20]
 8002908:	f7ff ff90 	bl	800282c <NVIC_EncodePriority>
 800290c:	4602      	mov	r2, r0
 800290e:	f997 300f 	ldrsb.w	r3, [r7, #15]
 8002912:	4611      	mov	r1, r2
 8002914:	4618      	mov	r0, r3
 8002916:	f7ff ff5f 	bl	80027d8 <__NVIC_SetPriority>
 800291a:	bf00      	nop
 800291c:	3718      	adds	r7, #24
 800291e:	46bd      	mov	sp, r7
 8002920:	bd80      	pop	{r7, pc}

08002922 <HAL_NVIC_EnableIRQ>:
 8002922:	b580      	push	{r7, lr}
 8002924:	b082      	sub	sp, #8
 8002926:	af00      	add	r7, sp, #0
 8002928:	4603      	mov	r3, r0
 800292a:	71fb      	strb	r3, [r7, #7]
 800292c:	f997 3007 	ldrsb.w	r3, [r7, #7]
 8002930:	4618      	mov	r0, r3
 8002932:	f7ff ff33 	bl	800279c <__NVIC_EnableIRQ>
 8002936:	bf00      	nop
 8002938:	3708      	adds	r7, #8
 800293a:	46bd      	mov	sp, r7
 800293c:	bd80      	pop	{r7, pc}

0800293e <HAL_SYSTICK_Config>:
 800293e:	b580      	push	{r7, lr}
 8002940:	b082      	sub	sp, #8
 8002942:	af00      	add	r7, sp, #0
 8002944:	6078      	str	r0, [r7, #4]
 8002946:	6878      	ldr	r0, [r7, #4]
 8002948:	f7ff ffa4 	bl	8002894 <SysTick_Config>
 800294c:	4603      	mov	r3, r0
 800294e:	4618      	mov	r0, r3
 8002950:	3708      	adds	r7, #8
 8002952:	46bd      	mov	sp, r7
 8002954:	bd80      	pop	{r7, pc}
	...

08002958 <HAL_DMA_Init>:
 8002958:	b580      	push	{r7, lr}
 800295a:	b084      	sub	sp, #16
 800295c:	af00      	add	r7, sp, #0
 800295e:	6078      	str	r0, [r7, #4]
 8002960:	687b      	ldr	r3, [r7, #4]
 8002962:	2b00      	cmp	r3, #0
 8002964:	d101      	bne.n	800296a <HAL_DMA_Init+0x12>
 8002966:	2301      	movs	r3, #1
 8002968:	e08d      	b.n	8002a86 <HAL_DMA_Init+0x12e>
 800296a:	687b      	ldr	r3, [r7, #4]
 800296c:	681b      	ldr	r3, [r3, #0]
 800296e:	461a      	mov	r2, r3
 8002970:	4b47      	ldr	r3, [pc, #284]	; (8002a90 <HAL_DMA_Init+0x138>)
 8002972:	429a      	cmp	r2, r3
 8002974:	d80f      	bhi.n	8002996 <HAL_DMA_Init+0x3e>
 8002976:	687b      	ldr	r3, [r7, #4]
 8002978:	681b      	ldr	r3, [r3, #0]
 800297a:	461a      	mov	r2, r3
 800297c:	4b45      	ldr	r3, [pc, #276]	; (8002a94 <HAL_DMA_Init+0x13c>)
 800297e:	4413      	add	r3, r2
 8002980:	4a45      	ldr	r2, [pc, #276]	; (8002a98 <HAL_DMA_Init+0x140>)
 8002982:	fba2 2303 	umull	r2, r3, r2, r3
 8002986:	091b      	lsrs	r3, r3, #4
 8002988:	009a      	lsls	r2, r3, #2
 800298a:	687b      	ldr	r3, [r7, #4]
 800298c:	645a      	str	r2, [r3, #68]	; 0x44
 800298e:	687b      	ldr	r3, [r7, #4]
 8002990:	4a42      	ldr	r2, [pc, #264]	; (8002a9c <HAL_DMA_Init+0x144>)
 8002992:	641a      	str	r2, [r3, #64]	; 0x40
 8002994:	e00e      	b.n	80029b4 <HAL_DMA_Init+0x5c>
 8002996:	687b      	ldr	r3, [r7, #4]
 8002998:	681b      	ldr	r3, [r3, #0]
 800299a:	461a      	mov	r2, r3
 800299c:	4b40      	ldr	r3, [pc, #256]	; (8002aa0 <HAL_DMA_Init+0x148>)
 800299e:	4413      	add	r3, r2
 80029a0:	4a3d      	ldr	r2, [pc, #244]	; (8002a98 <HAL_DMA_Init+0x140>)
 80029a2:	fba2 2303 	umull	r2, r3, r2, r3
 80029a6:	091b      	lsrs	r3, r3, #4
 80029a8:	009a      	lsls	r2, r3, #2
 80029aa:	687b      	ldr	r3, [r7, #4]
 80029ac:	645a      	str	r2, [r3, #68]	; 0x44
 80029ae:	687b      	ldr	r3, [r7, #4]
 80029b0:	4a3c      	ldr	r2, [pc, #240]	; (8002aa4 <HAL_DMA_Init+0x14c>)
 80029b2:	641a      	str	r2, [r3, #64]	; 0x40
 80029b4:	687b      	ldr	r3, [r7, #4]
 80029b6:	2202      	movs	r2, #2
 80029b8:	f883 2025 	strb.w	r2, [r3, #37]	; 0x25
 80029bc:	687b      	ldr	r3, [r7, #4]
 80029be:	681b      	ldr	r3, [r3, #0]
 80029c0:	681b      	ldr	r3, [r3, #0]
 80029c2:	60fb      	str	r3, [r7, #12]
 80029c4:	68fb      	ldr	r3, [r7, #12]
 80029c6:	f423 43ff 	bic.w	r3, r3, #32640	; 0x7f80
 80029ca:	f023 0370 	bic.w	r3, r3, #112	; 0x70
 80029ce:	60fb      	str	r3, [r7, #12]
 80029d0:	687b      	ldr	r3, [r7, #4]
 80029d2:	689a      	ldr	r2, [r3, #8]
 80029d4:	687b      	ldr	r3, [r7, #4]
 80029d6:	68db      	ldr	r3, [r3, #12]
 80029d8:	431a      	orrs	r2, r3
 80029da:	687b      	ldr	r3, [r7, #4]
 80029dc:	691b      	ldr	r3, [r3, #16]
 80029de:	431a      	orrs	r2, r3
 80029e0:	687b      	ldr	r3, [r7, #4]
 80029e2:	695b      	ldr	r3, [r3, #20]
 80029e4:	431a      	orrs	r2, r3
 80029e6:	687b      	ldr	r3, [r7, #4]
 80029e8:	699b      	ldr	r3, [r3, #24]
 80029ea:	431a      	orrs	r2, r3
 80029ec:	687b      	ldr	r3, [r7, #4]
 80029ee:	69db      	ldr	r3, [r3, #28]
 80029f0:	431a      	orrs	r2, r3
 80029f2:	687b      	ldr	r3, [r7, #4]
 80029f4:	6a1b      	ldr	r3, [r3, #32]
 80029f6:	4313      	orrs	r3, r2
 80029f8:	68fa      	ldr	r2, [r7, #12]
 80029fa:	4313      	orrs	r3, r2
 80029fc:	60fb      	str	r3, [r7, #12]
 80029fe:	687b      	ldr	r3, [r7, #4]
 8002a00:	681b      	ldr	r3, [r3, #0]
 8002a02:	68fa      	ldr	r2, [r7, #12]
 8002a04:	601a      	str	r2, [r3, #0]
 8002a06:	6878      	ldr	r0, [r7, #4]
 8002a08:	f000 fa76 	bl	8002ef8 <DMA_CalcDMAMUXChannelBaseAndMask>
 8002a0c:	687b      	ldr	r3, [r7, #4]
 8002a0e:	689b      	ldr	r3, [r3, #8]
 8002a10:	f5b3 4f80 	cmp.w	r3, #16384	; 0x4000
 8002a14:	d102      	bne.n	8002a1c <HAL_DMA_Init+0xc4>
 8002a16:	687b      	ldr	r3, [r7, #4]
 8002a18:	2200      	movs	r2, #0
 8002a1a:	605a      	str	r2, [r3, #4]
 8002a1c:	687b      	ldr	r3, [r7, #4]
 8002a1e:	685a      	ldr	r2, [r3, #4]
 8002a20:	687b      	ldr	r3, [r7, #4]
 8002a22:	6c9b      	ldr	r3, [r3, #72]	; 0x48
 8002a24:	b2d2      	uxtb	r2, r2
 8002a26:	601a      	str	r2, [r3, #0]
 8002a28:	687b      	ldr	r3, [r7, #4]
 8002a2a:	6cdb      	ldr	r3, [r3, #76]	; 0x4c
 8002a2c:	687a      	ldr	r2, [r7, #4]
 8002a2e:	6d12      	ldr	r2, [r2, #80]	; 0x50
 8002a30:	605a      	str	r2, [r3, #4]
 8002a32:	687b      	ldr	r3, [r7, #4]
 8002a34:	685b      	ldr	r3, [r3, #4]
 8002a36:	2b00      	cmp	r3, #0
 8002a38:	d010      	beq.n	8002a5c <HAL_DMA_Init+0x104>
 8002a3a:	687b      	ldr	r3, [r7, #4]
 8002a3c:	685b      	ldr	r3, [r3, #4]
 8002a3e:	2b04      	cmp	r3, #4
 8002a40:	d80c      	bhi.n	8002a5c <HAL_DMA_Init+0x104>
 8002a42:	6878      	ldr	r0, [r7, #4]
 8002a44:	f000 fa96 	bl	8002f74 <DMA_CalcDMAMUXRequestGenBaseAndMask>
 8002a48:	687b      	ldr	r3, [r7, #4]
 8002a4a:	6d5b      	ldr	r3, [r3, #84]	; 0x54
 8002a4c:	2200      	movs	r2, #0
 8002a4e:	601a      	str	r2, [r3, #0]
 8002a50:	687b      	ldr	r3, [r7, #4]
 8002a52:	6d9b      	ldr	r3, [r3, #88]	; 0x58
 8002a54:	687a      	ldr	r2, [r7, #4]
 8002a56:	6dd2      	ldr	r2, [r2, #92]	; 0x5c
 8002a58:	605a      	str	r2, [r3, #4]
 8002a5a:	e008      	b.n	8002a6e <HAL_DMA_Init+0x116>
 8002a5c:	687b      	ldr	r3, [r7, #4]
 8002a5e:	2200      	movs	r2, #0
 8002a60:	655a      	str	r2, [r3, #84]	; 0x54
 8002a62:	687b      	ldr	r3, [r7, #4]
 8002a64:	2200      	movs	r2, #0
 8002a66:	659a      	str	r2, [r3, #88]	; 0x58
 8002a68:	687b      	ldr	r3, [r7, #4]
 8002a6a:	2200      	movs	r2, #0
 8002a6c:	65da      	str	r2, [r3, #92]	; 0x5c
 8002a6e:	687b      	ldr	r3, [r7, #4]
 8002a70:	2200      	movs	r2, #0
 8002a72:	63da      	str	r2, [r3, #60]	; 0x3c
 8002a74:	687b      	ldr	r3, [r7, #4]
 8002a76:	2201      	movs	r2, #1
 8002a78:	f883 2025 	strb.w	r2, [r3, #37]	; 0x25
 8002a7c:	687b      	ldr	r3, [r7, #4]
 8002a7e:	2200      	movs	r2, #0
 8002a80:	f883 2024 	strb.w	r2, [r3, #36]	; 0x24
 8002a84:	2300      	movs	r3, #0
 8002a86:	4618      	mov	r0, r3
 8002a88:	3710      	adds	r7, #16
 8002a8a:	46bd      	mov	sp, r7
 8002a8c:	bd80      	pop	{r7, pc}
 8002a8e:	bf00      	nop
 8002a90:	40020407 	.word	0x40020407
 8002a94:	bffdfff8 	.word	0xbffdfff8
 8002a98:	cccccccd 	.word	0xcccccccd
 8002a9c:	40020000 	.word	0x40020000
 8002aa0:	bffdfbf8 	.word	0xbffdfbf8
 8002aa4:	40020400 	.word	0x40020400

08002aa8 <HAL_DMA_Start_IT>:
 8002aa8:	b580      	push	{r7, lr}
 8002aaa:	b086      	sub	sp, #24
 8002aac:	af00      	add	r7, sp, #0
 8002aae:	60f8      	str	r0, [r7, #12]
 8002ab0:	60b9      	str	r1, [r7, #8]
 8002ab2:	607a      	str	r2, [r7, #4]
 8002ab4:	603b      	str	r3, [r7, #0]
 8002ab6:	2300      	movs	r3, #0
 8002ab8:	75fb      	strb	r3, [r7, #23]
 8002aba:	68fb      	ldr	r3, [r7, #12]
 8002abc:	f893 3024 	ldrb.w	r3, [r3, #36]	; 0x24
 8002ac0:	2b01      	cmp	r3, #1
 8002ac2:	d101      	bne.n	8002ac8 <HAL_DMA_Start_IT+0x20>
 8002ac4:	2302      	movs	r3, #2
 8002ac6:	e066      	b.n	8002b96 <HAL_DMA_Start_IT+0xee>
 8002ac8:	68fb      	ldr	r3, [r7, #12]
 8002aca:	2201      	movs	r2, #1
 8002acc:	f883 2024 	strb.w	r2, [r3, #36]	; 0x24
 8002ad0:	68fb      	ldr	r3, [r7, #12]
 8002ad2:	f893 3025 	ldrb.w	r3, [r3, #37]	; 0x25
 8002ad6:	b2db      	uxtb	r3, r3
 8002ad8:	2b01      	cmp	r3, #1
 8002ada:	d155      	bne.n	8002b88 <HAL_DMA_Start_IT+0xe0>
 8002adc:	68fb      	ldr	r3, [r7, #12]
 8002ade:	2202      	movs	r2, #2
 8002ae0:	f883 2025 	strb.w	r2, [r3, #37]	; 0x25
 8002ae4:	68fb      	ldr	r3, [r7, #12]
 8002ae6:	2200      	movs	r2, #0
 8002ae8:	63da      	str	r2, [r3, #60]	; 0x3c
 8002aea:	68fb      	ldr	r3, [r7, #12]
 8002aec:	681b      	ldr	r3, [r3, #0]
 8002aee:	681a      	ldr	r2, [r3, #0]
 8002af0:	68fb      	ldr	r3, [r7, #12]
 8002af2:	681b      	ldr	r3, [r3, #0]
 8002af4:	f022 0201 	bic.w	r2, r2, #1
 8002af8:	601a      	str	r2, [r3, #0]
 8002afa:	683b      	ldr	r3, [r7, #0]
 8002afc:	687a      	ldr	r2, [r7, #4]
 8002afe:	68b9      	ldr	r1, [r7, #8]
 8002b00:	68f8      	ldr	r0, [r7, #12]
 8002b02:	f000 f9bb 	bl	8002e7c <DMA_SetConfig>
 8002b06:	68fb      	ldr	r3, [r7, #12]
 8002b08:	6b1b      	ldr	r3, [r3, #48]	; 0x30
 8002b0a:	2b00      	cmp	r3, #0
 8002b0c:	d008      	beq.n	8002b20 <HAL_DMA_Start_IT+0x78>
 8002b0e:	68fb      	ldr	r3, [r7, #12]
 8002b10:	681b      	ldr	r3, [r3, #0]
 8002b12:	681a      	ldr	r2, [r3, #0]
 8002b14:	68fb      	ldr	r3, [r7, #12]
 8002b16:	681b      	ldr	r3, [r3, #0]
 8002b18:	f042 020e 	orr.w	r2, r2, #14
 8002b1c:	601a      	str	r2, [r3, #0]
 8002b1e:	e00f      	b.n	8002b40 <HAL_DMA_Start_IT+0x98>
 8002b20:	68fb      	ldr	r3, [r7, #12]
 8002b22:	681b      	ldr	r3, [r3, #0]
 8002b24:	681a      	ldr	r2, [r3, #0]
 8002b26:	68fb      	ldr	r3, [r7, #12]
 8002b28:	681b      	ldr	r3, [r3, #0]
 8002b2a:	f022 0204 	bic.w	r2, r2, #4
 8002b2e:	601a      	str	r2, [r3, #0]
 8002b30:	68fb      	ldr	r3, [r7, #12]
 8002b32:	681b      	ldr	r3, [r3, #0]
 8002b34:	681a      	ldr	r2, [r3, #0]
 8002b36:	68fb      	ldr	r3, [r7, #12]
 8002b38:	681b      	ldr	r3, [r3, #0]
 8002b3a:	f042 020a 	orr.w	r2, r2, #10
 8002b3e:	601a      	str	r2, [r3, #0]
 8002b40:	68fb      	ldr	r3, [r7, #12]
 8002b42:	6c9b      	ldr	r3, [r3, #72]	; 0x48
 8002b44:	681b      	ldr	r3, [r3, #0]
 8002b46:	f403 3380 	and.w	r3, r3, #65536	; 0x10000
 8002b4a:	2b00      	cmp	r3, #0
 8002b4c:	d007      	beq.n	8002b5e <HAL_DMA_Start_IT+0xb6>
 8002b4e:	68fb      	ldr	r3, [r7, #12]
 8002b50:	6c9b      	ldr	r3, [r3, #72]	; 0x48
 8002b52:	681a      	ldr	r2, [r3, #0]
 8002b54:	68fb      	ldr	r3, [r7, #12]
 8002b56:	6c9b      	ldr	r3, [r3, #72]	; 0x48
 8002b58:	f442 7280 	orr.w	r2, r2, #256	; 0x100
 8002b5c:	601a      	str	r2, [r3, #0]
 8002b5e:	68fb      	ldr	r3, [r7, #12]
 8002b60:	6d5b      	ldr	r3, [r3, #84]	; 0x54
 8002b62:	2b00      	cmp	r3, #0
 8002b64:	d007      	beq.n	8002b76 <HAL_DMA_Start_IT+0xce>
 8002b66:	68fb      	ldr	r3, [r7, #12]
 8002b68:	6d5b      	ldr	r3, [r3, #84]	; 0x54
 8002b6a:	681a      	ldr	r2, [r3, #0]
 8002b6c:	68fb      	ldr	r3, [r7, #12]
 8002b6e:	6d5b      	ldr	r3, [r3, #84]	; 0x54
 8002b70:	f442 7280 	orr.w	r2, r2, #256	; 0x100
 8002b74:	601a      	str	r2, [r3, #0]
 8002b76:	68fb      	ldr	r3, [r7, #12]
 8002b78:	681b      	ldr	r3, [r3, #0]
 8002b7a:	681a      	ldr	r2, [r3, #0]
 8002b7c:	68fb      	ldr	r3, [r7, #12]
 8002b7e:	681b      	ldr	r3, [r3, #0]
 8002b80:	f042 0201 	orr.w	r2, r2, #1
 8002b84:	601a      	str	r2, [r3, #0]
 8002b86:	e005      	b.n	8002b94 <HAL_DMA_Start_IT+0xec>
 8002b88:	68fb      	ldr	r3, [r7, #12]
 8002b8a:	2200      	movs	r2, #0
 8002b8c:	f883 2024 	strb.w	r2, [r3, #36]	; 0x24
 8002b90:	2302      	movs	r3, #2
 8002b92:	75fb      	strb	r3, [r7, #23]
 8002b94:	7dfb      	ldrb	r3, [r7, #23]
 8002b96:	4618      	mov	r0, r3
 8002b98:	3718      	adds	r7, #24
 8002b9a:	46bd      	mov	sp, r7
 8002b9c:	bd80      	pop	{r7, pc}

08002b9e <HAL_DMA_Abort>:
 8002b9e:	b480      	push	{r7}
 8002ba0:	b085      	sub	sp, #20
 8002ba2:	af00      	add	r7, sp, #0
 8002ba4:	6078      	str	r0, [r7, #4]
 8002ba6:	2300      	movs	r3, #0
 8002ba8:	73fb      	strb	r3, [r7, #15]
 8002baa:	687b      	ldr	r3, [r7, #4]
 8002bac:	f893 3025 	ldrb.w	r3, [r3, #37]	; 0x25
 8002bb0:	b2db      	uxtb	r3, r3
 8002bb2:	2b02      	cmp	r3, #2
 8002bb4:	d005      	beq.n	8002bc2 <HAL_DMA_Abort+0x24>
 8002bb6:	687b      	ldr	r3, [r7, #4]
 8002bb8:	2204      	movs	r2, #4
 8002bba:	63da      	str	r2, [r3, #60]	; 0x3c
 8002bbc:	2301      	movs	r3, #1
 8002bbe:	73fb      	strb	r3, [r7, #15]
 8002bc0:	e037      	b.n	8002c32 <HAL_DMA_Abort+0x94>
 8002bc2:	687b      	ldr	r3, [r7, #4]
 8002bc4:	681b      	ldr	r3, [r3, #0]
 8002bc6:	681a      	ldr	r2, [r3, #0]
 8002bc8:	687b      	ldr	r3, [r7, #4]
 8002bca:	681b      	ldr	r3, [r3, #0]
 8002bcc:	f022 020e 	bic.w	r2, r2, #14
 8002bd0:	601a      	str	r2, [r3, #0]
 8002bd2:	687b      	ldr	r3, [r7, #4]
 8002bd4:	6c9b      	ldr	r3, [r3, #72]	; 0x48
 8002bd6:	681a      	ldr	r2, [r3, #0]
 8002bd8:	687b      	ldr	r3, [r7, #4]
 8002bda:	6c9b      	ldr	r3, [r3, #72]	; 0x48
 8002bdc:	f422 7280 	bic.w	r2, r2, #256	; 0x100
 8002be0:	601a      	str	r2, [r3, #0]
 8002be2:	687b      	ldr	r3, [r7, #4]
 8002be4:	681b      	ldr	r3, [r3, #0]
 8002be6:	681a      	ldr	r2, [r3, #0]
 8002be8:	687b      	ldr	r3, [r7, #4]
 8002bea:	681b      	ldr	r3, [r3, #0]
 8002bec:	f022 0201 	bic.w	r2, r2, #1
 8002bf0:	601a      	str	r2, [r3, #0]
 8002bf2:	687b      	ldr	r3, [r7, #4]
 8002bf4:	6c5b      	ldr	r3, [r3, #68]	; 0x44
 8002bf6:	f003 021f 	and.w	r2, r3, #31
 8002bfa:	687b      	ldr	r3, [r7, #4]
 8002bfc:	6c1b      	ldr	r3, [r3, #64]	; 0x40
 8002bfe:	2101      	movs	r1, #1
 8002c00:	fa01 f202 	lsl.w	r2, r1, r2
 8002c04:	605a      	str	r2, [r3, #4]
 8002c06:	687b      	ldr	r3, [r7, #4]
 8002c08:	6cdb      	ldr	r3, [r3, #76]	; 0x4c
 8002c0a:	687a      	ldr	r2, [r7, #4]
 8002c0c:	6d12      	ldr	r2, [r2, #80]	; 0x50
 8002c0e:	605a      	str	r2, [r3, #4]
 8002c10:	687b      	ldr	r3, [r7, #4]
 8002c12:	6d5b      	ldr	r3, [r3, #84]	; 0x54
 8002c14:	2b00      	cmp	r3, #0
 8002c16:	d00c      	beq.n	8002c32 <HAL_DMA_Abort+0x94>
 8002c18:	687b      	ldr	r3, [r7, #4]
 8002c1a:	6d5b      	ldr	r3, [r3, #84]	; 0x54
 8002c1c:	681a      	ldr	r2, [r3, #0]
 8002c1e:	687b      	ldr	r3, [r7, #4]
 8002c20:	6d5b      	ldr	r3, [r3, #84]	; 0x54
 8002c22:	f422 7280 	bic.w	r2, r2, #256	; 0x100
 8002c26:	601a      	str	r2, [r3, #0]
 8002c28:	687b      	ldr	r3, [r7, #4]
 8002c2a:	6d9b      	ldr	r3, [r3, #88]	; 0x58
 8002c2c:	687a      	ldr	r2, [r7, #4]
 8002c2e:	6dd2      	ldr	r2, [r2, #92]	; 0x5c
 8002c30:	605a      	str	r2, [r3, #4]
 8002c32:	687b      	ldr	r3, [r7, #4]
 8002c34:	2201      	movs	r2, #1
 8002c36:	f883 2025 	strb.w	r2, [r3, #37]	; 0x25
 8002c3a:	687b      	ldr	r3, [r7, #4]
 8002c3c:	2200      	movs	r2, #0
 8002c3e:	f883 2024 	strb.w	r2, [r3, #36]	; 0x24
 8002c42:	7bfb      	ldrb	r3, [r7, #15]
 8002c44:	4618      	mov	r0, r3
 8002c46:	3714      	adds	r7, #20
 8002c48:	46bd      	mov	sp, r7
 8002c4a:	f85d 7b04 	ldr.w	r7, [sp], #4
 8002c4e:	4770      	bx	lr

08002c50 <HAL_DMA_Abort_IT>:
 8002c50:	b580      	push	{r7, lr}
 8002c52:	b084      	sub	sp, #16
 8002c54:	af00      	add	r7, sp, #0
 8002c56:	6078      	str	r0, [r7, #4]
 8002c58:	2300      	movs	r3, #0
 8002c5a:	73fb      	strb	r3, [r7, #15]
 8002c5c:	687b      	ldr	r3, [r7, #4]
 8002c5e:	f893 3025 	ldrb.w	r3, [r3, #37]	; 0x25
 8002c62:	b2db      	uxtb	r3, r3
 8002c64:	2b02      	cmp	r3, #2
 8002c66:	d00d      	beq.n	8002c84 <HAL_DMA_Abort_IT+0x34>
 8002c68:	687b      	ldr	r3, [r7, #4]
 8002c6a:	2204      	movs	r2, #4
 8002c6c:	63da      	str	r2, [r3, #60]	; 0x3c
 8002c6e:	687b      	ldr	r3, [r7, #4]
 8002c70:	2201      	movs	r2, #1
 8002c72:	f883 2025 	strb.w	r2, [r3, #37]	; 0x25
 8002c76:	687b      	ldr	r3, [r7, #4]
 8002c78:	2200      	movs	r2, #0
 8002c7a:	f883 2024 	strb.w	r2, [r3, #36]	; 0x24
 8002c7e:	2301      	movs	r3, #1
 8002c80:	73fb      	strb	r3, [r7, #15]
 8002c82:	e047      	b.n	8002d14 <HAL_DMA_Abort_IT+0xc4>
 8002c84:	687b      	ldr	r3, [r7, #4]
 8002c86:	681b      	ldr	r3, [r3, #0]
 8002c88:	681a      	ldr	r2, [r3, #0]
 8002c8a:	687b      	ldr	r3, [r7, #4]
 8002c8c:	681b      	ldr	r3, [r3, #0]
 8002c8e:	f022 020e 	bic.w	r2, r2, #14
 8002c92:	601a      	str	r2, [r3, #0]
 8002c94:	687b      	ldr	r3, [r7, #4]
 8002c96:	681b      	ldr	r3, [r3, #0]
 8002c98:	681a      	ldr	r2, [r3, #0]
 8002c9a:	687b      	ldr	r3, [r7, #4]
 8002c9c:	681b      	ldr	r3, [r3, #0]
 8002c9e:	f022 0201 	bic.w	r2, r2, #1
 8002ca2:	601a      	str	r2, [r3, #0]
 8002ca4:	687b      	ldr	r3, [r7, #4]
 8002ca6:	6c9b      	ldr	r3, [r3, #72]	; 0x48
 8002ca8:	681a      	ldr	r2, [r3, #0]
 8002caa:	687b      	ldr	r3, [r7, #4]
 8002cac:	6c9b      	ldr	r3, [r3, #72]	; 0x48
 8002cae:	f422 7280 	bic.w	r2, r2, #256	; 0x100
 8002cb2:	601a      	str	r2, [r3, #0]
 8002cb4:	687b      	ldr	r3, [r7, #4]
 8002cb6:	6c5b      	ldr	r3, [r3, #68]	; 0x44
 8002cb8:	f003 021f 	and.w	r2, r3, #31
 8002cbc:	687b      	ldr	r3, [r7, #4]
 8002cbe:	6c1b      	ldr	r3, [r3, #64]	; 0x40
 8002cc0:	2101      	movs	r1, #1
 8002cc2:	fa01 f202 	lsl.w	r2, r1, r2
 8002cc6:	605a      	str	r2, [r3, #4]
 8002cc8:	687b      	ldr	r3, [r7, #4]
 8002cca:	6cdb      	ldr	r3, [r3, #76]	; 0x4c
 8002ccc:	687a      	ldr	r2, [r7, #4]
 8002cce:	6d12      	ldr	r2, [r2, #80]	; 0x50
 8002cd0:	605a      	str	r2, [r3, #4]
 8002cd2:	687b      	ldr	r3, [r7, #4]
 8002cd4:	6d5b      	ldr	r3, [r3, #84]	; 0x54
 8002cd6:	2b00      	cmp	r3, #0
 8002cd8:	d00c      	beq.n	8002cf4 <HAL_DMA_Abort_IT+0xa4>
 8002cda:	687b      	ldr	r3, [r7, #4]
 8002cdc:	6d5b      	ldr	r3, [r3, #84]	; 0x54
 8002cde:	681a      	ldr	r2, [r3, #0]
 8002ce0:	687b      	ldr	r3, [r7, #4]
 8002ce2:	6d5b      	ldr	r3, [r3, #84]	; 0x54
 8002ce4:	f422 7280 	bic.w	r2, r2, #256	; 0x100
 8002ce8:	601a      	str	r2, [r3, #0]
 8002cea:	687b      	ldr	r3, [r7, #4]
 8002cec:	6d9b      	ldr	r3, [r3, #88]	; 0x58
 8002cee:	687a      	ldr	r2, [r7, #4]
 8002cf0:	6dd2      	ldr	r2, [r2, #92]	; 0x5c
 8002cf2:	605a      	str	r2, [r3, #4]
 8002cf4:	687b      	ldr	r3, [r7, #4]
 8002cf6:	2201      	movs	r2, #1
 8002cf8:	f883 2025 	strb.w	r2, [r3, #37]	; 0x25
 8002cfc:	687b      	ldr	r3, [r7, #4]
 8002cfe:	2200      	movs	r2, #0
 8002d00:	f883 2024 	strb.w	r2, [r3, #36]	; 0x24
 8002d04:	687b      	ldr	r3, [r7, #4]
 8002d06:	6b9b      	ldr	r3, [r3, #56]	; 0x38
 8002d08:	2b00      	cmp	r3, #0
 8002d0a:	d003      	beq.n	8002d14 <HAL_DMA_Abort_IT+0xc4>
 8002d0c:	687b      	ldr	r3, [r7, #4]
 8002d0e:	6b9b      	ldr	r3, [r3, #56]	; 0x38
 8002d10:	6878      	ldr	r0, [r7, #4]
 8002d12:	4798      	blx	r3
 8002d14:	7bfb      	ldrb	r3, [r7, #15]
 8002d16:	4618      	mov	r0, r3
 8002d18:	3710      	adds	r7, #16
 8002d1a:	46bd      	mov	sp, r7
 8002d1c:	bd80      	pop	{r7, pc}

08002d1e <HAL_DMA_IRQHandler>:
 8002d1e:	b580      	push	{r7, lr}
 8002d20:	b084      	sub	sp, #16
 8002d22:	af00      	add	r7, sp, #0
 8002d24:	6078      	str	r0, [r7, #4]
 8002d26:	687b      	ldr	r3, [r7, #4]
 8002d28:	6c1b      	ldr	r3, [r3, #64]	; 0x40
 8002d2a:	681b      	ldr	r3, [r3, #0]
 8002d2c:	60fb      	str	r3, [r7, #12]
 8002d2e:	687b      	ldr	r3, [r7, #4]
 8002d30:	681b      	ldr	r3, [r3, #0]
 8002d32:	681b      	ldr	r3, [r3, #0]
 8002d34:	60bb      	str	r3, [r7, #8]
 8002d36:	687b      	ldr	r3, [r7, #4]
 8002d38:	6c5b      	ldr	r3, [r3, #68]	; 0x44
 8002d3a:	f003 031f 	and.w	r3, r3, #31
 8002d3e:	2204      	movs	r2, #4
 8002d40:	409a      	lsls	r2, r3
 8002d42:	68fb      	ldr	r3, [r7, #12]
 8002d44:	4013      	ands	r3, r2
 8002d46:	2b00      	cmp	r3, #0
 8002d48:	d026      	beq.n	8002d98 <HAL_DMA_IRQHandler+0x7a>
 8002d4a:	68bb      	ldr	r3, [r7, #8]
 8002d4c:	f003 0304 	and.w	r3, r3, #4
 8002d50:	2b00      	cmp	r3, #0
 8002d52:	d021      	beq.n	8002d98 <HAL_DMA_IRQHandler+0x7a>
 8002d54:	687b      	ldr	r3, [r7, #4]
 8002d56:	681b      	ldr	r3, [r3, #0]
 8002d58:	681b      	ldr	r3, [r3, #0]
 8002d5a:	f003 0320 	and.w	r3, r3, #32
 8002d5e:	2b00      	cmp	r3, #0
 8002d60:	d107      	bne.n	8002d72 <HAL_DMA_IRQHandler+0x54>
 8002d62:	687b      	ldr	r3, [r7, #4]
 8002d64:	681b      	ldr	r3, [r3, #0]
 8002d66:	681a      	ldr	r2, [r3, #0]
 8002d68:	687b      	ldr	r3, [r7, #4]
 8002d6a:	681b      	ldr	r3, [r3, #0]
 8002d6c:	f022 0204 	bic.w	r2, r2, #4
 8002d70:	601a      	str	r2, [r3, #0]
 8002d72:	687b      	ldr	r3, [r7, #4]
 8002d74:	6c5b      	ldr	r3, [r3, #68]	; 0x44
 8002d76:	f003 021f 	and.w	r2, r3, #31
 8002d7a:	687b      	ldr	r3, [r7, #4]
 8002d7c:	6c1b      	ldr	r3, [r3, #64]	; 0x40
 8002d7e:	2104      	movs	r1, #4
 8002d80:	fa01 f202 	lsl.w	r2, r1, r2
 8002d84:	605a      	str	r2, [r3, #4]
 8002d86:	687b      	ldr	r3, [r7, #4]
 8002d88:	6b1b      	ldr	r3, [r3, #48]	; 0x30
 8002d8a:	2b00      	cmp	r3, #0
 8002d8c:	d071      	beq.n	8002e72 <HAL_DMA_IRQHandler+0x154>
 8002d8e:	687b      	ldr	r3, [r7, #4]
 8002d90:	6b1b      	ldr	r3, [r3, #48]	; 0x30
 8002d92:	6878      	ldr	r0, [r7, #4]
 8002d94:	4798      	blx	r3
 8002d96:	e06c      	b.n	8002e72 <HAL_DMA_IRQHandler+0x154>
 8002d98:	687b      	ldr	r3, [r7, #4]
 8002d9a:	6c5b      	ldr	r3, [r3, #68]	; 0x44
 8002d9c:	f003 031f 	and.w	r3, r3, #31
 8002da0:	2202      	movs	r2, #2
 8002da2:	409a      	lsls	r2, r3
 8002da4:	68fb      	ldr	r3, [r7, #12]
 8002da6:	4013      	ands	r3, r2
 8002da8:	2b00      	cmp	r3, #0
 8002daa:	d02e      	beq.n	8002e0a <HAL_DMA_IRQHandler+0xec>
 8002dac:	68bb      	ldr	r3, [r7, #8]
 8002dae:	f003 0302 	and.w	r3, r3, #2
 8002db2:	2b00      	cmp	r3, #0
 8002db4:	d029      	beq.n	8002e0a <HAL_DMA_IRQHandler+0xec>
 8002db6:	687b      	ldr	r3, [r7, #4]
 8002db8:	681b      	ldr	r3, [r3, #0]
 8002dba:	681b      	ldr	r3, [r3, #0]
 8002dbc:	f003 0320 	and.w	r3, r3, #32
 8002dc0:	2b00      	cmp	r3, #0
 8002dc2:	d10b      	bne.n	8002ddc <HAL_DMA_IRQHandler+0xbe>
 8002dc4:	687b      	ldr	r3, [r7, #4]
 8002dc6:	681b      	ldr	r3, [r3, #0]
 8002dc8:	681a      	ldr	r2, [r3, #0]
 8002dca:	687b      	ldr	r3, [r7, #4]
 8002dcc:	681b      	ldr	r3, [r3, #0]
 8002dce:	f022 020a 	bic.w	r2, r2, #10
 8002dd2:	601a      	str	r2, [r3, #0]
 8002dd4:	687b      	ldr	r3, [r7, #4]
 8002dd6:	2201      	movs	r2, #1
 8002dd8:	f883 2025 	strb.w	r2, [r3, #37]	; 0x25
 8002ddc:	687b      	ldr	r3, [r7, #4]
 8002dde:	6c5b      	ldr	r3, [r3, #68]	; 0x44
 8002de0:	f003 021f 	and.w	r2, r3, #31
 8002de4:	687b      	ldr	r3, [r7, #4]
 8002de6:	6c1b      	ldr	r3, [r3, #64]	; 0x40
 8002de8:	2102      	movs	r1, #2
 8002dea:	fa01 f202 	lsl.w	r2, r1, r2
 8002dee:	605a      	str	r2, [r3, #4]
 8002df0:	687b      	ldr	r3, [r7, #4]
 8002df2:	2200      	movs	r2, #0
 8002df4:	f883 2024 	strb.w	r2, [r3, #36]	; 0x24
 8002df8:	687b      	ldr	r3, [r7, #4]
 8002dfa:	6adb      	ldr	r3, [r3, #44]	; 0x2c
 8002dfc:	2b00      	cmp	r3, #0
 8002dfe:	d038      	beq.n	8002e72 <HAL_DMA_IRQHandler+0x154>
 8002e00:	687b      	ldr	r3, [r7, #4]
 8002e02:	6adb      	ldr	r3, [r3, #44]	; 0x2c
 8002e04:	6878      	ldr	r0, [r7, #4]
 8002e06:	4798      	blx	r3
 8002e08:	e033      	b.n	8002e72 <HAL_DMA_IRQHandler+0x154>
 8002e0a:	687b      	ldr	r3, [r7, #4]
 8002e0c:	6c5b      	ldr	r3, [r3, #68]	; 0x44
 8002e0e:	f003 031f 	and.w	r3, r3, #31
 8002e12:	2208      	movs	r2, #8
 8002e14:	409a      	lsls	r2, r3
 8002e16:	68fb      	ldr	r3, [r7, #12]
 8002e18:	4013      	ands	r3, r2
 8002e1a:	2b00      	cmp	r3, #0
 8002e1c:	d02a      	beq.n	8002e74 <HAL_DMA_IRQHandler+0x156>
 8002e1e:	68bb      	ldr	r3, [r7, #8]
 8002e20:	f003 0308 	and.w	r3, r3, #8
 8002e24:	2b00      	cmp	r3, #0
 8002e26:	d025      	beq.n	8002e74 <HAL_DMA_IRQHandler+0x156>
 8002e28:	687b      	ldr	r3, [r7, #4]
 8002e2a:	681b      	ldr	r3, [r3, #0]
 8002e2c:	681a      	ldr	r2, [r3, #0]
 8002e2e:	687b      	ldr	r3, [r7, #4]
 8002e30:	681b      	ldr	r3, [r3, #0]
 8002e32:	f022 020e 	bic.w	r2, r2, #14
 8002e36:	601a      	str	r2, [r3, #0]
 8002e38:	687b      	ldr	r3, [r7, #4]
 8002e3a:	6c5b      	ldr	r3, [r3, #68]	; 0x44
 8002e3c:	f003 021f 	and.w	r2, r3, #31
 8002e40:	687b      	ldr	r3, [r7, #4]
 8002e42:	6c1b      	ldr	r3, [r3, #64]	; 0x40
 8002e44:	2101      	movs	r1, #1
 8002e46:	fa01 f202 	lsl.w	r2, r1, r2
 8002e4a:	605a      	str	r2, [r3, #4]
 8002e4c:	687b      	ldr	r3, [r7, #4]
 8002e4e:	2201      	movs	r2, #1
 8002e50:	63da      	str	r2, [r3, #60]	; 0x3c
 8002e52:	687b      	ldr	r3, [r7, #4]
 8002e54:	2201      	movs	r2, #1
 8002e56:	f883 2025 	strb.w	r2, [r3, #37]	; 0x25
 8002e5a:	687b      	ldr	r3, [r7, #4]
 8002e5c:	2200      	movs	r2, #0
 8002e5e:	f883 2024 	strb.w	r2, [r3, #36]	; 0x24
 8002e62:	687b      	ldr	r3, [r7, #4]
 8002e64:	6b5b      	ldr	r3, [r3, #52]	; 0x34
 8002e66:	2b00      	cmp	r3, #0
 8002e68:	d004      	beq.n	8002e74 <HAL_DMA_IRQHandler+0x156>
 8002e6a:	687b      	ldr	r3, [r7, #4]
 8002e6c:	6b5b      	ldr	r3, [r3, #52]	; 0x34
 8002e6e:	6878      	ldr	r0, [r7, #4]
 8002e70:	4798      	blx	r3
 8002e72:	bf00      	nop
 8002e74:	bf00      	nop
 8002e76:	3710      	adds	r7, #16
 8002e78:	46bd      	mov	sp, r7
 8002e7a:	bd80      	pop	{r7, pc}

08002e7c <DMA_SetConfig>:
 8002e7c:	b480      	push	{r7}
 8002e7e:	b085      	sub	sp, #20
 8002e80:	af00      	add	r7, sp, #0
 8002e82:	60f8      	str	r0, [r7, #12]
 8002e84:	60b9      	str	r1, [r7, #8]
 8002e86:	607a      	str	r2, [r7, #4]
 8002e88:	603b      	str	r3, [r7, #0]
 8002e8a:	68fb      	ldr	r3, [r7, #12]
 8002e8c:	6cdb      	ldr	r3, [r3, #76]	; 0x4c
 8002e8e:	68fa      	ldr	r2, [r7, #12]
 8002e90:	6d12      	ldr	r2, [r2, #80]	; 0x50
 8002e92:	605a      	str	r2, [r3, #4]
 8002e94:	68fb      	ldr	r3, [r7, #12]
 8002e96:	6d5b      	ldr	r3, [r3, #84]	; 0x54
 8002e98:	2b00      	cmp	r3, #0
 8002e9a:	d004      	beq.n	8002ea6 <DMA_SetConfig+0x2a>
 8002e9c:	68fb      	ldr	r3, [r7, #12]
 8002e9e:	6d9b      	ldr	r3, [r3, #88]	; 0x58
 8002ea0:	68fa      	ldr	r2, [r7, #12]
 8002ea2:	6dd2      	ldr	r2, [r2, #92]	; 0x5c
 8002ea4:	605a      	str	r2, [r3, #4]
 8002ea6:	68fb      	ldr	r3, [r7, #12]
 8002ea8:	6c5b      	ldr	r3, [r3, #68]	; 0x44
 8002eaa:	f003 021f 	and.w	r2, r3, #31
 8002eae:	68fb      	ldr	r3, [r7, #12]
 8002eb0:	6c1b      	ldr	r3, [r3, #64]	; 0x40
 8002eb2:	2101      	movs	r1, #1
 8002eb4:	fa01 f202 	lsl.w	r2, r1, r2
 8002eb8:	605a      	str	r2, [r3, #4]
 8002eba:	68fb      	ldr	r3, [r7, #12]
 8002ebc:	681b      	ldr	r3, [r3, #0]
 8002ebe:	683a      	ldr	r2, [r7, #0]
 8002ec0:	605a      	str	r2, [r3, #4]
 8002ec2:	68fb      	ldr	r3, [r7, #12]
 8002ec4:	689b      	ldr	r3, [r3, #8]
 8002ec6:	2b10      	cmp	r3, #16
 8002ec8:	d108      	bne.n	8002edc <DMA_SetConfig+0x60>
 8002eca:	68fb      	ldr	r3, [r7, #12]
 8002ecc:	681b      	ldr	r3, [r3, #0]
 8002ece:	687a      	ldr	r2, [r7, #4]
 8002ed0:	609a      	str	r2, [r3, #8]
 8002ed2:	68fb      	ldr	r3, [r7, #12]
 8002ed4:	681b      	ldr	r3, [r3, #0]
 8002ed6:	68ba      	ldr	r2, [r7, #8]
 8002ed8:	60da      	str	r2, [r3, #12]
 8002eda:	e007      	b.n	8002eec <DMA_SetConfig+0x70>
 8002edc:	68fb      	ldr	r3, [r7, #12]
 8002ede:	681b      	ldr	r3, [r3, #0]
 8002ee0:	68ba      	ldr	r2, [r7, #8]
 8002ee2:	609a      	str	r2, [r3, #8]
 8002ee4:	68fb      	ldr	r3, [r7, #12]
 8002ee6:	681b      	ldr	r3, [r3, #0]
 8002ee8:	687a      	ldr	r2, [r7, #4]
 8002eea:	60da      	str	r2, [r3, #12]
 8002eec:	bf00      	nop
 8002eee:	3714      	adds	r7, #20
 8002ef0:	46bd      	mov	sp, r7
 8002ef2:	f85d 7b04 	ldr.w	r7, [sp], #4
 8002ef6:	4770      	bx	lr

08002ef8 <DMA_CalcDMAMUXChannelBaseAndMask>:
 8002ef8:	b480      	push	{r7}
 8002efa:	b087      	sub	sp, #28
 8002efc:	af00      	add	r7, sp, #0
 8002efe:	6078      	str	r0, [r7, #4]
 8002f00:	687b      	ldr	r3, [r7, #4]
 8002f02:	681b      	ldr	r3, [r3, #0]
 8002f04:	461a      	mov	r2, r3
 8002f06:	4b16      	ldr	r3, [pc, #88]	; (8002f60 <DMA_CalcDMAMUXChannelBaseAndMask+0x68>)
 8002f08:	429a      	cmp	r2, r3
 8002f0a:	d802      	bhi.n	8002f12 <DMA_CalcDMAMUXChannelBaseAndMask+0x1a>
 8002f0c:	4b15      	ldr	r3, [pc, #84]	; (8002f64 <DMA_CalcDMAMUXChannelBaseAndMask+0x6c>)
 8002f0e:	617b      	str	r3, [r7, #20]
 8002f10:	e001      	b.n	8002f16 <DMA_CalcDMAMUXChannelBaseAndMask+0x1e>
 8002f12:	4b15      	ldr	r3, [pc, #84]	; (8002f68 <DMA_CalcDMAMUXChannelBaseAndMask+0x70>)
 8002f14:	617b      	str	r3, [r7, #20]
 8002f16:	697b      	ldr	r3, [r7, #20]
 8002f18:	613b      	str	r3, [r7, #16]
 8002f1a:	687b      	ldr	r3, [r7, #4]
 8002f1c:	681b      	ldr	r3, [r3, #0]
 8002f1e:	b2db      	uxtb	r3, r3
 8002f20:	3b08      	subs	r3, #8
 8002f22:	4a12      	ldr	r2, [pc, #72]	; (8002f6c <DMA_CalcDMAMUXChannelBaseAndMask+0x74>)
 8002f24:	fba2 2303 	umull	r2, r3, r2, r3
 8002f28:	091b      	lsrs	r3, r3, #4
 8002f2a:	60fb      	str	r3, [r7, #12]
 8002f2c:	687b      	ldr	r3, [r7, #4]
 8002f2e:	6c5b      	ldr	r3, [r3, #68]	; 0x44
 8002f30:	089b      	lsrs	r3, r3, #2
 8002f32:	009a      	lsls	r2, r3, #2
 8002f34:	693b      	ldr	r3, [r7, #16]
 8002f36:	4413      	add	r3, r2
 8002f38:	461a      	mov	r2, r3
 8002f3a:	687b      	ldr	r3, [r7, #4]
 8002f3c:	649a      	str	r2, [r3, #72]	; 0x48
 8002f3e:	687b      	ldr	r3, [r7, #4]
 8002f40:	4a0b      	ldr	r2, [pc, #44]	; (8002f70 <DMA_CalcDMAMUXChannelBaseAndMask+0x78>)
 8002f42:	64da      	str	r2, [r3, #76]	; 0x4c
 8002f44:	68fb      	ldr	r3, [r7, #12]
 8002f46:	f003 031f 	and.w	r3, r3, #31
 8002f4a:	2201      	movs	r2, #1
 8002f4c:	409a      	lsls	r2, r3
 8002f4e:	687b      	ldr	r3, [r7, #4]
 8002f50:	651a      	str	r2, [r3, #80]	; 0x50
 8002f52:	bf00      	nop
 8002f54:	371c      	adds	r7, #28
 8002f56:	46bd      	mov	sp, r7
 8002f58:	f85d 7b04 	ldr.w	r7, [sp], #4
 8002f5c:	4770      	bx	lr
 8002f5e:	bf00      	nop
 8002f60:	40020407 	.word	0x40020407
 8002f64:	40020800 	.word	0x40020800
 8002f68:	40020820 	.word	0x40020820
 8002f6c:	cccccccd 	.word	0xcccccccd
 8002f70:	40020880 	.word	0x40020880

08002f74 <DMA_CalcDMAMUXRequestGenBaseAndMask>:
 8002f74:	b480      	push	{r7}
 8002f76:	b085      	sub	sp, #20
 8002f78:	af00      	add	r7, sp, #0
 8002f7a:	6078      	str	r0, [r7, #4]
 8002f7c:	687b      	ldr	r3, [r7, #4]
 8002f7e:	685b      	ldr	r3, [r3, #4]
 8002f80:	b2db      	uxtb	r3, r3
 8002f82:	60fb      	str	r3, [r7, #12]
 8002f84:	68fa      	ldr	r2, [r7, #12]
 8002f86:	4b0b      	ldr	r3, [pc, #44]	; (8002fb4 <DMA_CalcDMAMUXRequestGenBaseAndMask+0x40>)
 8002f88:	4413      	add	r3, r2
 8002f8a:	009b      	lsls	r3, r3, #2
 8002f8c:	461a      	mov	r2, r3
 8002f8e:	687b      	ldr	r3, [r7, #4]
 8002f90:	655a      	str	r2, [r3, #84]	; 0x54
 8002f92:	687b      	ldr	r3, [r7, #4]
 8002f94:	4a08      	ldr	r2, [pc, #32]	; (8002fb8 <DMA_CalcDMAMUXRequestGenBaseAndMask+0x44>)
 8002f96:	659a      	str	r2, [r3, #88]	; 0x58
 8002f98:	68fb      	ldr	r3, [r7, #12]
 8002f9a:	3b01      	subs	r3, #1
 8002f9c:	f003 031f 	and.w	r3, r3, #31
 8002fa0:	2201      	movs	r2, #1
 8002fa2:	409a      	lsls	r2, r3
 8002fa4:	687b      	ldr	r3, [r7, #4]
 8002fa6:	65da      	str	r2, [r3, #92]	; 0x5c
 8002fa8:	bf00      	nop
 8002faa:	3714      	adds	r7, #20
 8002fac:	46bd      	mov	sp, r7
 8002fae:	f85d 7b04 	ldr.w	r7, [sp], #4
 8002fb2:	4770      	bx	lr
 8002fb4:	1000823f 	.word	0x1000823f
 8002fb8:	40020940 	.word	0x40020940

08002fbc <HAL_GPIO_Init>:
 8002fbc:	b480      	push	{r7}
 8002fbe:	b087      	sub	sp, #28
 8002fc0:	af00      	add	r7, sp, #0
 8002fc2:	6078      	str	r0, [r7, #4]
 8002fc4:	6039      	str	r1, [r7, #0]
 8002fc6:	2300      	movs	r3, #0
 8002fc8:	617b      	str	r3, [r7, #20]
 8002fca:	e15a      	b.n	8003282 <HAL_GPIO_Init+0x2c6>
 8002fcc:	683b      	ldr	r3, [r7, #0]
 8002fce:	681a      	ldr	r2, [r3, #0]
 8002fd0:	2101      	movs	r1, #1
 8002fd2:	697b      	ldr	r3, [r7, #20]
 8002fd4:	fa01 f303 	lsl.w	r3, r1, r3
 8002fd8:	4013      	ands	r3, r2
 8002fda:	60fb      	str	r3, [r7, #12]
 8002fdc:	68fb      	ldr	r3, [r7, #12]
 8002fde:	2b00      	cmp	r3, #0
 8002fe0:	f000 814c 	beq.w	800327c <HAL_GPIO_Init+0x2c0>
 8002fe4:	683b      	ldr	r3, [r7, #0]
 8002fe6:	685b      	ldr	r3, [r3, #4]
 8002fe8:	2b01      	cmp	r3, #1
 8002fea:	d00b      	beq.n	8003004 <HAL_GPIO_Init+0x48>
 8002fec:	683b      	ldr	r3, [r7, #0]
 8002fee:	685b      	ldr	r3, [r3, #4]
 8002ff0:	2b02      	cmp	r3, #2
 8002ff2:	d007      	beq.n	8003004 <HAL_GPIO_Init+0x48>
 8002ff4:	683b      	ldr	r3, [r7, #0]
 8002ff6:	685b      	ldr	r3, [r3, #4]
 8002ff8:	2b11      	cmp	r3, #17
 8002ffa:	d003      	beq.n	8003004 <HAL_GPIO_Init+0x48>
 8002ffc:	683b      	ldr	r3, [r7, #0]
 8002ffe:	685b      	ldr	r3, [r3, #4]
 8003000:	2b12      	cmp	r3, #18
 8003002:	d130      	bne.n	8003066 <HAL_GPIO_Init+0xaa>
 8003004:	687b      	ldr	r3, [r7, #4]
 8003006:	689b      	ldr	r3, [r3, #8]
 8003008:	613b      	str	r3, [r7, #16]
 800300a:	697b      	ldr	r3, [r7, #20]
 800300c:	005b      	lsls	r3, r3, #1
 800300e:	2203      	movs	r2, #3
 8003010:	fa02 f303 	lsl.w	r3, r2, r3
 8003014:	43db      	mvns	r3, r3
 8003016:	693a      	ldr	r2, [r7, #16]
 8003018:	4013      	ands	r3, r2
 800301a:	613b      	str	r3, [r7, #16]
 800301c:	683b      	ldr	r3, [r7, #0]
 800301e:	68da      	ldr	r2, [r3, #12]
 8003020:	697b      	ldr	r3, [r7, #20]
 8003022:	005b      	lsls	r3, r3, #1
 8003024:	fa02 f303 	lsl.w	r3, r2, r3
 8003028:	693a      	ldr	r2, [r7, #16]
 800302a:	4313      	orrs	r3, r2
 800302c:	613b      	str	r3, [r7, #16]
 800302e:	687b      	ldr	r3, [r7, #4]
 8003030:	693a      	ldr	r2, [r7, #16]
 8003032:	609a      	str	r2, [r3, #8]
 8003034:	687b      	ldr	r3, [r7, #4]
 8003036:	685b      	ldr	r3, [r3, #4]
 8003038:	613b      	str	r3, [r7, #16]
 800303a:	2201      	movs	r2, #1
 800303c:	697b      	ldr	r3, [r7, #20]
 800303e:	fa02 f303 	lsl.w	r3, r2, r3
 8003042:	43db      	mvns	r3, r3
 8003044:	693a      	ldr	r2, [r7, #16]
 8003046:	4013      	ands	r3, r2
 8003048:	613b      	str	r3, [r7, #16]
 800304a:	683b      	ldr	r3, [r7, #0]
 800304c:	685b      	ldr	r3, [r3, #4]
 800304e:	091b      	lsrs	r3, r3, #4
 8003050:	f003 0201 	and.w	r2, r3, #1
 8003054:	697b      	ldr	r3, [r7, #20]
 8003056:	fa02 f303 	lsl.w	r3, r2, r3
 800305a:	693a      	ldr	r2, [r7, #16]
 800305c:	4313      	orrs	r3, r2
 800305e:	613b      	str	r3, [r7, #16]
 8003060:	687b      	ldr	r3, [r7, #4]
 8003062:	693a      	ldr	r2, [r7, #16]
 8003064:	605a      	str	r2, [r3, #4]
 8003066:	687b      	ldr	r3, [r7, #4]
 8003068:	68db      	ldr	r3, [r3, #12]
 800306a:	613b      	str	r3, [r7, #16]
 800306c:	697b      	ldr	r3, [r7, #20]
 800306e:	005b      	lsls	r3, r3, #1
 8003070:	2203      	movs	r2, #3
 8003072:	fa02 f303 	lsl.w	r3, r2, r3
 8003076:	43db      	mvns	r3, r3
 8003078:	693a      	ldr	r2, [r7, #16]
 800307a:	4013      	ands	r3, r2
 800307c:	613b      	str	r3, [r7, #16]
 800307e:	683b      	ldr	r3, [r7, #0]
 8003080:	689a      	ldr	r2, [r3, #8]
 8003082:	697b      	ldr	r3, [r7, #20]
 8003084:	005b      	lsls	r3, r3, #1
 8003086:	fa02 f303 	lsl.w	r3, r2, r3
 800308a:	693a      	ldr	r2, [r7, #16]
 800308c:	4313      	orrs	r3, r2
 800308e:	613b      	str	r3, [r7, #16]
 8003090:	687b      	ldr	r3, [r7, #4]
 8003092:	693a      	ldr	r2, [r7, #16]
 8003094:	60da      	str	r2, [r3, #12]
 8003096:	683b      	ldr	r3, [r7, #0]
 8003098:	685b      	ldr	r3, [r3, #4]
 800309a:	2b02      	cmp	r3, #2
 800309c:	d003      	beq.n	80030a6 <HAL_GPIO_Init+0xea>
 800309e:	683b      	ldr	r3, [r7, #0]
 80030a0:	685b      	ldr	r3, [r3, #4]
 80030a2:	2b12      	cmp	r3, #18
 80030a4:	d123      	bne.n	80030ee <HAL_GPIO_Init+0x132>
 80030a6:	697b      	ldr	r3, [r7, #20]
 80030a8:	08da      	lsrs	r2, r3, #3
 80030aa:	687b      	ldr	r3, [r7, #4]
 80030ac:	3208      	adds	r2, #8
 80030ae:	f853 3022 	ldr.w	r3, [r3, r2, lsl #2]
 80030b2:	613b      	str	r3, [r7, #16]
 80030b4:	697b      	ldr	r3, [r7, #20]
 80030b6:	f003 0307 	and.w	r3, r3, #7
 80030ba:	009b      	lsls	r3, r3, #2
 80030bc:	220f      	movs	r2, #15
 80030be:	fa02 f303 	lsl.w	r3, r2, r3
 80030c2:	43db      	mvns	r3, r3
 80030c4:	693a      	ldr	r2, [r7, #16]
 80030c6:	4013      	ands	r3, r2
 80030c8:	613b      	str	r3, [r7, #16]
 80030ca:	683b      	ldr	r3, [r7, #0]
 80030cc:	691a      	ldr	r2, [r3, #16]
 80030ce:	697b      	ldr	r3, [r7, #20]
 80030d0:	f003 0307 	and.w	r3, r3, #7
 80030d4:	009b      	lsls	r3, r3, #2
 80030d6:	fa02 f303 	lsl.w	r3, r2, r3
 80030da:	693a      	ldr	r2, [r7, #16]
 80030dc:	4313      	orrs	r3, r2
 80030de:	613b      	str	r3, [r7, #16]
 80030e0:	697b      	ldr	r3, [r7, #20]
 80030e2:	08da      	lsrs	r2, r3, #3
 80030e4:	687b      	ldr	r3, [r7, #4]
 80030e6:	3208      	adds	r2, #8
 80030e8:	6939      	ldr	r1, [r7, #16]
 80030ea:	f843 1022 	str.w	r1, [r3, r2, lsl #2]
 80030ee:	687b      	ldr	r3, [r7, #4]
 80030f0:	681b      	ldr	r3, [r3, #0]
 80030f2:	613b      	str	r3, [r7, #16]
 80030f4:	697b      	ldr	r3, [r7, #20]
 80030f6:	005b      	lsls	r3, r3, #1
 80030f8:	2203      	movs	r2, #3
 80030fa:	fa02 f303 	lsl.w	r3, r2, r3
 80030fe:	43db      	mvns	r3, r3
 8003100:	693a      	ldr	r2, [r7, #16]
 8003102:	4013      	ands	r3, r2
 8003104:	613b      	str	r3, [r7, #16]
 8003106:	683b      	ldr	r3, [r7, #0]
 8003108:	685b      	ldr	r3, [r3, #4]
 800310a:	f003 0203 	and.w	r2, r3, #3
 800310e:	697b      	ldr	r3, [r7, #20]
 8003110:	005b      	lsls	r3, r3, #1
 8003112:	fa02 f303 	lsl.w	r3, r2, r3
 8003116:	693a      	ldr	r2, [r7, #16]
 8003118:	4313      	orrs	r3, r2
 800311a:	613b      	str	r3, [r7, #16]
 800311c:	687b      	ldr	r3, [r7, #4]
 800311e:	693a      	ldr	r2, [r7, #16]
 8003120:	601a      	str	r2, [r3, #0]
 8003122:	683b      	ldr	r3, [r7, #0]
 8003124:	685b      	ldr	r3, [r3, #4]
 8003126:	f003 5380 	and.w	r3, r3, #268435456	; 0x10000000
 800312a:	2b00      	cmp	r3, #0
 800312c:	f000 80a6 	beq.w	800327c <HAL_GPIO_Init+0x2c0>
 8003130:	4b5b      	ldr	r3, [pc, #364]	; (80032a0 <HAL_GPIO_Init+0x2e4>)
 8003132:	6e1b      	ldr	r3, [r3, #96]	; 0x60
 8003134:	4a5a      	ldr	r2, [pc, #360]	; (80032a0 <HAL_GPIO_Init+0x2e4>)
 8003136:	f043 0301 	orr.w	r3, r3, #1
 800313a:	6613      	str	r3, [r2, #96]	; 0x60
 800313c:	4b58      	ldr	r3, [pc, #352]	; (80032a0 <HAL_GPIO_Init+0x2e4>)
 800313e:	6e1b      	ldr	r3, [r3, #96]	; 0x60
 8003140:	f003 0301 	and.w	r3, r3, #1
 8003144:	60bb      	str	r3, [r7, #8]
 8003146:	68bb      	ldr	r3, [r7, #8]
 8003148:	4a56      	ldr	r2, [pc, #344]	; (80032a4 <HAL_GPIO_Init+0x2e8>)
 800314a:	697b      	ldr	r3, [r7, #20]
 800314c:	089b      	lsrs	r3, r3, #2
 800314e:	3302      	adds	r3, #2
 8003150:	f852 3023 	ldr.w	r3, [r2, r3, lsl #2]
 8003154:	613b      	str	r3, [r7, #16]
 8003156:	697b      	ldr	r3, [r7, #20]
 8003158:	f003 0303 	and.w	r3, r3, #3
 800315c:	009b      	lsls	r3, r3, #2
 800315e:	220f      	movs	r2, #15
 8003160:	fa02 f303 	lsl.w	r3, r2, r3
 8003164:	43db      	mvns	r3, r3
 8003166:	693a      	ldr	r2, [r7, #16]
 8003168:	4013      	ands	r3, r2
 800316a:	613b      	str	r3, [r7, #16]
 800316c:	687b      	ldr	r3, [r7, #4]
 800316e:	f1b3 4f90 	cmp.w	r3, #1207959552	; 0x48000000
 8003172:	d01f      	beq.n	80031b4 <HAL_GPIO_Init+0x1f8>
 8003174:	687b      	ldr	r3, [r7, #4]
 8003176:	4a4c      	ldr	r2, [pc, #304]	; (80032a8 <HAL_GPIO_Init+0x2ec>)
 8003178:	4293      	cmp	r3, r2
 800317a:	d019      	beq.n	80031b0 <HAL_GPIO_Init+0x1f4>
 800317c:	687b      	ldr	r3, [r7, #4]
 800317e:	4a4b      	ldr	r2, [pc, #300]	; (80032ac <HAL_GPIO_Init+0x2f0>)
 8003180:	4293      	cmp	r3, r2
 8003182:	d013      	beq.n	80031ac <HAL_GPIO_Init+0x1f0>
 8003184:	687b      	ldr	r3, [r7, #4]
 8003186:	4a4a      	ldr	r2, [pc, #296]	; (80032b0 <HAL_GPIO_Init+0x2f4>)
 8003188:	4293      	cmp	r3, r2
 800318a:	d00d      	beq.n	80031a8 <HAL_GPIO_Init+0x1ec>
 800318c:	687b      	ldr	r3, [r7, #4]
 800318e:	4a49      	ldr	r2, [pc, #292]	; (80032b4 <HAL_GPIO_Init+0x2f8>)
 8003190:	4293      	cmp	r3, r2
 8003192:	d007      	beq.n	80031a4 <HAL_GPIO_Init+0x1e8>
 8003194:	687b      	ldr	r3, [r7, #4]
 8003196:	4a48      	ldr	r2, [pc, #288]	; (80032b8 <HAL_GPIO_Init+0x2fc>)
 8003198:	4293      	cmp	r3, r2
 800319a:	d101      	bne.n	80031a0 <HAL_GPIO_Init+0x1e4>
 800319c:	2305      	movs	r3, #5
 800319e:	e00a      	b.n	80031b6 <HAL_GPIO_Init+0x1fa>
 80031a0:	2306      	movs	r3, #6
 80031a2:	e008      	b.n	80031b6 <HAL_GPIO_Init+0x1fa>
 80031a4:	2304      	movs	r3, #4
 80031a6:	e006      	b.n	80031b6 <HAL_GPIO_Init+0x1fa>
 80031a8:	2303      	movs	r3, #3
 80031aa:	e004      	b.n	80031b6 <HAL_GPIO_Init+0x1fa>
 80031ac:	2302      	movs	r3, #2
 80031ae:	e002      	b.n	80031b6 <HAL_GPIO_Init+0x1fa>
 80031b0:	2301      	movs	r3, #1
 80031b2:	e000      	b.n	80031b6 <HAL_GPIO_Init+0x1fa>
 80031b4:	2300      	movs	r3, #0
 80031b6:	697a      	ldr	r2, [r7, #20]
 80031b8:	f002 0203 	and.w	r2, r2, #3
 80031bc:	0092      	lsls	r2, r2, #2
 80031be:	4093      	lsls	r3, r2
 80031c0:	693a      	ldr	r2, [r7, #16]
 80031c2:	4313      	orrs	r3, r2
 80031c4:	613b      	str	r3, [r7, #16]
 80031c6:	4937      	ldr	r1, [pc, #220]	; (80032a4 <HAL_GPIO_Init+0x2e8>)
 80031c8:	697b      	ldr	r3, [r7, #20]
 80031ca:	089b      	lsrs	r3, r3, #2
 80031cc:	3302      	adds	r3, #2
 80031ce:	693a      	ldr	r2, [r7, #16]
 80031d0:	f841 2023 	str.w	r2, [r1, r3, lsl #2]
 80031d4:	4b39      	ldr	r3, [pc, #228]	; (80032bc <HAL_GPIO_Init+0x300>)
 80031d6:	681b      	ldr	r3, [r3, #0]
 80031d8:	613b      	str	r3, [r7, #16]
 80031da:	68fb      	ldr	r3, [r7, #12]
 80031dc:	43db      	mvns	r3, r3
 80031de:	693a      	ldr	r2, [r7, #16]
 80031e0:	4013      	ands	r3, r2
 80031e2:	613b      	str	r3, [r7, #16]
 80031e4:	683b      	ldr	r3, [r7, #0]
 80031e6:	685b      	ldr	r3, [r3, #4]
 80031e8:	f403 3380 	and.w	r3, r3, #65536	; 0x10000
 80031ec:	2b00      	cmp	r3, #0
 80031ee:	d003      	beq.n	80031f8 <HAL_GPIO_Init+0x23c>
 80031f0:	693a      	ldr	r2, [r7, #16]
 80031f2:	68fb      	ldr	r3, [r7, #12]
 80031f4:	4313      	orrs	r3, r2
 80031f6:	613b      	str	r3, [r7, #16]
 80031f8:	4a30      	ldr	r2, [pc, #192]	; (80032bc <HAL_GPIO_Init+0x300>)
 80031fa:	693b      	ldr	r3, [r7, #16]
 80031fc:	6013      	str	r3, [r2, #0]
 80031fe:	4b2f      	ldr	r3, [pc, #188]	; (80032bc <HAL_GPIO_Init+0x300>)
 8003200:	685b      	ldr	r3, [r3, #4]
 8003202:	613b      	str	r3, [r7, #16]
 8003204:	68fb      	ldr	r3, [r7, #12]
 8003206:	43db      	mvns	r3, r3
 8003208:	693a      	ldr	r2, [r7, #16]
 800320a:	4013      	ands	r3, r2
 800320c:	613b      	str	r3, [r7, #16]
 800320e:	683b      	ldr	r3, [r7, #0]
 8003210:	685b      	ldr	r3, [r3, #4]
 8003212:	f403 3300 	and.w	r3, r3, #131072	; 0x20000
 8003216:	2b00      	cmp	r3, #0
 8003218:	d003      	beq.n	8003222 <HAL_GPIO_Init+0x266>
 800321a:	693a      	ldr	r2, [r7, #16]
 800321c:	68fb      	ldr	r3, [r7, #12]
 800321e:	4313      	orrs	r3, r2
 8003220:	613b      	str	r3, [r7, #16]
 8003222:	4a26      	ldr	r2, [pc, #152]	; (80032bc <HAL_GPIO_Init+0x300>)
 8003224:	693b      	ldr	r3, [r7, #16]
 8003226:	6053      	str	r3, [r2, #4]
 8003228:	4b24      	ldr	r3, [pc, #144]	; (80032bc <HAL_GPIO_Init+0x300>)
 800322a:	689b      	ldr	r3, [r3, #8]
 800322c:	613b      	str	r3, [r7, #16]
 800322e:	68fb      	ldr	r3, [r7, #12]
 8003230:	43db      	mvns	r3, r3
 8003232:	693a      	ldr	r2, [r7, #16]
 8003234:	4013      	ands	r3, r2
 8003236:	613b      	str	r3, [r7, #16]
 8003238:	683b      	ldr	r3, [r7, #0]
 800323a:	685b      	ldr	r3, [r3, #4]
 800323c:	f403 1380 	and.w	r3, r3, #1048576	; 0x100000
 8003240:	2b00      	cmp	r3, #0
 8003242:	d003      	beq.n	800324c <HAL_GPIO_Init+0x290>
 8003244:	693a      	ldr	r2, [r7, #16]
 8003246:	68fb      	ldr	r3, [r7, #12]
 8003248:	4313      	orrs	r3, r2
 800324a:	613b      	str	r3, [r7, #16]
 800324c:	4a1b      	ldr	r2, [pc, #108]	; (80032bc <HAL_GPIO_Init+0x300>)
 800324e:	693b      	ldr	r3, [r7, #16]
 8003250:	6093      	str	r3, [r2, #8]
 8003252:	4b1a      	ldr	r3, [pc, #104]	; (80032bc <HAL_GPIO_Init+0x300>)
 8003254:	68db      	ldr	r3, [r3, #12]
 8003256:	613b      	str	r3, [r7, #16]
 8003258:	68fb      	ldr	r3, [r7, #12]
 800325a:	43db      	mvns	r3, r3
 800325c:	693a      	ldr	r2, [r7, #16]
 800325e:	4013      	ands	r3, r2
 8003260:	613b      	str	r3, [r7, #16]
 8003262:	683b      	ldr	r3, [r7, #0]
 8003264:	685b      	ldr	r3, [r3, #4]
 8003266:	f403 1300 	and.w	r3, r3, #2097152	; 0x200000
 800326a:	2b00      	cmp	r3, #0
 800326c:	d003      	beq.n	8003276 <HAL_GPIO_Init+0x2ba>
 800326e:	693a      	ldr	r2, [r7, #16]
 8003270:	68fb      	ldr	r3, [r7, #12]
 8003272:	4313      	orrs	r3, r2
 8003274:	613b      	str	r3, [r7, #16]
 8003276:	4a11      	ldr	r2, [pc, #68]	; (80032bc <HAL_GPIO_Init+0x300>)
 8003278:	693b      	ldr	r3, [r7, #16]
 800327a:	60d3      	str	r3, [r2, #12]
 800327c:	697b      	ldr	r3, [r7, #20]
 800327e:	3301      	adds	r3, #1
 8003280:	617b      	str	r3, [r7, #20]
 8003282:	683b      	ldr	r3, [r7, #0]
 8003284:	681a      	ldr	r2, [r3, #0]
 8003286:	697b      	ldr	r3, [r7, #20]
 8003288:	fa22 f303 	lsr.w	r3, r2, r3
 800328c:	2b00      	cmp	r3, #0
 800328e:	f47f ae9d 	bne.w	8002fcc <HAL_GPIO_Init+0x10>
 8003292:	bf00      	nop
 8003294:	bf00      	nop
 8003296:	371c      	adds	r7, #28
 8003298:	46bd      	mov	sp, r7
 800329a:	f85d 7b04 	ldr.w	r7, [sp], #4
 800329e:	4770      	bx	lr
 80032a0:	40021000 	.word	0x40021000
 80032a4:	40010000 	.word	0x40010000
 80032a8:	48000400 	.word	0x48000400
 80032ac:	48000800 	.word	0x48000800
 80032b0:	48000c00 	.word	0x48000c00
 80032b4:	48001000 	.word	0x48001000
 80032b8:	48001400 	.word	0x48001400
 80032bc:	40010400 	.word	0x40010400

080032c0 <HAL_GPIO_WritePin>:
 80032c0:	b480      	push	{r7}
 80032c2:	b083      	sub	sp, #12
 80032c4:	af00      	add	r7, sp, #0
 80032c6:	6078      	str	r0, [r7, #4]
 80032c8:	460b      	mov	r3, r1
 80032ca:	807b      	strh	r3, [r7, #2]
 80032cc:	4613      	mov	r3, r2
 80032ce:	707b      	strb	r3, [r7, #1]
 80032d0:	787b      	ldrb	r3, [r7, #1]
 80032d2:	2b00      	cmp	r3, #0
 80032d4:	d003      	beq.n	80032de <HAL_GPIO_WritePin+0x1e>
 80032d6:	887a      	ldrh	r2, [r7, #2]
 80032d8:	687b      	ldr	r3, [r7, #4]
 80032da:	619a      	str	r2, [r3, #24]
 80032dc:	e002      	b.n	80032e4 <HAL_GPIO_WritePin+0x24>
 80032de:	887a      	ldrh	r2, [r7, #2]
 80032e0:	687b      	ldr	r3, [r7, #4]
 80032e2:	629a      	str	r2, [r3, #40]	; 0x28
 80032e4:	bf00      	nop
 80032e6:	370c      	adds	r7, #12
 80032e8:	46bd      	mov	sp, r7
 80032ea:	f85d 7b04 	ldr.w	r7, [sp], #4
 80032ee:	4770      	bx	lr

080032f0 <HAL_GPIO_TogglePin>:
 80032f0:	b480      	push	{r7}
 80032f2:	b085      	sub	sp, #20
 80032f4:	af00      	add	r7, sp, #0
 80032f6:	6078      	str	r0, [r7, #4]
 80032f8:	460b      	mov	r3, r1
 80032fa:	807b      	strh	r3, [r7, #2]
 80032fc:	687b      	ldr	r3, [r7, #4]
 80032fe:	695b      	ldr	r3, [r3, #20]
 8003300:	60fb      	str	r3, [r7, #12]
 8003302:	887a      	ldrh	r2, [r7, #2]
 8003304:	68fb      	ldr	r3, [r7, #12]
 8003306:	4013      	ands	r3, r2
 8003308:	041a      	lsls	r2, r3, #16
 800330a:	68fb      	ldr	r3, [r7, #12]
 800330c:	43d9      	mvns	r1, r3
 800330e:	887b      	ldrh	r3, [r7, #2]
 8003310:	400b      	ands	r3, r1
 8003312:	431a      	orrs	r2, r3
 8003314:	687b      	ldr	r3, [r7, #4]
 8003316:	619a      	str	r2, [r3, #24]
 8003318:	bf00      	nop
 800331a:	3714      	adds	r7, #20
 800331c:	46bd      	mov	sp, r7
 800331e:	f85d 7b04 	ldr.w	r7, [sp], #4
 8003322:	4770      	bx	lr

08003324 <HAL_GPIO_EXTI_IRQHandler>:
 8003324:	b580      	push	{r7, lr}
 8003326:	b082      	sub	sp, #8
 8003328:	af00      	add	r7, sp, #0
 800332a:	4603      	mov	r3, r0
 800332c:	80fb      	strh	r3, [r7, #6]
 800332e:	4b08      	ldr	r3, [pc, #32]	; (8003350 <HAL_GPIO_EXTI_IRQHandler+0x2c>)
 8003330:	695a      	ldr	r2, [r3, #20]
 8003332:	88fb      	ldrh	r3, [r7, #6]
 8003334:	4013      	ands	r3, r2
 8003336:	2b00      	cmp	r3, #0
 8003338:	d006      	beq.n	8003348 <HAL_GPIO_EXTI_IRQHandler+0x24>
 800333a:	4a05      	ldr	r2, [pc, #20]	; (8003350 <HAL_GPIO_EXTI_IRQHandler+0x2c>)
 800333c:	88fb      	ldrh	r3, [r7, #6]
 800333e:	6153      	str	r3, [r2, #20]
 8003340:	88fb      	ldrh	r3, [r7, #6]
 8003342:	4618      	mov	r0, r3
 8003344:	f000 f806 	bl	8003354 <HAL_GPIO_EXTI_Callback>
 8003348:	bf00      	nop
 800334a:	3708      	adds	r7, #8
 800334c:	46bd      	mov	sp, r7
 800334e:	bd80      	pop	{r7, pc}
 8003350:	40010400 	.word	0x40010400

08003354 <HAL_GPIO_EXTI_Callback>:
 8003354:	b480      	push	{r7}
 8003356:	b083      	sub	sp, #12
 8003358:	af00      	add	r7, sp, #0
 800335a:	4603      	mov	r3, r0
 800335c:	80fb      	strh	r3, [r7, #6]
 800335e:	bf00      	nop
 8003360:	370c      	adds	r7, #12
 8003362:	46bd      	mov	sp, r7
 8003364:	f85d 7b04 	ldr.w	r7, [sp], #4
 8003368:	4770      	bx	lr
	...

0800336c <HAL_PWREx_ControlVoltageScaling>:
 800336c:	b480      	push	{r7}
 800336e:	b085      	sub	sp, #20
 8003370:	af00      	add	r7, sp, #0
 8003372:	6078      	str	r0, [r7, #4]
 8003374:	687b      	ldr	r3, [r7, #4]
 8003376:	2b00      	cmp	r3, #0
 8003378:	d141      	bne.n	80033fe <HAL_PWREx_ControlVoltageScaling+0x92>
 800337a:	4b4b      	ldr	r3, [pc, #300]	; (80034a8 <HAL_PWREx_ControlVoltageScaling+0x13c>)
 800337c:	681b      	ldr	r3, [r3, #0]
 800337e:	f403 63c0 	and.w	r3, r3, #1536	; 0x600
 8003382:	f5b3 6f80 	cmp.w	r3, #1024	; 0x400
 8003386:	d131      	bne.n	80033ec <HAL_PWREx_ControlVoltageScaling+0x80>
 8003388:	4b47      	ldr	r3, [pc, #284]	; (80034a8 <HAL_PWREx_ControlVoltageScaling+0x13c>)
 800338a:	f8d3 3080 	ldr.w	r3, [r3, #128]	; 0x80
 800338e:	4a46      	ldr	r2, [pc, #280]	; (80034a8 <HAL_PWREx_ControlVoltageScaling+0x13c>)
 8003390:	f423 7380 	bic.w	r3, r3, #256	; 0x100
 8003394:	f8c2 3080 	str.w	r3, [r2, #128]	; 0x80
 8003398:	4b43      	ldr	r3, [pc, #268]	; (80034a8 <HAL_PWREx_ControlVoltageScaling+0x13c>)
 800339a:	681b      	ldr	r3, [r3, #0]
 800339c:	f423 63c0 	bic.w	r3, r3, #1536	; 0x600
 80033a0:	4a41      	ldr	r2, [pc, #260]	; (80034a8 <HAL_PWREx_ControlVoltageScaling+0x13c>)
 80033a2:	f443 7300 	orr.w	r3, r3, #512	; 0x200
 80033a6:	6013      	str	r3, [r2, #0]
 80033a8:	4b40      	ldr	r3, [pc, #256]	; (80034ac <HAL_PWREx_ControlVoltageScaling+0x140>)
 80033aa:	681b      	ldr	r3, [r3, #0]
 80033ac:	2232      	movs	r2, #50	; 0x32
 80033ae:	fb02 f303 	mul.w	r3, r2, r3
 80033b2:	4a3f      	ldr	r2, [pc, #252]	; (80034b0 <HAL_PWREx_ControlVoltageScaling+0x144>)
 80033b4:	fba2 2303 	umull	r2, r3, r2, r3
 80033b8:	0c9b      	lsrs	r3, r3, #18
 80033ba:	3301      	adds	r3, #1
 80033bc:	60fb      	str	r3, [r7, #12]
 80033be:	e002      	b.n	80033c6 <HAL_PWREx_ControlVoltageScaling+0x5a>
 80033c0:	68fb      	ldr	r3, [r7, #12]
 80033c2:	3b01      	subs	r3, #1
 80033c4:	60fb      	str	r3, [r7, #12]
 80033c6:	4b38      	ldr	r3, [pc, #224]	; (80034a8 <HAL_PWREx_ControlVoltageScaling+0x13c>)
 80033c8:	695b      	ldr	r3, [r3, #20]
 80033ca:	f403 6380 	and.w	r3, r3, #1024	; 0x400
 80033ce:	f5b3 6f80 	cmp.w	r3, #1024	; 0x400
 80033d2:	d102      	bne.n	80033da <HAL_PWREx_ControlVoltageScaling+0x6e>
 80033d4:	68fb      	ldr	r3, [r7, #12]
 80033d6:	2b00      	cmp	r3, #0
 80033d8:	d1f2      	bne.n	80033c0 <HAL_PWREx_ControlVoltageScaling+0x54>
 80033da:	4b33      	ldr	r3, [pc, #204]	; (80034a8 <HAL_PWREx_ControlVoltageScaling+0x13c>)
 80033dc:	695b      	ldr	r3, [r3, #20]
 80033de:	f403 6380 	and.w	r3, r3, #1024	; 0x400
 80033e2:	f5b3 6f80 	cmp.w	r3, #1024	; 0x400
 80033e6:	d158      	bne.n	800349a <HAL_PWREx_ControlVoltageScaling+0x12e>
 80033e8:	2303      	movs	r3, #3
 80033ea:	e057      	b.n	800349c <HAL_PWREx_ControlVoltageScaling+0x130>
 80033ec:	4b2e      	ldr	r3, [pc, #184]	; (80034a8 <HAL_PWREx_ControlVoltageScaling+0x13c>)
 80033ee:	f8d3 3080 	ldr.w	r3, [r3, #128]	; 0x80
 80033f2:	4a2d      	ldr	r2, [pc, #180]	; (80034a8 <HAL_PWREx_ControlVoltageScaling+0x13c>)
 80033f4:	f423 7380 	bic.w	r3, r3, #256	; 0x100
 80033f8:	f8c2 3080 	str.w	r3, [r2, #128]	; 0x80
 80033fc:	e04d      	b.n	800349a <HAL_PWREx_ControlVoltageScaling+0x12e>
 80033fe:	687b      	ldr	r3, [r7, #4]
 8003400:	f5b3 7f00 	cmp.w	r3, #512	; 0x200
 8003404:	d141      	bne.n	800348a <HAL_PWREx_ControlVoltageScaling+0x11e>
 8003406:	4b28      	ldr	r3, [pc, #160]	; (80034a8 <HAL_PWREx_ControlVoltageScaling+0x13c>)
 8003408:	681b      	ldr	r3, [r3, #0]
 800340a:	f403 63c0 	and.w	r3, r3, #1536	; 0x600
 800340e:	f5b3 6f80 	cmp.w	r3, #1024	; 0x400
 8003412:	d131      	bne.n	8003478 <HAL_PWREx_ControlVoltageScaling+0x10c>
 8003414:	4b24      	ldr	r3, [pc, #144]	; (80034a8 <HAL_PWREx_ControlVoltageScaling+0x13c>)
 8003416:	f8d3 3080 	ldr.w	r3, [r3, #128]	; 0x80
 800341a:	4a23      	ldr	r2, [pc, #140]	; (80034a8 <HAL_PWREx_ControlVoltageScaling+0x13c>)
 800341c:	f443 7380 	orr.w	r3, r3, #256	; 0x100
 8003420:	f8c2 3080 	str.w	r3, [r2, #128]	; 0x80
 8003424:	4b20      	ldr	r3, [pc, #128]	; (80034a8 <HAL_PWREx_ControlVoltageScaling+0x13c>)
 8003426:	681b      	ldr	r3, [r3, #0]
 8003428:	f423 63c0 	bic.w	r3, r3, #1536	; 0x600
 800342c:	4a1e      	ldr	r2, [pc, #120]	; (80034a8 <HAL_PWREx_ControlVoltageScaling+0x13c>)
 800342e:	f443 7300 	orr.w	r3, r3, #512	; 0x200
 8003432:	6013      	str	r3, [r2, #0]
 8003434:	4b1d      	ldr	r3, [pc, #116]	; (80034ac <HAL_PWREx_ControlVoltageScaling+0x140>)
 8003436:	681b      	ldr	r3, [r3, #0]
 8003438:	2232      	movs	r2, #50	; 0x32
 800343a:	fb02 f303 	mul.w	r3, r2, r3
 800343e:	4a1c      	ldr	r2, [pc, #112]	; (80034b0 <HAL_PWREx_ControlVoltageScaling+0x144>)
 8003440:	fba2 2303 	umull	r2, r3, r2, r3
 8003444:	0c9b      	lsrs	r3, r3, #18
 8003446:	3301      	adds	r3, #1
 8003448:	60fb      	str	r3, [r7, #12]
 800344a:	e002      	b.n	8003452 <HAL_PWREx_ControlVoltageScaling+0xe6>
 800344c:	68fb      	ldr	r3, [r7, #12]
 800344e:	3b01      	subs	r3, #1
 8003450:	60fb      	str	r3, [r7, #12]
 8003452:	4b15      	ldr	r3, [pc, #84]	; (80034a8 <HAL_PWREx_ControlVoltageScaling+0x13c>)
 8003454:	695b      	ldr	r3, [r3, #20]
 8003456:	f403 6380 	and.w	r3, r3, #1024	; 0x400
 800345a:	f5b3 6f80 	cmp.w	r3, #1024	; 0x400
 800345e:	d102      	bne.n	8003466 <HAL_PWREx_ControlVoltageScaling+0xfa>
 8003460:	68fb      	ldr	r3, [r7, #12]
 8003462:	2b00      	cmp	r3, #0
 8003464:	d1f2      	bne.n	800344c <HAL_PWREx_ControlVoltageScaling+0xe0>
 8003466:	4b10      	ldr	r3, [pc, #64]	; (80034a8 <HAL_PWREx_ControlVoltageScaling+0x13c>)
 8003468:	695b      	ldr	r3, [r3, #20]
 800346a:	f403 6380 	and.w	r3, r3, #1024	; 0x400
 800346e:	f5b3 6f80 	cmp.w	r3, #1024	; 0x400
 8003472:	d112      	bne.n	800349a <HAL_PWREx_ControlVoltageScaling+0x12e>
 8003474:	2303      	movs	r3, #3
 8003476:	e011      	b.n	800349c <HAL_PWREx_ControlVoltageScaling+0x130>
 8003478:	4b0b      	ldr	r3, [pc, #44]	; (80034a8 <HAL_PWREx_ControlVoltageScaling+0x13c>)
 800347a:	f8d3 3080 	ldr.w	r3, [r3, #128]	; 0x80
 800347e:	4a0a      	ldr	r2, [pc, #40]	; (80034a8 <HAL_PWREx_ControlVoltageScaling+0x13c>)
 8003480:	f443 7380 	orr.w	r3, r3, #256	; 0x100
 8003484:	f8c2 3080 	str.w	r3, [r2, #128]	; 0x80
 8003488:	e007      	b.n	800349a <HAL_PWREx_ControlVoltageScaling+0x12e>
 800348a:	4b07      	ldr	r3, [pc, #28]	; (80034a8 <HAL_PWREx_ControlVoltageScaling+0x13c>)
 800348c:	681b      	ldr	r3, [r3, #0]
 800348e:	f423 63c0 	bic.w	r3, r3, #1536	; 0x600
 8003492:	4a05      	ldr	r2, [pc, #20]	; (80034a8 <HAL_PWREx_ControlVoltageScaling+0x13c>)
 8003494:	f443 6380 	orr.w	r3, r3, #1024	; 0x400
 8003498:	6013      	str	r3, [r2, #0]
 800349a:	2300      	movs	r3, #0
 800349c:	4618      	mov	r0, r3
 800349e:	3714      	adds	r7, #20
 80034a0:	46bd      	mov	sp, r7
 80034a2:	f85d 7b04 	ldr.w	r7, [sp], #4
 80034a6:	4770      	bx	lr
 80034a8:	40007000 	.word	0x40007000
 80034ac:	2000000c 	.word	0x2000000c
 80034b0:	431bde83 	.word	0x431bde83

080034b4 <HAL_PWREx_DisableUCPDDeadBattery>:
 80034b4:	b480      	push	{r7}
 80034b6:	af00      	add	r7, sp, #0
 80034b8:	4b05      	ldr	r3, [pc, #20]	; (80034d0 <HAL_PWREx_DisableUCPDDeadBattery+0x1c>)
 80034ba:	689b      	ldr	r3, [r3, #8]
 80034bc:	4a04      	ldr	r2, [pc, #16]	; (80034d0 <HAL_PWREx_DisableUCPDDeadBattery+0x1c>)
 80034be:	f443 4380 	orr.w	r3, r3, #16384	; 0x4000
 80034c2:	6093      	str	r3, [r2, #8]
 80034c4:	bf00      	nop
 80034c6:	46bd      	mov	sp, r7
 80034c8:	f85d 7b04 	ldr.w	r7, [sp], #4
 80034cc:	4770      	bx	lr
 80034ce:	bf00      	nop
 80034d0:	40007000 	.word	0x40007000

080034d4 <HAL_RCC_OscConfig>:
 80034d4:	b580      	push	{r7, lr}
 80034d6:	b088      	sub	sp, #32
 80034d8:	af00      	add	r7, sp, #0
 80034da:	6078      	str	r0, [r7, #4]
 80034dc:	687b      	ldr	r3, [r7, #4]
 80034de:	2b00      	cmp	r3, #0
 80034e0:	d101      	bne.n	80034e6 <HAL_RCC_OscConfig+0x12>
 80034e2:	2301      	movs	r3, #1
 80034e4:	e308      	b.n	8003af8 <HAL_RCC_OscConfig+0x624>
 80034e6:	687b      	ldr	r3, [r7, #4]
 80034e8:	681b      	ldr	r3, [r3, #0]
 80034ea:	f003 0301 	and.w	r3, r3, #1
 80034ee:	2b00      	cmp	r3, #0
 80034f0:	d075      	beq.n	80035de <HAL_RCC_OscConfig+0x10a>
 80034f2:	4ba3      	ldr	r3, [pc, #652]	; (8003780 <HAL_RCC_OscConfig+0x2ac>)
 80034f4:	689b      	ldr	r3, [r3, #8]
 80034f6:	f003 030c 	and.w	r3, r3, #12
 80034fa:	61bb      	str	r3, [r7, #24]
 80034fc:	4ba0      	ldr	r3, [pc, #640]	; (8003780 <HAL_RCC_OscConfig+0x2ac>)
 80034fe:	68db      	ldr	r3, [r3, #12]
 8003500:	f003 0303 	and.w	r3, r3, #3
 8003504:	617b      	str	r3, [r7, #20]
 8003506:	69bb      	ldr	r3, [r7, #24]
 8003508:	2b0c      	cmp	r3, #12
 800350a:	d102      	bne.n	8003512 <HAL_RCC_OscConfig+0x3e>
 800350c:	697b      	ldr	r3, [r7, #20]
 800350e:	2b03      	cmp	r3, #3
 8003510:	d002      	beq.n	8003518 <HAL_RCC_OscConfig+0x44>
 8003512:	69bb      	ldr	r3, [r7, #24]
 8003514:	2b08      	cmp	r3, #8
 8003516:	d10b      	bne.n	8003530 <HAL_RCC_OscConfig+0x5c>
 8003518:	4b99      	ldr	r3, [pc, #612]	; (8003780 <HAL_RCC_OscConfig+0x2ac>)
 800351a:	681b      	ldr	r3, [r3, #0]
 800351c:	f403 3300 	and.w	r3, r3, #131072	; 0x20000
 8003520:	2b00      	cmp	r3, #0
 8003522:	d05b      	beq.n	80035dc <HAL_RCC_OscConfig+0x108>
 8003524:	687b      	ldr	r3, [r7, #4]
 8003526:	685b      	ldr	r3, [r3, #4]
 8003528:	2b00      	cmp	r3, #0
 800352a:	d157      	bne.n	80035dc <HAL_RCC_OscConfig+0x108>
 800352c:	2301      	movs	r3, #1
 800352e:	e2e3      	b.n	8003af8 <HAL_RCC_OscConfig+0x624>
 8003530:	687b      	ldr	r3, [r7, #4]
 8003532:	685b      	ldr	r3, [r3, #4]
 8003534:	f5b3 3f80 	cmp.w	r3, #65536	; 0x10000
 8003538:	d106      	bne.n	8003548 <HAL_RCC_OscConfig+0x74>
 800353a:	4b91      	ldr	r3, [pc, #580]	; (8003780 <HAL_RCC_OscConfig+0x2ac>)
 800353c:	681b      	ldr	r3, [r3, #0]
 800353e:	4a90      	ldr	r2, [pc, #576]	; (8003780 <HAL_RCC_OscConfig+0x2ac>)
 8003540:	f443 3380 	orr.w	r3, r3, #65536	; 0x10000
 8003544:	6013      	str	r3, [r2, #0]
 8003546:	e01d      	b.n	8003584 <HAL_RCC_OscConfig+0xb0>
 8003548:	687b      	ldr	r3, [r7, #4]
 800354a:	685b      	ldr	r3, [r3, #4]
 800354c:	f5b3 2fa0 	cmp.w	r3, #327680	; 0x50000
 8003550:	d10c      	bne.n	800356c <HAL_RCC_OscConfig+0x98>
 8003552:	4b8b      	ldr	r3, [pc, #556]	; (8003780 <HAL_RCC_OscConfig+0x2ac>)
 8003554:	681b      	ldr	r3, [r3, #0]
 8003556:	4a8a      	ldr	r2, [pc, #552]	; (8003780 <HAL_RCC_OscConfig+0x2ac>)
 8003558:	f443 2380 	orr.w	r3, r3, #262144	; 0x40000
 800355c:	6013      	str	r3, [r2, #0]
 800355e:	4b88      	ldr	r3, [pc, #544]	; (8003780 <HAL_RCC_OscConfig+0x2ac>)
 8003560:	681b      	ldr	r3, [r3, #0]
 8003562:	4a87      	ldr	r2, [pc, #540]	; (8003780 <HAL_RCC_OscConfig+0x2ac>)
 8003564:	f443 3380 	orr.w	r3, r3, #65536	; 0x10000
 8003568:	6013      	str	r3, [r2, #0]
 800356a:	e00b      	b.n	8003584 <HAL_RCC_OscConfig+0xb0>
 800356c:	4b84      	ldr	r3, [pc, #528]	; (8003780 <HAL_RCC_OscConfig+0x2ac>)
 800356e:	681b      	ldr	r3, [r3, #0]
 8003570:	4a83      	ldr	r2, [pc, #524]	; (8003780 <HAL_RCC_OscConfig+0x2ac>)
 8003572:	f423 3380 	bic.w	r3, r3, #65536	; 0x10000
 8003576:	6013      	str	r3, [r2, #0]
 8003578:	4b81      	ldr	r3, [pc, #516]	; (8003780 <HAL_RCC_OscConfig+0x2ac>)
 800357a:	681b      	ldr	r3, [r3, #0]
 800357c:	4a80      	ldr	r2, [pc, #512]	; (8003780 <HAL_RCC_OscConfig+0x2ac>)
 800357e:	f423 2380 	bic.w	r3, r3, #262144	; 0x40000
 8003582:	6013      	str	r3, [r2, #0]
 8003584:	687b      	ldr	r3, [r7, #4]
 8003586:	685b      	ldr	r3, [r3, #4]
 8003588:	2b00      	cmp	r3, #0
 800358a:	d013      	beq.n	80035b4 <HAL_RCC_OscConfig+0xe0>
 800358c:	f7fd fd80 	bl	8001090 <HAL_GetTick>
 8003590:	6138      	str	r0, [r7, #16]
 8003592:	e008      	b.n	80035a6 <HAL_RCC_OscConfig+0xd2>
 8003594:	f7fd fd7c 	bl	8001090 <HAL_GetTick>
 8003598:	4602      	mov	r2, r0
 800359a:	693b      	ldr	r3, [r7, #16]
 800359c:	1ad3      	subs	r3, r2, r3
 800359e:	2b64      	cmp	r3, #100	; 0x64
 80035a0:	d901      	bls.n	80035a6 <HAL_RCC_OscConfig+0xd2>
 80035a2:	2303      	movs	r3, #3
 80035a4:	e2a8      	b.n	8003af8 <HAL_RCC_OscConfig+0x624>
 80035a6:	4b76      	ldr	r3, [pc, #472]	; (8003780 <HAL_RCC_OscConfig+0x2ac>)
 80035a8:	681b      	ldr	r3, [r3, #0]
 80035aa:	f403 3300 	and.w	r3, r3, #131072	; 0x20000
 80035ae:	2b00      	cmp	r3, #0
 80035b0:	d0f0      	beq.n	8003594 <HAL_RCC_OscConfig+0xc0>
 80035b2:	e014      	b.n	80035de <HAL_RCC_OscConfig+0x10a>
 80035b4:	f7fd fd6c 	bl	8001090 <HAL_GetTick>
 80035b8:	6138      	str	r0, [r7, #16]
 80035ba:	e008      	b.n	80035ce <HAL_RCC_OscConfig+0xfa>
 80035bc:	f7fd fd68 	bl	8001090 <HAL_GetTick>
 80035c0:	4602      	mov	r2, r0
 80035c2:	693b      	ldr	r3, [r7, #16]
 80035c4:	1ad3      	subs	r3, r2, r3
 80035c6:	2b64      	cmp	r3, #100	; 0x64
 80035c8:	d901      	bls.n	80035ce <HAL_RCC_OscConfig+0xfa>
 80035ca:	2303      	movs	r3, #3
 80035cc:	e294      	b.n	8003af8 <HAL_RCC_OscConfig+0x624>
 80035ce:	4b6c      	ldr	r3, [pc, #432]	; (8003780 <HAL_RCC_OscConfig+0x2ac>)
 80035d0:	681b      	ldr	r3, [r3, #0]
 80035d2:	f403 3300 	and.w	r3, r3, #131072	; 0x20000
 80035d6:	2b00      	cmp	r3, #0
 80035d8:	d1f0      	bne.n	80035bc <HAL_RCC_OscConfig+0xe8>
 80035da:	e000      	b.n	80035de <HAL_RCC_OscConfig+0x10a>
 80035dc:	bf00      	nop
 80035de:	687b      	ldr	r3, [r7, #4]
 80035e0:	681b      	ldr	r3, [r3, #0]
 80035e2:	f003 0302 	and.w	r3, r3, #2
 80035e6:	2b00      	cmp	r3, #0
 80035e8:	d075      	beq.n	80036d6 <HAL_RCC_OscConfig+0x202>
 80035ea:	4b65      	ldr	r3, [pc, #404]	; (8003780 <HAL_RCC_OscConfig+0x2ac>)
 80035ec:	689b      	ldr	r3, [r3, #8]
 80035ee:	f003 030c 	and.w	r3, r3, #12
 80035f2:	61bb      	str	r3, [r7, #24]
 80035f4:	4b62      	ldr	r3, [pc, #392]	; (8003780 <HAL_RCC_OscConfig+0x2ac>)
 80035f6:	68db      	ldr	r3, [r3, #12]
 80035f8:	f003 0303 	and.w	r3, r3, #3
 80035fc:	617b      	str	r3, [r7, #20]
 80035fe:	69bb      	ldr	r3, [r7, #24]
 8003600:	2b0c      	cmp	r3, #12
 8003602:	d102      	bne.n	800360a <HAL_RCC_OscConfig+0x136>
 8003604:	697b      	ldr	r3, [r7, #20]
 8003606:	2b02      	cmp	r3, #2
 8003608:	d002      	beq.n	8003610 <HAL_RCC_OscConfig+0x13c>
 800360a:	69bb      	ldr	r3, [r7, #24]
 800360c:	2b04      	cmp	r3, #4
 800360e:	d11f      	bne.n	8003650 <HAL_RCC_OscConfig+0x17c>
 8003610:	4b5b      	ldr	r3, [pc, #364]	; (8003780 <HAL_RCC_OscConfig+0x2ac>)
 8003612:	681b      	ldr	r3, [r3, #0]
 8003614:	f403 6380 	and.w	r3, r3, #1024	; 0x400
 8003618:	2b00      	cmp	r3, #0
 800361a:	d005      	beq.n	8003628 <HAL_RCC_OscConfig+0x154>
 800361c:	687b      	ldr	r3, [r7, #4]
 800361e:	68db      	ldr	r3, [r3, #12]
 8003620:	2b00      	cmp	r3, #0
 8003622:	d101      	bne.n	8003628 <HAL_RCC_OscConfig+0x154>
 8003624:	2301      	movs	r3, #1
 8003626:	e267      	b.n	8003af8 <HAL_RCC_OscConfig+0x624>
 8003628:	4b55      	ldr	r3, [pc, #340]	; (8003780 <HAL_RCC_OscConfig+0x2ac>)
 800362a:	685b      	ldr	r3, [r3, #4]
 800362c:	f023 42fe 	bic.w	r2, r3, #2130706432	; 0x7f000000
 8003630:	687b      	ldr	r3, [r7, #4]
 8003632:	691b      	ldr	r3, [r3, #16]
 8003634:	061b      	lsls	r3, r3, #24
 8003636:	4952      	ldr	r1, [pc, #328]	; (8003780 <HAL_RCC_OscConfig+0x2ac>)
 8003638:	4313      	orrs	r3, r2
 800363a:	604b      	str	r3, [r1, #4]
 800363c:	4b51      	ldr	r3, [pc, #324]	; (8003784 <HAL_RCC_OscConfig+0x2b0>)
 800363e:	681b      	ldr	r3, [r3, #0]
 8003640:	4618      	mov	r0, r3
 8003642:	f7fd fcd9 	bl	8000ff8 <HAL_InitTick>
 8003646:	4603      	mov	r3, r0
 8003648:	2b00      	cmp	r3, #0
 800364a:	d043      	beq.n	80036d4 <HAL_RCC_OscConfig+0x200>
 800364c:	2301      	movs	r3, #1
 800364e:	e253      	b.n	8003af8 <HAL_RCC_OscConfig+0x624>
 8003650:	687b      	ldr	r3, [r7, #4]
 8003652:	68db      	ldr	r3, [r3, #12]
 8003654:	2b00      	cmp	r3, #0
 8003656:	d023      	beq.n	80036a0 <HAL_RCC_OscConfig+0x1cc>
 8003658:	4b49      	ldr	r3, [pc, #292]	; (8003780 <HAL_RCC_OscConfig+0x2ac>)
 800365a:	681b      	ldr	r3, [r3, #0]
 800365c:	4a48      	ldr	r2, [pc, #288]	; (8003780 <HAL_RCC_OscConfig+0x2ac>)
 800365e:	f443 7380 	orr.w	r3, r3, #256	; 0x100
 8003662:	6013      	str	r3, [r2, #0]
 8003664:	f7fd fd14 	bl	8001090 <HAL_GetTick>
 8003668:	6138      	str	r0, [r7, #16]
 800366a:	e008      	b.n	800367e <HAL_RCC_OscConfig+0x1aa>
 800366c:	f7fd fd10 	bl	8001090 <HAL_GetTick>
 8003670:	4602      	mov	r2, r0
 8003672:	693b      	ldr	r3, [r7, #16]
 8003674:	1ad3      	subs	r3, r2, r3
 8003676:	2b02      	cmp	r3, #2
 8003678:	d901      	bls.n	800367e <HAL_RCC_OscConfig+0x1aa>
 800367a:	2303      	movs	r3, #3
 800367c:	e23c      	b.n	8003af8 <HAL_RCC_OscConfig+0x624>
 800367e:	4b40      	ldr	r3, [pc, #256]	; (8003780 <HAL_RCC_OscConfig+0x2ac>)
 8003680:	681b      	ldr	r3, [r3, #0]
 8003682:	f403 6380 	and.w	r3, r3, #1024	; 0x400
 8003686:	2b00      	cmp	r3, #0
 8003688:	d0f0      	beq.n	800366c <HAL_RCC_OscConfig+0x198>
 800368a:	4b3d      	ldr	r3, [pc, #244]	; (8003780 <HAL_RCC_OscConfig+0x2ac>)
 800368c:	685b      	ldr	r3, [r3, #4]
 800368e:	f023 42fe 	bic.w	r2, r3, #2130706432	; 0x7f000000
 8003692:	687b      	ldr	r3, [r7, #4]
 8003694:	691b      	ldr	r3, [r3, #16]
 8003696:	061b      	lsls	r3, r3, #24
 8003698:	4939      	ldr	r1, [pc, #228]	; (8003780 <HAL_RCC_OscConfig+0x2ac>)
 800369a:	4313      	orrs	r3, r2
 800369c:	604b      	str	r3, [r1, #4]
 800369e:	e01a      	b.n	80036d6 <HAL_RCC_OscConfig+0x202>
 80036a0:	4b37      	ldr	r3, [pc, #220]	; (8003780 <HAL_RCC_OscConfig+0x2ac>)
 80036a2:	681b      	ldr	r3, [r3, #0]
 80036a4:	4a36      	ldr	r2, [pc, #216]	; (8003780 <HAL_RCC_OscConfig+0x2ac>)
 80036a6:	f423 7380 	bic.w	r3, r3, #256	; 0x100
 80036aa:	6013      	str	r3, [r2, #0]
 80036ac:	f7fd fcf0 	bl	8001090 <HAL_GetTick>
 80036b0:	6138      	str	r0, [r7, #16]
 80036b2:	e008      	b.n	80036c6 <HAL_RCC_OscConfig+0x1f2>
 80036b4:	f7fd fcec 	bl	8001090 <HAL_GetTick>
 80036b8:	4602      	mov	r2, r0
 80036ba:	693b      	ldr	r3, [r7, #16]
 80036bc:	1ad3      	subs	r3, r2, r3
 80036be:	2b02      	cmp	r3, #2
 80036c0:	d901      	bls.n	80036c6 <HAL_RCC_OscConfig+0x1f2>
 80036c2:	2303      	movs	r3, #3
 80036c4:	e218      	b.n	8003af8 <HAL_RCC_OscConfig+0x624>
 80036c6:	4b2e      	ldr	r3, [pc, #184]	; (8003780 <HAL_RCC_OscConfig+0x2ac>)
 80036c8:	681b      	ldr	r3, [r3, #0]
 80036ca:	f403 6380 	and.w	r3, r3, #1024	; 0x400
 80036ce:	2b00      	cmp	r3, #0
 80036d0:	d1f0      	bne.n	80036b4 <HAL_RCC_OscConfig+0x1e0>
 80036d2:	e000      	b.n	80036d6 <HAL_RCC_OscConfig+0x202>
 80036d4:	bf00      	nop
 80036d6:	687b      	ldr	r3, [r7, #4]
 80036d8:	681b      	ldr	r3, [r3, #0]
 80036da:	f003 0308 	and.w	r3, r3, #8
 80036de:	2b00      	cmp	r3, #0
 80036e0:	d03c      	beq.n	800375c <HAL_RCC_OscConfig+0x288>
 80036e2:	687b      	ldr	r3, [r7, #4]
 80036e4:	695b      	ldr	r3, [r3, #20]
 80036e6:	2b00      	cmp	r3, #0
 80036e8:	d01c      	beq.n	8003724 <HAL_RCC_OscConfig+0x250>
 80036ea:	4b25      	ldr	r3, [pc, #148]	; (8003780 <HAL_RCC_OscConfig+0x2ac>)
 80036ec:	f8d3 3094 	ldr.w	r3, [r3, #148]	; 0x94
 80036f0:	4a23      	ldr	r2, [pc, #140]	; (8003780 <HAL_RCC_OscConfig+0x2ac>)
 80036f2:	f043 0301 	orr.w	r3, r3, #1
 80036f6:	f8c2 3094 	str.w	r3, [r2, #148]	; 0x94
 80036fa:	f7fd fcc9 	bl	8001090 <HAL_GetTick>
 80036fe:	6138      	str	r0, [r7, #16]
 8003700:	e008      	b.n	8003714 <HAL_RCC_OscConfig+0x240>
 8003702:	f7fd fcc5 	bl	8001090 <HAL_GetTick>
 8003706:	4602      	mov	r2, r0
 8003708:	693b      	ldr	r3, [r7, #16]
 800370a:	1ad3      	subs	r3, r2, r3
 800370c:	2b02      	cmp	r3, #2
 800370e:	d901      	bls.n	8003714 <HAL_RCC_OscConfig+0x240>
 8003710:	2303      	movs	r3, #3
 8003712:	e1f1      	b.n	8003af8 <HAL_RCC_OscConfig+0x624>
 8003714:	4b1a      	ldr	r3, [pc, #104]	; (8003780 <HAL_RCC_OscConfig+0x2ac>)
 8003716:	f8d3 3094 	ldr.w	r3, [r3, #148]	; 0x94
 800371a:	f003 0302 	and.w	r3, r3, #2
 800371e:	2b00      	cmp	r3, #0
 8003720:	d0ef      	beq.n	8003702 <HAL_RCC_OscConfig+0x22e>
 8003722:	e01b      	b.n	800375c <HAL_RCC_OscConfig+0x288>
 8003724:	4b16      	ldr	r3, [pc, #88]	; (8003780 <HAL_RCC_OscConfig+0x2ac>)
 8003726:	f8d3 3094 	ldr.w	r3, [r3, #148]	; 0x94
 800372a:	4a15      	ldr	r2, [pc, #84]	; (8003780 <HAL_RCC_OscConfig+0x2ac>)
 800372c:	f023 0301 	bic.w	r3, r3, #1
 8003730:	f8c2 3094 	str.w	r3, [r2, #148]	; 0x94
 8003734:	f7fd fcac 	bl	8001090 <HAL_GetTick>
 8003738:	6138      	str	r0, [r7, #16]
 800373a:	e008      	b.n	800374e <HAL_RCC_OscConfig+0x27a>
 800373c:	f7fd fca8 	bl	8001090 <HAL_GetTick>
 8003740:	4602      	mov	r2, r0
 8003742:	693b      	ldr	r3, [r7, #16]
 8003744:	1ad3      	subs	r3, r2, r3
 8003746:	2b02      	cmp	r3, #2
 8003748:	d901      	bls.n	800374e <HAL_RCC_OscConfig+0x27a>
 800374a:	2303      	movs	r3, #3
 800374c:	e1d4      	b.n	8003af8 <HAL_RCC_OscConfig+0x624>
 800374e:	4b0c      	ldr	r3, [pc, #48]	; (8003780 <HAL_RCC_OscConfig+0x2ac>)
 8003750:	f8d3 3094 	ldr.w	r3, [r3, #148]	; 0x94
 8003754:	f003 0302 	and.w	r3, r3, #2
 8003758:	2b00      	cmp	r3, #0
 800375a:	d1ef      	bne.n	800373c <HAL_RCC_OscConfig+0x268>
 800375c:	687b      	ldr	r3, [r7, #4]
 800375e:	681b      	ldr	r3, [r3, #0]
 8003760:	f003 0304 	and.w	r3, r3, #4
 8003764:	2b00      	cmp	r3, #0
 8003766:	f000 80ab 	beq.w	80038c0 <HAL_RCC_OscConfig+0x3ec>
 800376a:	2300      	movs	r3, #0
 800376c:	77fb      	strb	r3, [r7, #31]
 800376e:	4b04      	ldr	r3, [pc, #16]	; (8003780 <HAL_RCC_OscConfig+0x2ac>)
 8003770:	6d9b      	ldr	r3, [r3, #88]	; 0x58
 8003772:	f003 5380 	and.w	r3, r3, #268435456	; 0x10000000
 8003776:	2b00      	cmp	r3, #0
 8003778:	d106      	bne.n	8003788 <HAL_RCC_OscConfig+0x2b4>
 800377a:	2301      	movs	r3, #1
 800377c:	e005      	b.n	800378a <HAL_RCC_OscConfig+0x2b6>
 800377e:	bf00      	nop
 8003780:	40021000 	.word	0x40021000
 8003784:	20000010 	.word	0x20000010
 8003788:	2300      	movs	r3, #0
 800378a:	2b00      	cmp	r3, #0
 800378c:	d00d      	beq.n	80037aa <HAL_RCC_OscConfig+0x2d6>
 800378e:	4baf      	ldr	r3, [pc, #700]	; (8003a4c <HAL_RCC_OscConfig+0x578>)
 8003790:	6d9b      	ldr	r3, [r3, #88]	; 0x58
 8003792:	4aae      	ldr	r2, [pc, #696]	; (8003a4c <HAL_RCC_OscConfig+0x578>)
 8003794:	f043 5380 	orr.w	r3, r3, #268435456	; 0x10000000
 8003798:	6593      	str	r3, [r2, #88]	; 0x58
 800379a:	4bac      	ldr	r3, [pc, #688]	; (8003a4c <HAL_RCC_OscConfig+0x578>)
 800379c:	6d9b      	ldr	r3, [r3, #88]	; 0x58
 800379e:	f003 5380 	and.w	r3, r3, #268435456	; 0x10000000
 80037a2:	60fb      	str	r3, [r7, #12]
 80037a4:	68fb      	ldr	r3, [r7, #12]
 80037a6:	2301      	movs	r3, #1
 80037a8:	77fb      	strb	r3, [r7, #31]
 80037aa:	4ba9      	ldr	r3, [pc, #676]	; (8003a50 <HAL_RCC_OscConfig+0x57c>)
 80037ac:	681b      	ldr	r3, [r3, #0]
 80037ae:	f403 7380 	and.w	r3, r3, #256	; 0x100
 80037b2:	2b00      	cmp	r3, #0
 80037b4:	d118      	bne.n	80037e8 <HAL_RCC_OscConfig+0x314>
 80037b6:	4ba6      	ldr	r3, [pc, #664]	; (8003a50 <HAL_RCC_OscConfig+0x57c>)
 80037b8:	681b      	ldr	r3, [r3, #0]
 80037ba:	4aa5      	ldr	r2, [pc, #660]	; (8003a50 <HAL_RCC_OscConfig+0x57c>)
 80037bc:	f443 7380 	orr.w	r3, r3, #256	; 0x100
 80037c0:	6013      	str	r3, [r2, #0]
 80037c2:	f7fd fc65 	bl	8001090 <HAL_GetTick>
 80037c6:	6138      	str	r0, [r7, #16]
 80037c8:	e008      	b.n	80037dc <HAL_RCC_OscConfig+0x308>
 80037ca:	f7fd fc61 	bl	8001090 <HAL_GetTick>
 80037ce:	4602      	mov	r2, r0
 80037d0:	693b      	ldr	r3, [r7, #16]
 80037d2:	1ad3      	subs	r3, r2, r3
 80037d4:	2b02      	cmp	r3, #2
 80037d6:	d901      	bls.n	80037dc <HAL_RCC_OscConfig+0x308>
 80037d8:	2303      	movs	r3, #3
 80037da:	e18d      	b.n	8003af8 <HAL_RCC_OscConfig+0x624>
 80037dc:	4b9c      	ldr	r3, [pc, #624]	; (8003a50 <HAL_RCC_OscConfig+0x57c>)
 80037de:	681b      	ldr	r3, [r3, #0]
 80037e0:	f403 7380 	and.w	r3, r3, #256	; 0x100
 80037e4:	2b00      	cmp	r3, #0
 80037e6:	d0f0      	beq.n	80037ca <HAL_RCC_OscConfig+0x2f6>
 80037e8:	687b      	ldr	r3, [r7, #4]
 80037ea:	689b      	ldr	r3, [r3, #8]
 80037ec:	2b01      	cmp	r3, #1
 80037ee:	d108      	bne.n	8003802 <HAL_RCC_OscConfig+0x32e>
 80037f0:	4b96      	ldr	r3, [pc, #600]	; (8003a4c <HAL_RCC_OscConfig+0x578>)
 80037f2:	f8d3 3090 	ldr.w	r3, [r3, #144]	; 0x90
 80037f6:	4a95      	ldr	r2, [pc, #596]	; (8003a4c <HAL_RCC_OscConfig+0x578>)
 80037f8:	f043 0301 	orr.w	r3, r3, #1
 80037fc:	f8c2 3090 	str.w	r3, [r2, #144]	; 0x90
 8003800:	e024      	b.n	800384c <HAL_RCC_OscConfig+0x378>
 8003802:	687b      	ldr	r3, [r7, #4]
 8003804:	689b      	ldr	r3, [r3, #8]
 8003806:	2b05      	cmp	r3, #5
 8003808:	d110      	bne.n	800382c <HAL_RCC_OscConfig+0x358>
 800380a:	4b90      	ldr	r3, [pc, #576]	; (8003a4c <HAL_RCC_OscConfig+0x578>)
 800380c:	f8d3 3090 	ldr.w	r3, [r3, #144]	; 0x90
 8003810:	4a8e      	ldr	r2, [pc, #568]	; (8003a4c <HAL_RCC_OscConfig+0x578>)
 8003812:	f043 0304 	orr.w	r3, r3, #4
 8003816:	f8c2 3090 	str.w	r3, [r2, #144]	; 0x90
 800381a:	4b8c      	ldr	r3, [pc, #560]	; (8003a4c <HAL_RCC_OscConfig+0x578>)
 800381c:	f8d3 3090 	ldr.w	r3, [r3, #144]	; 0x90
 8003820:	4a8a      	ldr	r2, [pc, #552]	; (8003a4c <HAL_RCC_OscConfig+0x578>)
 8003822:	f043 0301 	orr.w	r3, r3, #1
 8003826:	f8c2 3090 	str.w	r3, [r2, #144]	; 0x90
 800382a:	e00f      	b.n	800384c <HAL_RCC_OscConfig+0x378>
 800382c:	4b87      	ldr	r3, [pc, #540]	; (8003a4c <HAL_RCC_OscConfig+0x578>)
 800382e:	f8d3 3090 	ldr.w	r3, [r3, #144]	; 0x90
 8003832:	4a86      	ldr	r2, [pc, #536]	; (8003a4c <HAL_RCC_OscConfig+0x578>)
 8003834:	f023 0301 	bic.w	r3, r3, #1
 8003838:	f8c2 3090 	str.w	r3, [r2, #144]	; 0x90
 800383c:	4b83      	ldr	r3, [pc, #524]	; (8003a4c <HAL_RCC_OscConfig+0x578>)
 800383e:	f8d3 3090 	ldr.w	r3, [r3, #144]	; 0x90
 8003842:	4a82      	ldr	r2, [pc, #520]	; (8003a4c <HAL_RCC_OscConfig+0x578>)
 8003844:	f023 0304 	bic.w	r3, r3, #4
 8003848:	f8c2 3090 	str.w	r3, [r2, #144]	; 0x90
 800384c:	687b      	ldr	r3, [r7, #4]
 800384e:	689b      	ldr	r3, [r3, #8]
 8003850:	2b00      	cmp	r3, #0
 8003852:	d016      	beq.n	8003882 <HAL_RCC_OscConfig+0x3ae>
 8003854:	f7fd fc1c 	bl	8001090 <HAL_GetTick>
 8003858:	6138      	str	r0, [r7, #16]
 800385a:	e00a      	b.n	8003872 <HAL_RCC_OscConfig+0x39e>
 800385c:	f7fd fc18 	bl	8001090 <HAL_GetTick>
 8003860:	4602      	mov	r2, r0
 8003862:	693b      	ldr	r3, [r7, #16]
 8003864:	1ad3      	subs	r3, r2, r3
 8003866:	f241 3288 	movw	r2, #5000	; 0x1388
 800386a:	4293      	cmp	r3, r2
 800386c:	d901      	bls.n	8003872 <HAL_RCC_OscConfig+0x39e>
 800386e:	2303      	movs	r3, #3
 8003870:	e142      	b.n	8003af8 <HAL_RCC_OscConfig+0x624>
 8003872:	4b76      	ldr	r3, [pc, #472]	; (8003a4c <HAL_RCC_OscConfig+0x578>)
 8003874:	f8d3 3090 	ldr.w	r3, [r3, #144]	; 0x90
 8003878:	f003 0302 	and.w	r3, r3, #2
 800387c:	2b00      	cmp	r3, #0
 800387e:	d0ed      	beq.n	800385c <HAL_RCC_OscConfig+0x388>
 8003880:	e015      	b.n	80038ae <HAL_RCC_OscConfig+0x3da>
 8003882:	f7fd fc05 	bl	8001090 <HAL_GetTick>
 8003886:	6138      	str	r0, [r7, #16]
 8003888:	e00a      	b.n	80038a0 <HAL_RCC_OscConfig+0x3cc>
 800388a:	f7fd fc01 	bl	8001090 <HAL_GetTick>
 800388e:	4602      	mov	r2, r0
 8003890:	693b      	ldr	r3, [r7, #16]
 8003892:	1ad3      	subs	r3, r2, r3
 8003894:	f241 3288 	movw	r2, #5000	; 0x1388
 8003898:	4293      	cmp	r3, r2
 800389a:	d901      	bls.n	80038a0 <HAL_RCC_OscConfig+0x3cc>
 800389c:	2303      	movs	r3, #3
 800389e:	e12b      	b.n	8003af8 <HAL_RCC_OscConfig+0x624>
 80038a0:	4b6a      	ldr	r3, [pc, #424]	; (8003a4c <HAL_RCC_OscConfig+0x578>)
 80038a2:	f8d3 3090 	ldr.w	r3, [r3, #144]	; 0x90
 80038a6:	f003 0302 	and.w	r3, r3, #2
 80038aa:	2b00      	cmp	r3, #0
 80038ac:	d1ed      	bne.n	800388a <HAL_RCC_OscConfig+0x3b6>
 80038ae:	7ffb      	ldrb	r3, [r7, #31]
 80038b0:	2b01      	cmp	r3, #1
 80038b2:	d105      	bne.n	80038c0 <HAL_RCC_OscConfig+0x3ec>
 80038b4:	4b65      	ldr	r3, [pc, #404]	; (8003a4c <HAL_RCC_OscConfig+0x578>)
 80038b6:	6d9b      	ldr	r3, [r3, #88]	; 0x58
 80038b8:	4a64      	ldr	r2, [pc, #400]	; (8003a4c <HAL_RCC_OscConfig+0x578>)
 80038ba:	f023 5380 	bic.w	r3, r3, #268435456	; 0x10000000
 80038be:	6593      	str	r3, [r2, #88]	; 0x58
 80038c0:	687b      	ldr	r3, [r7, #4]
 80038c2:	681b      	ldr	r3, [r3, #0]
 80038c4:	f003 0320 	and.w	r3, r3, #32
 80038c8:	2b00      	cmp	r3, #0
 80038ca:	d03c      	beq.n	8003946 <HAL_RCC_OscConfig+0x472>
 80038cc:	687b      	ldr	r3, [r7, #4]
 80038ce:	699b      	ldr	r3, [r3, #24]
 80038d0:	2b00      	cmp	r3, #0
 80038d2:	d01c      	beq.n	800390e <HAL_RCC_OscConfig+0x43a>
 80038d4:	4b5d      	ldr	r3, [pc, #372]	; (8003a4c <HAL_RCC_OscConfig+0x578>)
 80038d6:	f8d3 3098 	ldr.w	r3, [r3, #152]	; 0x98
 80038da:	4a5c      	ldr	r2, [pc, #368]	; (8003a4c <HAL_RCC_OscConfig+0x578>)
 80038dc:	f043 0301 	orr.w	r3, r3, #1
 80038e0:	f8c2 3098 	str.w	r3, [r2, #152]	; 0x98
 80038e4:	f7fd fbd4 	bl	8001090 <HAL_GetTick>
 80038e8:	6138      	str	r0, [r7, #16]
 80038ea:	e008      	b.n	80038fe <HAL_RCC_OscConfig+0x42a>
 80038ec:	f7fd fbd0 	bl	8001090 <HAL_GetTick>
 80038f0:	4602      	mov	r2, r0
 80038f2:	693b      	ldr	r3, [r7, #16]
 80038f4:	1ad3      	subs	r3, r2, r3
 80038f6:	2b02      	cmp	r3, #2
 80038f8:	d901      	bls.n	80038fe <HAL_RCC_OscConfig+0x42a>
 80038fa:	2303      	movs	r3, #3
 80038fc:	e0fc      	b.n	8003af8 <HAL_RCC_OscConfig+0x624>
 80038fe:	4b53      	ldr	r3, [pc, #332]	; (8003a4c <HAL_RCC_OscConfig+0x578>)
 8003900:	f8d3 3098 	ldr.w	r3, [r3, #152]	; 0x98
 8003904:	f003 0302 	and.w	r3, r3, #2
 8003908:	2b00      	cmp	r3, #0
 800390a:	d0ef      	beq.n	80038ec <HAL_RCC_OscConfig+0x418>
 800390c:	e01b      	b.n	8003946 <HAL_RCC_OscConfig+0x472>
 800390e:	4b4f      	ldr	r3, [pc, #316]	; (8003a4c <HAL_RCC_OscConfig+0x578>)
 8003910:	f8d3 3098 	ldr.w	r3, [r3, #152]	; 0x98
 8003914:	4a4d      	ldr	r2, [pc, #308]	; (8003a4c <HAL_RCC_OscConfig+0x578>)
 8003916:	f023 0301 	bic.w	r3, r3, #1
 800391a:	f8c2 3098 	str.w	r3, [r2, #152]	; 0x98
 800391e:	f7fd fbb7 	bl	8001090 <HAL_GetTick>
 8003922:	6138      	str	r0, [r7, #16]
 8003924:	e008      	b.n	8003938 <HAL_RCC_OscConfig+0x464>
 8003926:	f7fd fbb3 	bl	8001090 <HAL_GetTick>
 800392a:	4602      	mov	r2, r0
 800392c:	693b      	ldr	r3, [r7, #16]
 800392e:	1ad3      	subs	r3, r2, r3
 8003930:	2b02      	cmp	r3, #2
 8003932:	d901      	bls.n	8003938 <HAL_RCC_OscConfig+0x464>
 8003934:	2303      	movs	r3, #3
 8003936:	e0df      	b.n	8003af8 <HAL_RCC_OscConfig+0x624>
 8003938:	4b44      	ldr	r3, [pc, #272]	; (8003a4c <HAL_RCC_OscConfig+0x578>)
 800393a:	f8d3 3098 	ldr.w	r3, [r3, #152]	; 0x98
 800393e:	f003 0302 	and.w	r3, r3, #2
 8003942:	2b00      	cmp	r3, #0
 8003944:	d1ef      	bne.n	8003926 <HAL_RCC_OscConfig+0x452>
 8003946:	687b      	ldr	r3, [r7, #4]
 8003948:	69db      	ldr	r3, [r3, #28]
 800394a:	2b00      	cmp	r3, #0
 800394c:	f000 80d3 	beq.w	8003af6 <HAL_RCC_OscConfig+0x622>
 8003950:	4b3e      	ldr	r3, [pc, #248]	; (8003a4c <HAL_RCC_OscConfig+0x578>)
 8003952:	689b      	ldr	r3, [r3, #8]
 8003954:	f003 030c 	and.w	r3, r3, #12
 8003958:	2b0c      	cmp	r3, #12
 800395a:	f000 808d 	beq.w	8003a78 <HAL_RCC_OscConfig+0x5a4>
 800395e:	687b      	ldr	r3, [r7, #4]
 8003960:	69db      	ldr	r3, [r3, #28]
 8003962:	2b02      	cmp	r3, #2
 8003964:	d15a      	bne.n	8003a1c <HAL_RCC_OscConfig+0x548>
 8003966:	4b39      	ldr	r3, [pc, #228]	; (8003a4c <HAL_RCC_OscConfig+0x578>)
 8003968:	681b      	ldr	r3, [r3, #0]
 800396a:	4a38      	ldr	r2, [pc, #224]	; (8003a4c <HAL_RCC_OscConfig+0x578>)
 800396c:	f023 7380 	bic.w	r3, r3, #16777216	; 0x1000000
 8003970:	6013      	str	r3, [r2, #0]
 8003972:	f7fd fb8d 	bl	8001090 <HAL_GetTick>
 8003976:	6138      	str	r0, [r7, #16]
 8003978:	e008      	b.n	800398c <HAL_RCC_OscConfig+0x4b8>
 800397a:	f7fd fb89 	bl	8001090 <HAL_GetTick>
 800397e:	4602      	mov	r2, r0
 8003980:	693b      	ldr	r3, [r7, #16]
 8003982:	1ad3      	subs	r3, r2, r3
 8003984:	2b02      	cmp	r3, #2
 8003986:	d901      	bls.n	800398c <HAL_RCC_OscConfig+0x4b8>
 8003988:	2303      	movs	r3, #3
 800398a:	e0b5      	b.n	8003af8 <HAL_RCC_OscConfig+0x624>
 800398c:	4b2f      	ldr	r3, [pc, #188]	; (8003a4c <HAL_RCC_OscConfig+0x578>)
 800398e:	681b      	ldr	r3, [r3, #0]
 8003990:	f003 7300 	and.w	r3, r3, #33554432	; 0x2000000
 8003994:	2b00      	cmp	r3, #0
 8003996:	d1f0      	bne.n	800397a <HAL_RCC_OscConfig+0x4a6>
 8003998:	4b2c      	ldr	r3, [pc, #176]	; (8003a4c <HAL_RCC_OscConfig+0x578>)
 800399a:	68da      	ldr	r2, [r3, #12]
 800399c:	4b2d      	ldr	r3, [pc, #180]	; (8003a54 <HAL_RCC_OscConfig+0x580>)
 800399e:	4013      	ands	r3, r2
 80039a0:	687a      	ldr	r2, [r7, #4]
 80039a2:	6a11      	ldr	r1, [r2, #32]
 80039a4:	687a      	ldr	r2, [r7, #4]
 80039a6:	6a52      	ldr	r2, [r2, #36]	; 0x24
 80039a8:	3a01      	subs	r2, #1
 80039aa:	0112      	lsls	r2, r2, #4
 80039ac:	4311      	orrs	r1, r2
 80039ae:	687a      	ldr	r2, [r7, #4]
 80039b0:	6a92      	ldr	r2, [r2, #40]	; 0x28
 80039b2:	0212      	lsls	r2, r2, #8
 80039b4:	4311      	orrs	r1, r2
 80039b6:	687a      	ldr	r2, [r7, #4]
 80039b8:	6b12      	ldr	r2, [r2, #48]	; 0x30
 80039ba:	0852      	lsrs	r2, r2, #1
 80039bc:	3a01      	subs	r2, #1
 80039be:	0552      	lsls	r2, r2, #21
 80039c0:	4311      	orrs	r1, r2
 80039c2:	687a      	ldr	r2, [r7, #4]
 80039c4:	6b52      	ldr	r2, [r2, #52]	; 0x34
 80039c6:	0852      	lsrs	r2, r2, #1
 80039c8:	3a01      	subs	r2, #1
 80039ca:	0652      	lsls	r2, r2, #25
 80039cc:	4311      	orrs	r1, r2
 80039ce:	687a      	ldr	r2, [r7, #4]
 80039d0:	6ad2      	ldr	r2, [r2, #44]	; 0x2c
 80039d2:	06d2      	lsls	r2, r2, #27
 80039d4:	430a      	orrs	r2, r1
 80039d6:	491d      	ldr	r1, [pc, #116]	; (8003a4c <HAL_RCC_OscConfig+0x578>)
 80039d8:	4313      	orrs	r3, r2
 80039da:	60cb      	str	r3, [r1, #12]
 80039dc:	4b1b      	ldr	r3, [pc, #108]	; (8003a4c <HAL_RCC_OscConfig+0x578>)
 80039de:	681b      	ldr	r3, [r3, #0]
 80039e0:	4a1a      	ldr	r2, [pc, #104]	; (8003a4c <HAL_RCC_OscConfig+0x578>)
 80039e2:	f043 7380 	orr.w	r3, r3, #16777216	; 0x1000000
 80039e6:	6013      	str	r3, [r2, #0]
 80039e8:	4b18      	ldr	r3, [pc, #96]	; (8003a4c <HAL_RCC_OscConfig+0x578>)
 80039ea:	68db      	ldr	r3, [r3, #12]
 80039ec:	4a17      	ldr	r2, [pc, #92]	; (8003a4c <HAL_RCC_OscConfig+0x578>)
 80039ee:	f043 7380 	orr.w	r3, r3, #16777216	; 0x1000000
 80039f2:	60d3      	str	r3, [r2, #12]
 80039f4:	f7fd fb4c 	bl	8001090 <HAL_GetTick>
 80039f8:	6138      	str	r0, [r7, #16]
 80039fa:	e008      	b.n	8003a0e <HAL_RCC_OscConfig+0x53a>
 80039fc:	f7fd fb48 	bl	8001090 <HAL_GetTick>
 8003a00:	4602      	mov	r2, r0
 8003a02:	693b      	ldr	r3, [r7, #16]
 8003a04:	1ad3      	subs	r3, r2, r3
 8003a06:	2b02      	cmp	r3, #2
 8003a08:	d901      	bls.n	8003a0e <HAL_RCC_OscConfig+0x53a>
 8003a0a:	2303      	movs	r3, #3
 8003a0c:	e074      	b.n	8003af8 <HAL_RCC_OscConfig+0x624>
 8003a0e:	4b0f      	ldr	r3, [pc, #60]	; (8003a4c <HAL_RCC_OscConfig+0x578>)
 8003a10:	681b      	ldr	r3, [r3, #0]
 8003a12:	f003 7300 	and.w	r3, r3, #33554432	; 0x2000000
 8003a16:	2b00      	cmp	r3, #0
 8003a18:	d0f0      	beq.n	80039fc <HAL_RCC_OscConfig+0x528>
 8003a1a:	e06c      	b.n	8003af6 <HAL_RCC_OscConfig+0x622>
 8003a1c:	4b0b      	ldr	r3, [pc, #44]	; (8003a4c <HAL_RCC_OscConfig+0x578>)
 8003a1e:	681b      	ldr	r3, [r3, #0]
 8003a20:	4a0a      	ldr	r2, [pc, #40]	; (8003a4c <HAL_RCC_OscConfig+0x578>)
 8003a22:	f023 7380 	bic.w	r3, r3, #16777216	; 0x1000000
 8003a26:	6013      	str	r3, [r2, #0]
 8003a28:	4b08      	ldr	r3, [pc, #32]	; (8003a4c <HAL_RCC_OscConfig+0x578>)
 8003a2a:	68db      	ldr	r3, [r3, #12]
 8003a2c:	4a07      	ldr	r2, [pc, #28]	; (8003a4c <HAL_RCC_OscConfig+0x578>)
 8003a2e:	f023 0303 	bic.w	r3, r3, #3
 8003a32:	60d3      	str	r3, [r2, #12]
 8003a34:	4b05      	ldr	r3, [pc, #20]	; (8003a4c <HAL_RCC_OscConfig+0x578>)
 8003a36:	68db      	ldr	r3, [r3, #12]
 8003a38:	4a04      	ldr	r2, [pc, #16]	; (8003a4c <HAL_RCC_OscConfig+0x578>)
 8003a3a:	f023 7388 	bic.w	r3, r3, #17825792	; 0x1100000
 8003a3e:	f423 3380 	bic.w	r3, r3, #65536	; 0x10000
 8003a42:	60d3      	str	r3, [r2, #12]
 8003a44:	f7fd fb24 	bl	8001090 <HAL_GetTick>
 8003a48:	6138      	str	r0, [r7, #16]
 8003a4a:	e00e      	b.n	8003a6a <HAL_RCC_OscConfig+0x596>
 8003a4c:	40021000 	.word	0x40021000
 8003a50:	40007000 	.word	0x40007000
 8003a54:	019f800c 	.word	0x019f800c
 8003a58:	f7fd fb1a 	bl	8001090 <HAL_GetTick>
 8003a5c:	4602      	mov	r2, r0
 8003a5e:	693b      	ldr	r3, [r7, #16]
 8003a60:	1ad3      	subs	r3, r2, r3
 8003a62:	2b02      	cmp	r3, #2
 8003a64:	d901      	bls.n	8003a6a <HAL_RCC_OscConfig+0x596>
 8003a66:	2303      	movs	r3, #3
 8003a68:	e046      	b.n	8003af8 <HAL_RCC_OscConfig+0x624>
 8003a6a:	4b25      	ldr	r3, [pc, #148]	; (8003b00 <HAL_RCC_OscConfig+0x62c>)
 8003a6c:	681b      	ldr	r3, [r3, #0]
 8003a6e:	f003 7300 	and.w	r3, r3, #33554432	; 0x2000000
 8003a72:	2b00      	cmp	r3, #0
 8003a74:	d1f0      	bne.n	8003a58 <HAL_RCC_OscConfig+0x584>
 8003a76:	e03e      	b.n	8003af6 <HAL_RCC_OscConfig+0x622>
 8003a78:	687b      	ldr	r3, [r7, #4]
 8003a7a:	69db      	ldr	r3, [r3, #28]
 8003a7c:	2b01      	cmp	r3, #1
 8003a7e:	d101      	bne.n	8003a84 <HAL_RCC_OscConfig+0x5b0>
 8003a80:	2301      	movs	r3, #1
 8003a82:	e039      	b.n	8003af8 <HAL_RCC_OscConfig+0x624>
 8003a84:	4b1e      	ldr	r3, [pc, #120]	; (8003b00 <HAL_RCC_OscConfig+0x62c>)
 8003a86:	68db      	ldr	r3, [r3, #12]
 8003a88:	617b      	str	r3, [r7, #20]
 8003a8a:	697b      	ldr	r3, [r7, #20]
 8003a8c:	f003 0203 	and.w	r2, r3, #3
 8003a90:	687b      	ldr	r3, [r7, #4]
 8003a92:	6a1b      	ldr	r3, [r3, #32]
 8003a94:	429a      	cmp	r2, r3
 8003a96:	d12c      	bne.n	8003af2 <HAL_RCC_OscConfig+0x61e>
 8003a98:	697b      	ldr	r3, [r7, #20]
 8003a9a:	f003 02f0 	and.w	r2, r3, #240	; 0xf0
 8003a9e:	687b      	ldr	r3, [r7, #4]
 8003aa0:	6a5b      	ldr	r3, [r3, #36]	; 0x24
 8003aa2:	3b01      	subs	r3, #1
 8003aa4:	011b      	lsls	r3, r3, #4
 8003aa6:	429a      	cmp	r2, r3
 8003aa8:	d123      	bne.n	8003af2 <HAL_RCC_OscConfig+0x61e>
 8003aaa:	697b      	ldr	r3, [r7, #20]
 8003aac:	f403 42fe 	and.w	r2, r3, #32512	; 0x7f00
 8003ab0:	687b      	ldr	r3, [r7, #4]
 8003ab2:	6a9b      	ldr	r3, [r3, #40]	; 0x28
 8003ab4:	021b      	lsls	r3, r3, #8
 8003ab6:	429a      	cmp	r2, r3
 8003ab8:	d11b      	bne.n	8003af2 <HAL_RCC_OscConfig+0x61e>
 8003aba:	697b      	ldr	r3, [r7, #20]
 8003abc:	f003 4278 	and.w	r2, r3, #4160749568	; 0xf8000000
 8003ac0:	687b      	ldr	r3, [r7, #4]
 8003ac2:	6adb      	ldr	r3, [r3, #44]	; 0x2c
 8003ac4:	06db      	lsls	r3, r3, #27
 8003ac6:	429a      	cmp	r2, r3
 8003ac8:	d113      	bne.n	8003af2 <HAL_RCC_OscConfig+0x61e>
 8003aca:	697b      	ldr	r3, [r7, #20]
 8003acc:	f403 02c0 	and.w	r2, r3, #6291456	; 0x600000
 8003ad0:	687b      	ldr	r3, [r7, #4]
 8003ad2:	6b1b      	ldr	r3, [r3, #48]	; 0x30
 8003ad4:	085b      	lsrs	r3, r3, #1
 8003ad6:	3b01      	subs	r3, #1
 8003ad8:	055b      	lsls	r3, r3, #21
 8003ada:	429a      	cmp	r2, r3
 8003adc:	d109      	bne.n	8003af2 <HAL_RCC_OscConfig+0x61e>
 8003ade:	697b      	ldr	r3, [r7, #20]
 8003ae0:	f003 62c0 	and.w	r2, r3, #100663296	; 0x6000000
 8003ae4:	687b      	ldr	r3, [r7, #4]
 8003ae6:	6b5b      	ldr	r3, [r3, #52]	; 0x34
 8003ae8:	085b      	lsrs	r3, r3, #1
 8003aea:	3b01      	subs	r3, #1
 8003aec:	065b      	lsls	r3, r3, #25
 8003aee:	429a      	cmp	r2, r3
 8003af0:	d001      	beq.n	8003af6 <HAL_RCC_OscConfig+0x622>
 8003af2:	2301      	movs	r3, #1
 8003af4:	e000      	b.n	8003af8 <HAL_RCC_OscConfig+0x624>
 8003af6:	2300      	movs	r3, #0
 8003af8:	4618      	mov	r0, r3
 8003afa:	3720      	adds	r7, #32
 8003afc:	46bd      	mov	sp, r7
 8003afe:	bd80      	pop	{r7, pc}
 8003b00:	40021000 	.word	0x40021000

08003b04 <HAL_RCC_ClockConfig>:
 8003b04:	b580      	push	{r7, lr}
 8003b06:	b086      	sub	sp, #24
 8003b08:	af00      	add	r7, sp, #0
 8003b0a:	6078      	str	r0, [r7, #4]
 8003b0c:	6039      	str	r1, [r7, #0]
 8003b0e:	2300      	movs	r3, #0
 8003b10:	617b      	str	r3, [r7, #20]
 8003b12:	687b      	ldr	r3, [r7, #4]
 8003b14:	2b00      	cmp	r3, #0
 8003b16:	d101      	bne.n	8003b1c <HAL_RCC_ClockConfig+0x18>
 8003b18:	2301      	movs	r3, #1
 8003b1a:	e11e      	b.n	8003d5a <HAL_RCC_ClockConfig+0x256>
 8003b1c:	4b91      	ldr	r3, [pc, #580]	; (8003d64 <HAL_RCC_ClockConfig+0x260>)
 8003b1e:	681b      	ldr	r3, [r3, #0]
 8003b20:	f003 030f 	and.w	r3, r3, #15
 8003b24:	683a      	ldr	r2, [r7, #0]
 8003b26:	429a      	cmp	r2, r3
 8003b28:	d910      	bls.n	8003b4c <HAL_RCC_ClockConfig+0x48>
 8003b2a:	4b8e      	ldr	r3, [pc, #568]	; (8003d64 <HAL_RCC_ClockConfig+0x260>)
 8003b2c:	681b      	ldr	r3, [r3, #0]
 8003b2e:	f023 020f 	bic.w	r2, r3, #15
 8003b32:	498c      	ldr	r1, [pc, #560]	; (8003d64 <HAL_RCC_ClockConfig+0x260>)
 8003b34:	683b      	ldr	r3, [r7, #0]
 8003b36:	4313      	orrs	r3, r2
 8003b38:	600b      	str	r3, [r1, #0]
 8003b3a:	4b8a      	ldr	r3, [pc, #552]	; (8003d64 <HAL_RCC_ClockConfig+0x260>)
 8003b3c:	681b      	ldr	r3, [r3, #0]
 8003b3e:	f003 030f 	and.w	r3, r3, #15
 8003b42:	683a      	ldr	r2, [r7, #0]
 8003b44:	429a      	cmp	r2, r3
 8003b46:	d001      	beq.n	8003b4c <HAL_RCC_ClockConfig+0x48>
 8003b48:	2301      	movs	r3, #1
 8003b4a:	e106      	b.n	8003d5a <HAL_RCC_ClockConfig+0x256>
 8003b4c:	687b      	ldr	r3, [r7, #4]
 8003b4e:	681b      	ldr	r3, [r3, #0]
 8003b50:	f003 0301 	and.w	r3, r3, #1
 8003b54:	2b00      	cmp	r3, #0
 8003b56:	d073      	beq.n	8003c40 <HAL_RCC_ClockConfig+0x13c>
 8003b58:	687b      	ldr	r3, [r7, #4]
 8003b5a:	685b      	ldr	r3, [r3, #4]
 8003b5c:	2b03      	cmp	r3, #3
 8003b5e:	d129      	bne.n	8003bb4 <HAL_RCC_ClockConfig+0xb0>
 8003b60:	4b81      	ldr	r3, [pc, #516]	; (8003d68 <HAL_RCC_ClockConfig+0x264>)
 8003b62:	681b      	ldr	r3, [r3, #0]
 8003b64:	f003 7300 	and.w	r3, r3, #33554432	; 0x2000000
 8003b68:	2b00      	cmp	r3, #0
 8003b6a:	d101      	bne.n	8003b70 <HAL_RCC_ClockConfig+0x6c>
 8003b6c:	2301      	movs	r3, #1
 8003b6e:	e0f4      	b.n	8003d5a <HAL_RCC_ClockConfig+0x256>
 8003b70:	f000 f99e 	bl	8003eb0 <RCC_GetSysClockFreqFromPLLSource>
 8003b74:	6138      	str	r0, [r7, #16]
 8003b76:	693b      	ldr	r3, [r7, #16]
 8003b78:	4a7c      	ldr	r2, [pc, #496]	; (8003d6c <HAL_RCC_ClockConfig+0x268>)
 8003b7a:	4293      	cmp	r3, r2
 8003b7c:	d93f      	bls.n	8003bfe <HAL_RCC_ClockConfig+0xfa>
 8003b7e:	4b7a      	ldr	r3, [pc, #488]	; (8003d68 <HAL_RCC_ClockConfig+0x264>)
 8003b80:	689b      	ldr	r3, [r3, #8]
 8003b82:	f003 03f0 	and.w	r3, r3, #240	; 0xf0
 8003b86:	2b00      	cmp	r3, #0
 8003b88:	d009      	beq.n	8003b9e <HAL_RCC_ClockConfig+0x9a>
 8003b8a:	687b      	ldr	r3, [r7, #4]
 8003b8c:	681b      	ldr	r3, [r3, #0]
 8003b8e:	f003 0302 	and.w	r3, r3, #2
 8003b92:	2b00      	cmp	r3, #0
 8003b94:	d033      	beq.n	8003bfe <HAL_RCC_ClockConfig+0xfa>
 8003b96:	687b      	ldr	r3, [r7, #4]
 8003b98:	689b      	ldr	r3, [r3, #8]
 8003b9a:	2b00      	cmp	r3, #0
 8003b9c:	d12f      	bne.n	8003bfe <HAL_RCC_ClockConfig+0xfa>
 8003b9e:	4b72      	ldr	r3, [pc, #456]	; (8003d68 <HAL_RCC_ClockConfig+0x264>)
 8003ba0:	689b      	ldr	r3, [r3, #8]
 8003ba2:	f023 03f0 	bic.w	r3, r3, #240	; 0xf0
 8003ba6:	4a70      	ldr	r2, [pc, #448]	; (8003d68 <HAL_RCC_ClockConfig+0x264>)
 8003ba8:	f043 0380 	orr.w	r3, r3, #128	; 0x80
 8003bac:	6093      	str	r3, [r2, #8]
 8003bae:	2380      	movs	r3, #128	; 0x80
 8003bb0:	617b      	str	r3, [r7, #20]
 8003bb2:	e024      	b.n	8003bfe <HAL_RCC_ClockConfig+0xfa>
 8003bb4:	687b      	ldr	r3, [r7, #4]
 8003bb6:	685b      	ldr	r3, [r3, #4]
 8003bb8:	2b02      	cmp	r3, #2
 8003bba:	d107      	bne.n	8003bcc <HAL_RCC_ClockConfig+0xc8>
 8003bbc:	4b6a      	ldr	r3, [pc, #424]	; (8003d68 <HAL_RCC_ClockConfig+0x264>)
 8003bbe:	681b      	ldr	r3, [r3, #0]
 8003bc0:	f403 3300 	and.w	r3, r3, #131072	; 0x20000
 8003bc4:	2b00      	cmp	r3, #0
 8003bc6:	d109      	bne.n	8003bdc <HAL_RCC_ClockConfig+0xd8>
 8003bc8:	2301      	movs	r3, #1
 8003bca:	e0c6      	b.n	8003d5a <HAL_RCC_ClockConfig+0x256>
 8003bcc:	4b66      	ldr	r3, [pc, #408]	; (8003d68 <HAL_RCC_ClockConfig+0x264>)
 8003bce:	681b      	ldr	r3, [r3, #0]
 8003bd0:	f403 6380 	and.w	r3, r3, #1024	; 0x400
 8003bd4:	2b00      	cmp	r3, #0
 8003bd6:	d101      	bne.n	8003bdc <HAL_RCC_ClockConfig+0xd8>
 8003bd8:	2301      	movs	r3, #1
 8003bda:	e0be      	b.n	8003d5a <HAL_RCC_ClockConfig+0x256>
 8003bdc:	f000 f8ce 	bl	8003d7c <HAL_RCC_GetSysClockFreq>
 8003be0:	6138      	str	r0, [r7, #16]
 8003be2:	693b      	ldr	r3, [r7, #16]
 8003be4:	4a61      	ldr	r2, [pc, #388]	; (8003d6c <HAL_RCC_ClockConfig+0x268>)
 8003be6:	4293      	cmp	r3, r2
 8003be8:	d909      	bls.n	8003bfe <HAL_RCC_ClockConfig+0xfa>
 8003bea:	4b5f      	ldr	r3, [pc, #380]	; (8003d68 <HAL_RCC_ClockConfig+0x264>)
 8003bec:	689b      	ldr	r3, [r3, #8]
 8003bee:	f023 03f0 	bic.w	r3, r3, #240	; 0xf0
 8003bf2:	4a5d      	ldr	r2, [pc, #372]	; (8003d68 <HAL_RCC_ClockConfig+0x264>)
 8003bf4:	f043 0380 	orr.w	r3, r3, #128	; 0x80
 8003bf8:	6093      	str	r3, [r2, #8]
 8003bfa:	2380      	movs	r3, #128	; 0x80
 8003bfc:	617b      	str	r3, [r7, #20]
 8003bfe:	4b5a      	ldr	r3, [pc, #360]	; (8003d68 <HAL_RCC_ClockConfig+0x264>)
 8003c00:	689b      	ldr	r3, [r3, #8]
 8003c02:	f023 0203 	bic.w	r2, r3, #3
 8003c06:	687b      	ldr	r3, [r7, #4]
 8003c08:	685b      	ldr	r3, [r3, #4]
 8003c0a:	4957      	ldr	r1, [pc, #348]	; (8003d68 <HAL_RCC_ClockConfig+0x264>)
 8003c0c:	4313      	orrs	r3, r2
 8003c0e:	608b      	str	r3, [r1, #8]
 8003c10:	f7fd fa3e 	bl	8001090 <HAL_GetTick>
 8003c14:	60f8      	str	r0, [r7, #12]
 8003c16:	e00a      	b.n	8003c2e <HAL_RCC_ClockConfig+0x12a>
 8003c18:	f7fd fa3a 	bl	8001090 <HAL_GetTick>
 8003c1c:	4602      	mov	r2, r0
 8003c1e:	68fb      	ldr	r3, [r7, #12]
 8003c20:	1ad3      	subs	r3, r2, r3
 8003c22:	f241 3288 	movw	r2, #5000	; 0x1388
 8003c26:	4293      	cmp	r3, r2
 8003c28:	d901      	bls.n	8003c2e <HAL_RCC_ClockConfig+0x12a>
 8003c2a:	2303      	movs	r3, #3
 8003c2c:	e095      	b.n	8003d5a <HAL_RCC_ClockConfig+0x256>
 8003c2e:	4b4e      	ldr	r3, [pc, #312]	; (8003d68 <HAL_RCC_ClockConfig+0x264>)
 8003c30:	689b      	ldr	r3, [r3, #8]
 8003c32:	f003 020c 	and.w	r2, r3, #12
 8003c36:	687b      	ldr	r3, [r7, #4]
 8003c38:	685b      	ldr	r3, [r3, #4]
 8003c3a:	009b      	lsls	r3, r3, #2
 8003c3c:	429a      	cmp	r2, r3
 8003c3e:	d1eb      	bne.n	8003c18 <HAL_RCC_ClockConfig+0x114>
 8003c40:	687b      	ldr	r3, [r7, #4]
 8003c42:	681b      	ldr	r3, [r3, #0]
 8003c44:	f003 0302 	and.w	r3, r3, #2
 8003c48:	2b00      	cmp	r3, #0
 8003c4a:	d023      	beq.n	8003c94 <HAL_RCC_ClockConfig+0x190>
 8003c4c:	687b      	ldr	r3, [r7, #4]
 8003c4e:	681b      	ldr	r3, [r3, #0]
 8003c50:	f003 0304 	and.w	r3, r3, #4
 8003c54:	2b00      	cmp	r3, #0
 8003c56:	d005      	beq.n	8003c64 <HAL_RCC_ClockConfig+0x160>
 8003c58:	4b43      	ldr	r3, [pc, #268]	; (8003d68 <HAL_RCC_ClockConfig+0x264>)
 8003c5a:	689b      	ldr	r3, [r3, #8]
 8003c5c:	4a42      	ldr	r2, [pc, #264]	; (8003d68 <HAL_RCC_ClockConfig+0x264>)
 8003c5e:	f443 63e0 	orr.w	r3, r3, #1792	; 0x700
 8003c62:	6093      	str	r3, [r2, #8]
 8003c64:	687b      	ldr	r3, [r7, #4]
 8003c66:	681b      	ldr	r3, [r3, #0]
 8003c68:	f003 0308 	and.w	r3, r3, #8
 8003c6c:	2b00      	cmp	r3, #0
 8003c6e:	d007      	beq.n	8003c80 <HAL_RCC_ClockConfig+0x17c>
 8003c70:	4b3d      	ldr	r3, [pc, #244]	; (8003d68 <HAL_RCC_ClockConfig+0x264>)
 8003c72:	689b      	ldr	r3, [r3, #8]
 8003c74:	f423 537c 	bic.w	r3, r3, #16128	; 0x3f00
 8003c78:	4a3b      	ldr	r2, [pc, #236]	; (8003d68 <HAL_RCC_ClockConfig+0x264>)
 8003c7a:	f443 63e0 	orr.w	r3, r3, #1792	; 0x700
 8003c7e:	6093      	str	r3, [r2, #8]
 8003c80:	4b39      	ldr	r3, [pc, #228]	; (8003d68 <HAL_RCC_ClockConfig+0x264>)
 8003c82:	689b      	ldr	r3, [r3, #8]
 8003c84:	f023 02f0 	bic.w	r2, r3, #240	; 0xf0
 8003c88:	687b      	ldr	r3, [r7, #4]
 8003c8a:	689b      	ldr	r3, [r3, #8]
 8003c8c:	4936      	ldr	r1, [pc, #216]	; (8003d68 <HAL_RCC_ClockConfig+0x264>)
 8003c8e:	4313      	orrs	r3, r2
 8003c90:	608b      	str	r3, [r1, #8]
 8003c92:	e008      	b.n	8003ca6 <HAL_RCC_ClockConfig+0x1a2>
 8003c94:	697b      	ldr	r3, [r7, #20]
 8003c96:	2b80      	cmp	r3, #128	; 0x80
 8003c98:	d105      	bne.n	8003ca6 <HAL_RCC_ClockConfig+0x1a2>
 8003c9a:	4b33      	ldr	r3, [pc, #204]	; (8003d68 <HAL_RCC_ClockConfig+0x264>)
 8003c9c:	689b      	ldr	r3, [r3, #8]
 8003c9e:	4a32      	ldr	r2, [pc, #200]	; (8003d68 <HAL_RCC_ClockConfig+0x264>)
 8003ca0:	f023 03f0 	bic.w	r3, r3, #240	; 0xf0
 8003ca4:	6093      	str	r3, [r2, #8]
 8003ca6:	4b2f      	ldr	r3, [pc, #188]	; (8003d64 <HAL_RCC_ClockConfig+0x260>)
 8003ca8:	681b      	ldr	r3, [r3, #0]
 8003caa:	f003 030f 	and.w	r3, r3, #15
 8003cae:	683a      	ldr	r2, [r7, #0]
 8003cb0:	429a      	cmp	r2, r3
 8003cb2:	d21d      	bcs.n	8003cf0 <HAL_RCC_ClockConfig+0x1ec>
 8003cb4:	4b2b      	ldr	r3, [pc, #172]	; (8003d64 <HAL_RCC_ClockConfig+0x260>)
 8003cb6:	681b      	ldr	r3, [r3, #0]
 8003cb8:	f023 020f 	bic.w	r2, r3, #15
 8003cbc:	4929      	ldr	r1, [pc, #164]	; (8003d64 <HAL_RCC_ClockConfig+0x260>)
 8003cbe:	683b      	ldr	r3, [r7, #0]
 8003cc0:	4313      	orrs	r3, r2
 8003cc2:	600b      	str	r3, [r1, #0]
 8003cc4:	f7fd f9e4 	bl	8001090 <HAL_GetTick>
 8003cc8:	60f8      	str	r0, [r7, #12]
 8003cca:	e00a      	b.n	8003ce2 <HAL_RCC_ClockConfig+0x1de>
 8003ccc:	f7fd f9e0 	bl	8001090 <HAL_GetTick>
 8003cd0:	4602      	mov	r2, r0
 8003cd2:	68fb      	ldr	r3, [r7, #12]
 8003cd4:	1ad3      	subs	r3, r2, r3
 8003cd6:	f241 3288 	movw	r2, #5000	; 0x1388
 8003cda:	4293      	cmp	r3, r2
 8003cdc:	d901      	bls.n	8003ce2 <HAL_RCC_ClockConfig+0x1de>
 8003cde:	2303      	movs	r3, #3
 8003ce0:	e03b      	b.n	8003d5a <HAL_RCC_ClockConfig+0x256>
 8003ce2:	4b20      	ldr	r3, [pc, #128]	; (8003d64 <HAL_RCC_ClockConfig+0x260>)
 8003ce4:	681b      	ldr	r3, [r3, #0]
 8003ce6:	f003 030f 	and.w	r3, r3, #15
 8003cea:	683a      	ldr	r2, [r7, #0]
 8003cec:	429a      	cmp	r2, r3
 8003cee:	d1ed      	bne.n	8003ccc <HAL_RCC_ClockConfig+0x1c8>
 8003cf0:	687b      	ldr	r3, [r7, #4]
 8003cf2:	681b      	ldr	r3, [r3, #0]
 8003cf4:	f003 0304 	and.w	r3, r3, #4
 8003cf8:	2b00      	cmp	r3, #0
 8003cfa:	d008      	beq.n	8003d0e <HAL_RCC_ClockConfig+0x20a>
 8003cfc:	4b1a      	ldr	r3, [pc, #104]	; (8003d68 <HAL_RCC_ClockConfig+0x264>)
 8003cfe:	689b      	ldr	r3, [r3, #8]
 8003d00:	f423 62e0 	bic.w	r2, r3, #1792	; 0x700
 8003d04:	687b      	ldr	r3, [r7, #4]
 8003d06:	68db      	ldr	r3, [r3, #12]
 8003d08:	4917      	ldr	r1, [pc, #92]	; (8003d68 <HAL_RCC_ClockConfig+0x264>)
 8003d0a:	4313      	orrs	r3, r2
 8003d0c:	608b      	str	r3, [r1, #8]
 8003d0e:	687b      	ldr	r3, [r7, #4]
 8003d10:	681b      	ldr	r3, [r3, #0]
 8003d12:	f003 0308 	and.w	r3, r3, #8
 8003d16:	2b00      	cmp	r3, #0
 8003d18:	d009      	beq.n	8003d2e <HAL_RCC_ClockConfig+0x22a>
 8003d1a:	4b13      	ldr	r3, [pc, #76]	; (8003d68 <HAL_RCC_ClockConfig+0x264>)
 8003d1c:	689b      	ldr	r3, [r3, #8]
 8003d1e:	f423 5260 	bic.w	r2, r3, #14336	; 0x3800
 8003d22:	687b      	ldr	r3, [r7, #4]
 8003d24:	691b      	ldr	r3, [r3, #16]
 8003d26:	00db      	lsls	r3, r3, #3
 8003d28:	490f      	ldr	r1, [pc, #60]	; (8003d68 <HAL_RCC_ClockConfig+0x264>)
 8003d2a:	4313      	orrs	r3, r2
 8003d2c:	608b      	str	r3, [r1, #8]
 8003d2e:	f000 f825 	bl	8003d7c <HAL_RCC_GetSysClockFreq>
 8003d32:	4602      	mov	r2, r0
 8003d34:	4b0c      	ldr	r3, [pc, #48]	; (8003d68 <HAL_RCC_ClockConfig+0x264>)
 8003d36:	689b      	ldr	r3, [r3, #8]
 8003d38:	091b      	lsrs	r3, r3, #4
 8003d3a:	f003 030f 	and.w	r3, r3, #15
 8003d3e:	490c      	ldr	r1, [pc, #48]	; (8003d70 <HAL_RCC_ClockConfig+0x26c>)
 8003d40:	5ccb      	ldrb	r3, [r1, r3]
 8003d42:	f003 031f 	and.w	r3, r3, #31
 8003d46:	fa22 f303 	lsr.w	r3, r2, r3
 8003d4a:	4a0a      	ldr	r2, [pc, #40]	; (8003d74 <HAL_RCC_ClockConfig+0x270>)
 8003d4c:	6013      	str	r3, [r2, #0]
 8003d4e:	4b0a      	ldr	r3, [pc, #40]	; (8003d78 <HAL_RCC_ClockConfig+0x274>)
 8003d50:	681b      	ldr	r3, [r3, #0]
 8003d52:	4618      	mov	r0, r3
 8003d54:	f7fd f950 	bl	8000ff8 <HAL_InitTick>
 8003d58:	4603      	mov	r3, r0
 8003d5a:	4618      	mov	r0, r3
 8003d5c:	3718      	adds	r7, #24
 8003d5e:	46bd      	mov	sp, r7
 8003d60:	bd80      	pop	{r7, pc}
 8003d62:	bf00      	nop
 8003d64:	40022000 	.word	0x40022000
 8003d68:	40021000 	.word	0x40021000
 8003d6c:	04c4b400 	.word	0x04c4b400
 8003d70:	08006cbc 	.word	0x08006cbc
 8003d74:	2000000c 	.word	0x2000000c
 8003d78:	20000010 	.word	0x20000010

08003d7c <HAL_RCC_GetSysClockFreq>:
 8003d7c:	b480      	push	{r7}
 8003d7e:	b087      	sub	sp, #28
 8003d80:	af00      	add	r7, sp, #0
 8003d82:	4b2c      	ldr	r3, [pc, #176]	; (8003e34 <HAL_RCC_GetSysClockFreq+0xb8>)
 8003d84:	689b      	ldr	r3, [r3, #8]
 8003d86:	f003 030c 	and.w	r3, r3, #12
 8003d8a:	2b04      	cmp	r3, #4
 8003d8c:	d102      	bne.n	8003d94 <HAL_RCC_GetSysClockFreq+0x18>
 8003d8e:	4b2a      	ldr	r3, [pc, #168]	; (8003e38 <HAL_RCC_GetSysClockFreq+0xbc>)
 8003d90:	613b      	str	r3, [r7, #16]
 8003d92:	e047      	b.n	8003e24 <HAL_RCC_GetSysClockFreq+0xa8>
 8003d94:	4b27      	ldr	r3, [pc, #156]	; (8003e34 <HAL_RCC_GetSysClockFreq+0xb8>)
 8003d96:	689b      	ldr	r3, [r3, #8]
 8003d98:	f003 030c 	and.w	r3, r3, #12
 8003d9c:	2b08      	cmp	r3, #8
 8003d9e:	d102      	bne.n	8003da6 <HAL_RCC_GetSysClockFreq+0x2a>
 8003da0:	4b26      	ldr	r3, [pc, #152]	; (8003e3c <HAL_RCC_GetSysClockFreq+0xc0>)
 8003da2:	613b      	str	r3, [r7, #16]
 8003da4:	e03e      	b.n	8003e24 <HAL_RCC_GetSysClockFreq+0xa8>
 8003da6:	4b23      	ldr	r3, [pc, #140]	; (8003e34 <HAL_RCC_GetSysClockFreq+0xb8>)
 8003da8:	689b      	ldr	r3, [r3, #8]
 8003daa:	f003 030c 	and.w	r3, r3, #12
 8003dae:	2b0c      	cmp	r3, #12
 8003db0:	d136      	bne.n	8003e20 <HAL_RCC_GetSysClockFreq+0xa4>
 8003db2:	4b20      	ldr	r3, [pc, #128]	; (8003e34 <HAL_RCC_GetSysClockFreq+0xb8>)
 8003db4:	68db      	ldr	r3, [r3, #12]
 8003db6:	f003 0303 	and.w	r3, r3, #3
 8003dba:	60fb      	str	r3, [r7, #12]
 8003dbc:	4b1d      	ldr	r3, [pc, #116]	; (8003e34 <HAL_RCC_GetSysClockFreq+0xb8>)
 8003dbe:	68db      	ldr	r3, [r3, #12]
 8003dc0:	091b      	lsrs	r3, r3, #4
 8003dc2:	f003 030f 	and.w	r3, r3, #15
 8003dc6:	3301      	adds	r3, #1
 8003dc8:	60bb      	str	r3, [r7, #8]
 8003dca:	68fb      	ldr	r3, [r7, #12]
 8003dcc:	2b03      	cmp	r3, #3
 8003dce:	d10c      	bne.n	8003dea <HAL_RCC_GetSysClockFreq+0x6e>
 8003dd0:	4a1a      	ldr	r2, [pc, #104]	; (8003e3c <HAL_RCC_GetSysClockFreq+0xc0>)
 8003dd2:	68bb      	ldr	r3, [r7, #8]
 8003dd4:	fbb2 f3f3 	udiv	r3, r2, r3
 8003dd8:	4a16      	ldr	r2, [pc, #88]	; (8003e34 <HAL_RCC_GetSysClockFreq+0xb8>)
 8003dda:	68d2      	ldr	r2, [r2, #12]
 8003ddc:	0a12      	lsrs	r2, r2, #8
 8003dde:	f002 027f 	and.w	r2, r2, #127	; 0x7f
 8003de2:	fb02 f303 	mul.w	r3, r2, r3
 8003de6:	617b      	str	r3, [r7, #20]
 8003de8:	e00c      	b.n	8003e04 <HAL_RCC_GetSysClockFreq+0x88>
 8003dea:	4a13      	ldr	r2, [pc, #76]	; (8003e38 <HAL_RCC_GetSysClockFreq+0xbc>)
 8003dec:	68bb      	ldr	r3, [r7, #8]
 8003dee:	fbb2 f3f3 	udiv	r3, r2, r3
 8003df2:	4a10      	ldr	r2, [pc, #64]	; (8003e34 <HAL_RCC_GetSysClockFreq+0xb8>)
 8003df4:	68d2      	ldr	r2, [r2, #12]
 8003df6:	0a12      	lsrs	r2, r2, #8
 8003df8:	f002 027f 	and.w	r2, r2, #127	; 0x7f
 8003dfc:	fb02 f303 	mul.w	r3, r2, r3
 8003e00:	617b      	str	r3, [r7, #20]
 8003e02:	bf00      	nop
 8003e04:	4b0b      	ldr	r3, [pc, #44]	; (8003e34 <HAL_RCC_GetSysClockFreq+0xb8>)
 8003e06:	68db      	ldr	r3, [r3, #12]
 8003e08:	0e5b      	lsrs	r3, r3, #25
 8003e0a:	f003 0303 	and.w	r3, r3, #3
 8003e0e:	3301      	adds	r3, #1
 8003e10:	005b      	lsls	r3, r3, #1
 8003e12:	607b      	str	r3, [r7, #4]
 8003e14:	697a      	ldr	r2, [r7, #20]
 8003e16:	687b      	ldr	r3, [r7, #4]
 8003e18:	fbb2 f3f3 	udiv	r3, r2, r3
 8003e1c:	613b      	str	r3, [r7, #16]
 8003e1e:	e001      	b.n	8003e24 <HAL_RCC_GetSysClockFreq+0xa8>
 8003e20:	2300      	movs	r3, #0
 8003e22:	613b      	str	r3, [r7, #16]
 8003e24:	693b      	ldr	r3, [r7, #16]
 8003e26:	4618      	mov	r0, r3
 8003e28:	371c      	adds	r7, #28
 8003e2a:	46bd      	mov	sp, r7
 8003e2c:	f85d 7b04 	ldr.w	r7, [sp], #4
 8003e30:	4770      	bx	lr
 8003e32:	bf00      	nop
 8003e34:	40021000 	.word	0x40021000
 8003e38:	00f42400 	.word	0x00f42400
 8003e3c:	016e3600 	.word	0x016e3600

08003e40 <HAL_RCC_GetHCLKFreq>:
 8003e40:	b480      	push	{r7}
 8003e42:	af00      	add	r7, sp, #0
 8003e44:	4b03      	ldr	r3, [pc, #12]	; (8003e54 <HAL_RCC_GetHCLKFreq+0x14>)
 8003e46:	681b      	ldr	r3, [r3, #0]
 8003e48:	4618      	mov	r0, r3
 8003e4a:	46bd      	mov	sp, r7
 8003e4c:	f85d 7b04 	ldr.w	r7, [sp], #4
 8003e50:	4770      	bx	lr
 8003e52:	bf00      	nop
 8003e54:	2000000c 	.word	0x2000000c

08003e58 <HAL_RCC_GetPCLK1Freq>:
 8003e58:	b580      	push	{r7, lr}
 8003e5a:	af00      	add	r7, sp, #0
 8003e5c:	f7ff fff0 	bl	8003e40 <HAL_RCC_GetHCLKFreq>
 8003e60:	4602      	mov	r2, r0
 8003e62:	4b06      	ldr	r3, [pc, #24]	; (8003e7c <HAL_RCC_GetPCLK1Freq+0x24>)
 8003e64:	689b      	ldr	r3, [r3, #8]
 8003e66:	0a1b      	lsrs	r3, r3, #8
 8003e68:	f003 0307 	and.w	r3, r3, #7
 8003e6c:	4904      	ldr	r1, [pc, #16]	; (8003e80 <HAL_RCC_GetPCLK1Freq+0x28>)
 8003e6e:	5ccb      	ldrb	r3, [r1, r3]
 8003e70:	f003 031f 	and.w	r3, r3, #31
 8003e74:	fa22 f303 	lsr.w	r3, r2, r3
 8003e78:	4618      	mov	r0, r3
 8003e7a:	bd80      	pop	{r7, pc}
 8003e7c:	40021000 	.word	0x40021000
 8003e80:	08006ccc 	.word	0x08006ccc

08003e84 <HAL_RCC_GetPCLK2Freq>:
 8003e84:	b580      	push	{r7, lr}
 8003e86:	af00      	add	r7, sp, #0
 8003e88:	f7ff ffda 	bl	8003e40 <HAL_RCC_GetHCLKFreq>
 8003e8c:	4602      	mov	r2, r0
 8003e8e:	4b06      	ldr	r3, [pc, #24]	; (8003ea8 <HAL_RCC_GetPCLK2Freq+0x24>)
 8003e90:	689b      	ldr	r3, [r3, #8]
 8003e92:	0adb      	lsrs	r3, r3, #11
 8003e94:	f003 0307 	and.w	r3, r3, #7
 8003e98:	4904      	ldr	r1, [pc, #16]	; (8003eac <HAL_RCC_GetPCLK2Freq+0x28>)
 8003e9a:	5ccb      	ldrb	r3, [r1, r3]
 8003e9c:	f003 031f 	and.w	r3, r3, #31
 8003ea0:	fa22 f303 	lsr.w	r3, r2, r3
 8003ea4:	4618      	mov	r0, r3
 8003ea6:	bd80      	pop	{r7, pc}
 8003ea8:	40021000 	.word	0x40021000
 8003eac:	08006ccc 	.word	0x08006ccc

08003eb0 <RCC_GetSysClockFreqFromPLLSource>:
 8003eb0:	b480      	push	{r7}
 8003eb2:	b087      	sub	sp, #28
 8003eb4:	af00      	add	r7, sp, #0
 8003eb6:	4b1e      	ldr	r3, [pc, #120]	; (8003f30 <RCC_GetSysClockFreqFromPLLSource+0x80>)
 8003eb8:	68db      	ldr	r3, [r3, #12]
 8003eba:	f003 0303 	and.w	r3, r3, #3
 8003ebe:	613b      	str	r3, [r7, #16]
 8003ec0:	4b1b      	ldr	r3, [pc, #108]	; (8003f30 <RCC_GetSysClockFreqFromPLLSource+0x80>)
 8003ec2:	68db      	ldr	r3, [r3, #12]
 8003ec4:	091b      	lsrs	r3, r3, #4
 8003ec6:	f003 030f 	and.w	r3, r3, #15
 8003eca:	3301      	adds	r3, #1
 8003ecc:	60fb      	str	r3, [r7, #12]
 8003ece:	693b      	ldr	r3, [r7, #16]
 8003ed0:	2b03      	cmp	r3, #3
 8003ed2:	d10c      	bne.n	8003eee <RCC_GetSysClockFreqFromPLLSource+0x3e>
 8003ed4:	4a17      	ldr	r2, [pc, #92]	; (8003f34 <RCC_GetSysClockFreqFromPLLSource+0x84>)
 8003ed6:	68fb      	ldr	r3, [r7, #12]
 8003ed8:	fbb2 f3f3 	udiv	r3, r2, r3
 8003edc:	4a14      	ldr	r2, [pc, #80]	; (8003f30 <RCC_GetSysClockFreqFromPLLSource+0x80>)
 8003ede:	68d2      	ldr	r2, [r2, #12]
 8003ee0:	0a12      	lsrs	r2, r2, #8
 8003ee2:	f002 027f 	and.w	r2, r2, #127	; 0x7f
 8003ee6:	fb02 f303 	mul.w	r3, r2, r3
 8003eea:	617b      	str	r3, [r7, #20]
 8003eec:	e00c      	b.n	8003f08 <RCC_GetSysClockFreqFromPLLSource+0x58>
 8003eee:	4a12      	ldr	r2, [pc, #72]	; (8003f38 <RCC_GetSysClockFreqFromPLLSource+0x88>)
 8003ef0:	68fb      	ldr	r3, [r7, #12]
 8003ef2:	fbb2 f3f3 	udiv	r3, r2, r3
 8003ef6:	4a0e      	ldr	r2, [pc, #56]	; (8003f30 <RCC_GetSysClockFreqFromPLLSource+0x80>)
 8003ef8:	68d2      	ldr	r2, [r2, #12]
 8003efa:	0a12      	lsrs	r2, r2, #8
 8003efc:	f002 027f 	and.w	r2, r2, #127	; 0x7f
 8003f00:	fb02 f303 	mul.w	r3, r2, r3
 8003f04:	617b      	str	r3, [r7, #20]
 8003f06:	bf00      	nop
 8003f08:	4b09      	ldr	r3, [pc, #36]	; (8003f30 <RCC_GetSysClockFreqFromPLLSource+0x80>)
 8003f0a:	68db      	ldr	r3, [r3, #12]
 8003f0c:	0e5b      	lsrs	r3, r3, #25
 8003f0e:	f003 0303 	and.w	r3, r3, #3
 8003f12:	3301      	adds	r3, #1
 8003f14:	005b      	lsls	r3, r3, #1
 8003f16:	60bb      	str	r3, [r7, #8]
 8003f18:	697a      	ldr	r2, [r7, #20]
 8003f1a:	68bb      	ldr	r3, [r7, #8]
 8003f1c:	fbb2 f3f3 	udiv	r3, r2, r3
 8003f20:	607b      	str	r3, [r7, #4]
 8003f22:	687b      	ldr	r3, [r7, #4]
 8003f24:	4618      	mov	r0, r3
 8003f26:	371c      	adds	r7, #28
 8003f28:	46bd      	mov	sp, r7
 8003f2a:	f85d 7b04 	ldr.w	r7, [sp], #4
 8003f2e:	4770      	bx	lr
 8003f30:	40021000 	.word	0x40021000
 8003f34:	016e3600 	.word	0x016e3600
 8003f38:	00f42400 	.word	0x00f42400

08003f3c <HAL_RCCEx_PeriphCLKConfig>:
 8003f3c:	b580      	push	{r7, lr}
 8003f3e:	b086      	sub	sp, #24
 8003f40:	af00      	add	r7, sp, #0
 8003f42:	6078      	str	r0, [r7, #4]
 8003f44:	2300      	movs	r3, #0
 8003f46:	74fb      	strb	r3, [r7, #19]
 8003f48:	2300      	movs	r3, #0
 8003f4a:	74bb      	strb	r3, [r7, #18]
 8003f4c:	687b      	ldr	r3, [r7, #4]
 8003f4e:	681b      	ldr	r3, [r3, #0]
 8003f50:	f403 2300 	and.w	r3, r3, #524288	; 0x80000
 8003f54:	2b00      	cmp	r3, #0
 8003f56:	f000 8098 	beq.w	800408a <HAL_RCCEx_PeriphCLKConfig+0x14e>
 8003f5a:	2300      	movs	r3, #0
 8003f5c:	747b      	strb	r3, [r7, #17]
 8003f5e:	4b43      	ldr	r3, [pc, #268]	; (800406c <HAL_RCCEx_PeriphCLKConfig+0x130>)
 8003f60:	6d9b      	ldr	r3, [r3, #88]	; 0x58
 8003f62:	f003 5380 	and.w	r3, r3, #268435456	; 0x10000000
 8003f66:	2b00      	cmp	r3, #0
 8003f68:	d10d      	bne.n	8003f86 <HAL_RCCEx_PeriphCLKConfig+0x4a>
 8003f6a:	4b40      	ldr	r3, [pc, #256]	; (800406c <HAL_RCCEx_PeriphCLKConfig+0x130>)
 8003f6c:	6d9b      	ldr	r3, [r3, #88]	; 0x58
 8003f6e:	4a3f      	ldr	r2, [pc, #252]	; (800406c <HAL_RCCEx_PeriphCLKConfig+0x130>)
 8003f70:	f043 5380 	orr.w	r3, r3, #268435456	; 0x10000000
 8003f74:	6593      	str	r3, [r2, #88]	; 0x58
 8003f76:	4b3d      	ldr	r3, [pc, #244]	; (800406c <HAL_RCCEx_PeriphCLKConfig+0x130>)
 8003f78:	6d9b      	ldr	r3, [r3, #88]	; 0x58
 8003f7a:	f003 5380 	and.w	r3, r3, #268435456	; 0x10000000
 8003f7e:	60bb      	str	r3, [r7, #8]
 8003f80:	68bb      	ldr	r3, [r7, #8]
 8003f82:	2301      	movs	r3, #1
 8003f84:	747b      	strb	r3, [r7, #17]
 8003f86:	4b3a      	ldr	r3, [pc, #232]	; (8004070 <HAL_RCCEx_PeriphCLKConfig+0x134>)
 8003f88:	681b      	ldr	r3, [r3, #0]
 8003f8a:	4a39      	ldr	r2, [pc, #228]	; (8004070 <HAL_RCCEx_PeriphCLKConfig+0x134>)
 8003f8c:	f443 7380 	orr.w	r3, r3, #256	; 0x100
 8003f90:	6013      	str	r3, [r2, #0]
 8003f92:	f7fd f87d 	bl	8001090 <HAL_GetTick>
 8003f96:	60f8      	str	r0, [r7, #12]
 8003f98:	e009      	b.n	8003fae <HAL_RCCEx_PeriphCLKConfig+0x72>
 8003f9a:	f7fd f879 	bl	8001090 <HAL_GetTick>
 8003f9e:	4602      	mov	r2, r0
 8003fa0:	68fb      	ldr	r3, [r7, #12]
 8003fa2:	1ad3      	subs	r3, r2, r3
 8003fa4:	2b02      	cmp	r3, #2
 8003fa6:	d902      	bls.n	8003fae <HAL_RCCEx_PeriphCLKConfig+0x72>
 8003fa8:	2303      	movs	r3, #3
 8003faa:	74fb      	strb	r3, [r7, #19]
 8003fac:	e005      	b.n	8003fba <HAL_RCCEx_PeriphCLKConfig+0x7e>
 8003fae:	4b30      	ldr	r3, [pc, #192]	; (8004070 <HAL_RCCEx_PeriphCLKConfig+0x134>)
 8003fb0:	681b      	ldr	r3, [r3, #0]
 8003fb2:	f403 7380 	and.w	r3, r3, #256	; 0x100
 8003fb6:	2b00      	cmp	r3, #0
 8003fb8:	d0ef      	beq.n	8003f9a <HAL_RCCEx_PeriphCLKConfig+0x5e>
 8003fba:	7cfb      	ldrb	r3, [r7, #19]
 8003fbc:	2b00      	cmp	r3, #0
 8003fbe:	d159      	bne.n	8004074 <HAL_RCCEx_PeriphCLKConfig+0x138>
 8003fc0:	4b2a      	ldr	r3, [pc, #168]	; (800406c <HAL_RCCEx_PeriphCLKConfig+0x130>)
 8003fc2:	f8d3 3090 	ldr.w	r3, [r3, #144]	; 0x90
 8003fc6:	f403 7340 	and.w	r3, r3, #768	; 0x300
 8003fca:	617b      	str	r3, [r7, #20]
 8003fcc:	697b      	ldr	r3, [r7, #20]
 8003fce:	2b00      	cmp	r3, #0
 8003fd0:	d01e      	beq.n	8004010 <HAL_RCCEx_PeriphCLKConfig+0xd4>
 8003fd2:	687b      	ldr	r3, [r7, #4]
 8003fd4:	6d1b      	ldr	r3, [r3, #80]	; 0x50
 8003fd6:	697a      	ldr	r2, [r7, #20]
 8003fd8:	429a      	cmp	r2, r3
 8003fda:	d019      	beq.n	8004010 <HAL_RCCEx_PeriphCLKConfig+0xd4>
 8003fdc:	4b23      	ldr	r3, [pc, #140]	; (800406c <HAL_RCCEx_PeriphCLKConfig+0x130>)
 8003fde:	f8d3 3090 	ldr.w	r3, [r3, #144]	; 0x90
 8003fe2:	f423 7340 	bic.w	r3, r3, #768	; 0x300
 8003fe6:	617b      	str	r3, [r7, #20]
 8003fe8:	4b20      	ldr	r3, [pc, #128]	; (800406c <HAL_RCCEx_PeriphCLKConfig+0x130>)
 8003fea:	f8d3 3090 	ldr.w	r3, [r3, #144]	; 0x90
 8003fee:	4a1f      	ldr	r2, [pc, #124]	; (800406c <HAL_RCCEx_PeriphCLKConfig+0x130>)
 8003ff0:	f443 3380 	orr.w	r3, r3, #65536	; 0x10000
 8003ff4:	f8c2 3090 	str.w	r3, [r2, #144]	; 0x90
 8003ff8:	4b1c      	ldr	r3, [pc, #112]	; (800406c <HAL_RCCEx_PeriphCLKConfig+0x130>)
 8003ffa:	f8d3 3090 	ldr.w	r3, [r3, #144]	; 0x90
 8003ffe:	4a1b      	ldr	r2, [pc, #108]	; (800406c <HAL_RCCEx_PeriphCLKConfig+0x130>)
 8004000:	f423 3380 	bic.w	r3, r3, #65536	; 0x10000
 8004004:	f8c2 3090 	str.w	r3, [r2, #144]	; 0x90
 8004008:	4a18      	ldr	r2, [pc, #96]	; (800406c <HAL_RCCEx_PeriphCLKConfig+0x130>)
 800400a:	697b      	ldr	r3, [r7, #20]
 800400c:	f8c2 3090 	str.w	r3, [r2, #144]	; 0x90
 8004010:	697b      	ldr	r3, [r7, #20]
 8004012:	f003 0301 	and.w	r3, r3, #1
 8004016:	2b00      	cmp	r3, #0
 8004018:	d016      	beq.n	8004048 <HAL_RCCEx_PeriphCLKConfig+0x10c>
 800401a:	f7fd f839 	bl	8001090 <HAL_GetTick>
 800401e:	60f8      	str	r0, [r7, #12]
 8004020:	e00b      	b.n	800403a <HAL_RCCEx_PeriphCLKConfig+0xfe>
 8004022:	f7fd f835 	bl	8001090 <HAL_GetTick>
 8004026:	4602      	mov	r2, r0
 8004028:	68fb      	ldr	r3, [r7, #12]
 800402a:	1ad3      	subs	r3, r2, r3
 800402c:	f241 3288 	movw	r2, #5000	; 0x1388
 8004030:	4293      	cmp	r3, r2
 8004032:	d902      	bls.n	800403a <HAL_RCCEx_PeriphCLKConfig+0xfe>
 8004034:	2303      	movs	r3, #3
 8004036:	74fb      	strb	r3, [r7, #19]
 8004038:	e006      	b.n	8004048 <HAL_RCCEx_PeriphCLKConfig+0x10c>
 800403a:	4b0c      	ldr	r3, [pc, #48]	; (800406c <HAL_RCCEx_PeriphCLKConfig+0x130>)
 800403c:	f8d3 3090 	ldr.w	r3, [r3, #144]	; 0x90
 8004040:	f003 0302 	and.w	r3, r3, #2
 8004044:	2b00      	cmp	r3, #0
 8004046:	d0ec      	beq.n	8004022 <HAL_RCCEx_PeriphCLKConfig+0xe6>
 8004048:	7cfb      	ldrb	r3, [r7, #19]
 800404a:	2b00      	cmp	r3, #0
 800404c:	d10b      	bne.n	8004066 <HAL_RCCEx_PeriphCLKConfig+0x12a>
 800404e:	4b07      	ldr	r3, [pc, #28]	; (800406c <HAL_RCCEx_PeriphCLKConfig+0x130>)
 8004050:	f8d3 3090 	ldr.w	r3, [r3, #144]	; 0x90
 8004054:	f423 7240 	bic.w	r2, r3, #768	; 0x300
 8004058:	687b      	ldr	r3, [r7, #4]
 800405a:	6d1b      	ldr	r3, [r3, #80]	; 0x50
 800405c:	4903      	ldr	r1, [pc, #12]	; (800406c <HAL_RCCEx_PeriphCLKConfig+0x130>)
 800405e:	4313      	orrs	r3, r2
 8004060:	f8c1 3090 	str.w	r3, [r1, #144]	; 0x90
 8004064:	e008      	b.n	8004078 <HAL_RCCEx_PeriphCLKConfig+0x13c>
 8004066:	7cfb      	ldrb	r3, [r7, #19]
 8004068:	74bb      	strb	r3, [r7, #18]
 800406a:	e005      	b.n	8004078 <HAL_RCCEx_PeriphCLKConfig+0x13c>
 800406c:	40021000 	.word	0x40021000
 8004070:	40007000 	.word	0x40007000
 8004074:	7cfb      	ldrb	r3, [r7, #19]
 8004076:	74bb      	strb	r3, [r7, #18]
 8004078:	7c7b      	ldrb	r3, [r7, #17]
 800407a:	2b01      	cmp	r3, #1
 800407c:	d105      	bne.n	800408a <HAL_RCCEx_PeriphCLKConfig+0x14e>
 800407e:	4baf      	ldr	r3, [pc, #700]	; (800433c <HAL_RCCEx_PeriphCLKConfig+0x400>)
 8004080:	6d9b      	ldr	r3, [r3, #88]	; 0x58
 8004082:	4aae      	ldr	r2, [pc, #696]	; (800433c <HAL_RCCEx_PeriphCLKConfig+0x400>)
 8004084:	f023 5380 	bic.w	r3, r3, #268435456	; 0x10000000
 8004088:	6593      	str	r3, [r2, #88]	; 0x58
 800408a:	687b      	ldr	r3, [r7, #4]
 800408c:	681b      	ldr	r3, [r3, #0]
 800408e:	f003 0301 	and.w	r3, r3, #1
 8004092:	2b00      	cmp	r3, #0
 8004094:	d00a      	beq.n	80040ac <HAL_RCCEx_PeriphCLKConfig+0x170>
 8004096:	4ba9      	ldr	r3, [pc, #676]	; (800433c <HAL_RCCEx_PeriphCLKConfig+0x400>)
 8004098:	f8d3 3088 	ldr.w	r3, [r3, #136]	; 0x88
 800409c:	f023 0203 	bic.w	r2, r3, #3
 80040a0:	687b      	ldr	r3, [r7, #4]
 80040a2:	685b      	ldr	r3, [r3, #4]
 80040a4:	49a5      	ldr	r1, [pc, #660]	; (800433c <HAL_RCCEx_PeriphCLKConfig+0x400>)
 80040a6:	4313      	orrs	r3, r2
 80040a8:	f8c1 3088 	str.w	r3, [r1, #136]	; 0x88
 80040ac:	687b      	ldr	r3, [r7, #4]
 80040ae:	681b      	ldr	r3, [r3, #0]
 80040b0:	f003 0302 	and.w	r3, r3, #2
 80040b4:	2b00      	cmp	r3, #0
 80040b6:	d00a      	beq.n	80040ce <HAL_RCCEx_PeriphCLKConfig+0x192>
 80040b8:	4ba0      	ldr	r3, [pc, #640]	; (800433c <HAL_RCCEx_PeriphCLKConfig+0x400>)
 80040ba:	f8d3 3088 	ldr.w	r3, [r3, #136]	; 0x88
 80040be:	f023 020c 	bic.w	r2, r3, #12
 80040c2:	687b      	ldr	r3, [r7, #4]
 80040c4:	689b      	ldr	r3, [r3, #8]
 80040c6:	499d      	ldr	r1, [pc, #628]	; (800433c <HAL_RCCEx_PeriphCLKConfig+0x400>)
 80040c8:	4313      	orrs	r3, r2
 80040ca:	f8c1 3088 	str.w	r3, [r1, #136]	; 0x88
 80040ce:	687b      	ldr	r3, [r7, #4]
 80040d0:	681b      	ldr	r3, [r3, #0]
 80040d2:	f003 0304 	and.w	r3, r3, #4
 80040d6:	2b00      	cmp	r3, #0
 80040d8:	d00a      	beq.n	80040f0 <HAL_RCCEx_PeriphCLKConfig+0x1b4>
 80040da:	4b98      	ldr	r3, [pc, #608]	; (800433c <HAL_RCCEx_PeriphCLKConfig+0x400>)
 80040dc:	f8d3 3088 	ldr.w	r3, [r3, #136]	; 0x88
 80040e0:	f023 0230 	bic.w	r2, r3, #48	; 0x30
 80040e4:	687b      	ldr	r3, [r7, #4]
 80040e6:	68db      	ldr	r3, [r3, #12]
 80040e8:	4994      	ldr	r1, [pc, #592]	; (800433c <HAL_RCCEx_PeriphCLKConfig+0x400>)
 80040ea:	4313      	orrs	r3, r2
 80040ec:	f8c1 3088 	str.w	r3, [r1, #136]	; 0x88
 80040f0:	687b      	ldr	r3, [r7, #4]
 80040f2:	681b      	ldr	r3, [r3, #0]
 80040f4:	f003 0308 	and.w	r3, r3, #8
 80040f8:	2b00      	cmp	r3, #0
 80040fa:	d00a      	beq.n	8004112 <HAL_RCCEx_PeriphCLKConfig+0x1d6>
 80040fc:	4b8f      	ldr	r3, [pc, #572]	; (800433c <HAL_RCCEx_PeriphCLKConfig+0x400>)
 80040fe:	f8d3 3088 	ldr.w	r3, [r3, #136]	; 0x88
 8004102:	f023 02c0 	bic.w	r2, r3, #192	; 0xc0
 8004106:	687b      	ldr	r3, [r7, #4]
 8004108:	691b      	ldr	r3, [r3, #16]
 800410a:	498c      	ldr	r1, [pc, #560]	; (800433c <HAL_RCCEx_PeriphCLKConfig+0x400>)
 800410c:	4313      	orrs	r3, r2
 800410e:	f8c1 3088 	str.w	r3, [r1, #136]	; 0x88
 8004112:	687b      	ldr	r3, [r7, #4]
 8004114:	681b      	ldr	r3, [r3, #0]
 8004116:	f003 0310 	and.w	r3, r3, #16
 800411a:	2b00      	cmp	r3, #0
 800411c:	d00a      	beq.n	8004134 <HAL_RCCEx_PeriphCLKConfig+0x1f8>
 800411e:	4b87      	ldr	r3, [pc, #540]	; (800433c <HAL_RCCEx_PeriphCLKConfig+0x400>)
 8004120:	f8d3 3088 	ldr.w	r3, [r3, #136]	; 0x88
 8004124:	f423 7240 	bic.w	r2, r3, #768	; 0x300
 8004128:	687b      	ldr	r3, [r7, #4]
 800412a:	695b      	ldr	r3, [r3, #20]
 800412c:	4983      	ldr	r1, [pc, #524]	; (800433c <HAL_RCCEx_PeriphCLKConfig+0x400>)
 800412e:	4313      	orrs	r3, r2
 8004130:	f8c1 3088 	str.w	r3, [r1, #136]	; 0x88
 8004134:	687b      	ldr	r3, [r7, #4]
 8004136:	681b      	ldr	r3, [r3, #0]
 8004138:	f003 0320 	and.w	r3, r3, #32
 800413c:	2b00      	cmp	r3, #0
 800413e:	d00a      	beq.n	8004156 <HAL_RCCEx_PeriphCLKConfig+0x21a>
 8004140:	4b7e      	ldr	r3, [pc, #504]	; (800433c <HAL_RCCEx_PeriphCLKConfig+0x400>)
 8004142:	f8d3 3088 	ldr.w	r3, [r3, #136]	; 0x88
 8004146:	f423 6240 	bic.w	r2, r3, #3072	; 0xc00
 800414a:	687b      	ldr	r3, [r7, #4]
 800414c:	699b      	ldr	r3, [r3, #24]
 800414e:	497b      	ldr	r1, [pc, #492]	; (800433c <HAL_RCCEx_PeriphCLKConfig+0x400>)
 8004150:	4313      	orrs	r3, r2
 8004152:	f8c1 3088 	str.w	r3, [r1, #136]	; 0x88
 8004156:	687b      	ldr	r3, [r7, #4]
 8004158:	681b      	ldr	r3, [r3, #0]
 800415a:	f003 0340 	and.w	r3, r3, #64	; 0x40
 800415e:	2b00      	cmp	r3, #0
 8004160:	d00a      	beq.n	8004178 <HAL_RCCEx_PeriphCLKConfig+0x23c>
 8004162:	4b76      	ldr	r3, [pc, #472]	; (800433c <HAL_RCCEx_PeriphCLKConfig+0x400>)
 8004164:	f8d3 3088 	ldr.w	r3, [r3, #136]	; 0x88
 8004168:	f423 5240 	bic.w	r2, r3, #12288	; 0x3000
 800416c:	687b      	ldr	r3, [r7, #4]
 800416e:	69db      	ldr	r3, [r3, #28]
 8004170:	4972      	ldr	r1, [pc, #456]	; (800433c <HAL_RCCEx_PeriphCLKConfig+0x400>)
 8004172:	4313      	orrs	r3, r2
 8004174:	f8c1 3088 	str.w	r3, [r1, #136]	; 0x88
 8004178:	687b      	ldr	r3, [r7, #4]
 800417a:	681b      	ldr	r3, [r3, #0]
 800417c:	f003 0380 	and.w	r3, r3, #128	; 0x80
 8004180:	2b00      	cmp	r3, #0
 8004182:	d00a      	beq.n	800419a <HAL_RCCEx_PeriphCLKConfig+0x25e>
 8004184:	4b6d      	ldr	r3, [pc, #436]	; (800433c <HAL_RCCEx_PeriphCLKConfig+0x400>)
 8004186:	f8d3 3088 	ldr.w	r3, [r3, #136]	; 0x88
 800418a:	f423 4240 	bic.w	r2, r3, #49152	; 0xc000
 800418e:	687b      	ldr	r3, [r7, #4]
 8004190:	6a1b      	ldr	r3, [r3, #32]
 8004192:	496a      	ldr	r1, [pc, #424]	; (800433c <HAL_RCCEx_PeriphCLKConfig+0x400>)
 8004194:	4313      	orrs	r3, r2
 8004196:	f8c1 3088 	str.w	r3, [r1, #136]	; 0x88
 800419a:	687b      	ldr	r3, [r7, #4]
 800419c:	681b      	ldr	r3, [r3, #0]
 800419e:	f403 7380 	and.w	r3, r3, #256	; 0x100
 80041a2:	2b00      	cmp	r3, #0
 80041a4:	d00a      	beq.n	80041bc <HAL_RCCEx_PeriphCLKConfig+0x280>
 80041a6:	4b65      	ldr	r3, [pc, #404]	; (800433c <HAL_RCCEx_PeriphCLKConfig+0x400>)
 80041a8:	f8d3 3088 	ldr.w	r3, [r3, #136]	; 0x88
 80041ac:	f423 3240 	bic.w	r2, r3, #196608	; 0x30000
 80041b0:	687b      	ldr	r3, [r7, #4]
 80041b2:	6a5b      	ldr	r3, [r3, #36]	; 0x24
 80041b4:	4961      	ldr	r1, [pc, #388]	; (800433c <HAL_RCCEx_PeriphCLKConfig+0x400>)
 80041b6:	4313      	orrs	r3, r2
 80041b8:	f8c1 3088 	str.w	r3, [r1, #136]	; 0x88
 80041bc:	687b      	ldr	r3, [r7, #4]
 80041be:	681b      	ldr	r3, [r3, #0]
 80041c0:	f403 3300 	and.w	r3, r3, #131072	; 0x20000
 80041c4:	2b00      	cmp	r3, #0
 80041c6:	d00a      	beq.n	80041de <HAL_RCCEx_PeriphCLKConfig+0x2a2>
 80041c8:	4b5c      	ldr	r3, [pc, #368]	; (800433c <HAL_RCCEx_PeriphCLKConfig+0x400>)
 80041ca:	f8d3 309c 	ldr.w	r3, [r3, #156]	; 0x9c
 80041ce:	f023 0203 	bic.w	r2, r3, #3
 80041d2:	687b      	ldr	r3, [r7, #4]
 80041d4:	6a9b      	ldr	r3, [r3, #40]	; 0x28
 80041d6:	4959      	ldr	r1, [pc, #356]	; (800433c <HAL_RCCEx_PeriphCLKConfig+0x400>)
 80041d8:	4313      	orrs	r3, r2
 80041da:	f8c1 309c 	str.w	r3, [r1, #156]	; 0x9c
 80041de:	687b      	ldr	r3, [r7, #4]
 80041e0:	681b      	ldr	r3, [r3, #0]
 80041e2:	f403 7300 	and.w	r3, r3, #512	; 0x200
 80041e6:	2b00      	cmp	r3, #0
 80041e8:	d00a      	beq.n	8004200 <HAL_RCCEx_PeriphCLKConfig+0x2c4>
 80041ea:	4b54      	ldr	r3, [pc, #336]	; (800433c <HAL_RCCEx_PeriphCLKConfig+0x400>)
 80041ec:	f8d3 3088 	ldr.w	r3, [r3, #136]	; 0x88
 80041f0:	f423 2240 	bic.w	r2, r3, #786432	; 0xc0000
 80041f4:	687b      	ldr	r3, [r7, #4]
 80041f6:	6adb      	ldr	r3, [r3, #44]	; 0x2c
 80041f8:	4950      	ldr	r1, [pc, #320]	; (800433c <HAL_RCCEx_PeriphCLKConfig+0x400>)
 80041fa:	4313      	orrs	r3, r2
 80041fc:	f8c1 3088 	str.w	r3, [r1, #136]	; 0x88
 8004200:	687b      	ldr	r3, [r7, #4]
 8004202:	681b      	ldr	r3, [r3, #0]
 8004204:	f403 6380 	and.w	r3, r3, #1024	; 0x400
 8004208:	2b00      	cmp	r3, #0
 800420a:	d015      	beq.n	8004238 <HAL_RCCEx_PeriphCLKConfig+0x2fc>
 800420c:	4b4b      	ldr	r3, [pc, #300]	; (800433c <HAL_RCCEx_PeriphCLKConfig+0x400>)
 800420e:	f8d3 3088 	ldr.w	r3, [r3, #136]	; 0x88
 8004212:	f423 1240 	bic.w	r2, r3, #3145728	; 0x300000
 8004216:	687b      	ldr	r3, [r7, #4]
 8004218:	6b1b      	ldr	r3, [r3, #48]	; 0x30
 800421a:	4948      	ldr	r1, [pc, #288]	; (800433c <HAL_RCCEx_PeriphCLKConfig+0x400>)
 800421c:	4313      	orrs	r3, r2
 800421e:	f8c1 3088 	str.w	r3, [r1, #136]	; 0x88
 8004222:	687b      	ldr	r3, [r7, #4]
 8004224:	6b1b      	ldr	r3, [r3, #48]	; 0x30
 8004226:	f5b3 1f80 	cmp.w	r3, #1048576	; 0x100000
 800422a:	d105      	bne.n	8004238 <HAL_RCCEx_PeriphCLKConfig+0x2fc>
 800422c:	4b43      	ldr	r3, [pc, #268]	; (800433c <HAL_RCCEx_PeriphCLKConfig+0x400>)
 800422e:	68db      	ldr	r3, [r3, #12]
 8004230:	4a42      	ldr	r2, [pc, #264]	; (800433c <HAL_RCCEx_PeriphCLKConfig+0x400>)
 8004232:	f443 1380 	orr.w	r3, r3, #1048576	; 0x100000
 8004236:	60d3      	str	r3, [r2, #12]
 8004238:	687b      	ldr	r3, [r7, #4]
 800423a:	681b      	ldr	r3, [r3, #0]
 800423c:	f403 6300 	and.w	r3, r3, #2048	; 0x800
 8004240:	2b00      	cmp	r3, #0
 8004242:	d015      	beq.n	8004270 <HAL_RCCEx_PeriphCLKConfig+0x334>
 8004244:	4b3d      	ldr	r3, [pc, #244]	; (800433c <HAL_RCCEx_PeriphCLKConfig+0x400>)
 8004246:	f8d3 3088 	ldr.w	r3, [r3, #136]	; 0x88
 800424a:	f423 0240 	bic.w	r2, r3, #12582912	; 0xc00000
 800424e:	687b      	ldr	r3, [r7, #4]
 8004250:	6b5b      	ldr	r3, [r3, #52]	; 0x34
 8004252:	493a      	ldr	r1, [pc, #232]	; (800433c <HAL_RCCEx_PeriphCLKConfig+0x400>)
 8004254:	4313      	orrs	r3, r2
 8004256:	f8c1 3088 	str.w	r3, [r1, #136]	; 0x88
 800425a:	687b      	ldr	r3, [r7, #4]
 800425c:	6b5b      	ldr	r3, [r3, #52]	; 0x34
 800425e:	f5b3 0f80 	cmp.w	r3, #4194304	; 0x400000
 8004262:	d105      	bne.n	8004270 <HAL_RCCEx_PeriphCLKConfig+0x334>
 8004264:	4b35      	ldr	r3, [pc, #212]	; (800433c <HAL_RCCEx_PeriphCLKConfig+0x400>)
 8004266:	68db      	ldr	r3, [r3, #12]
 8004268:	4a34      	ldr	r2, [pc, #208]	; (800433c <HAL_RCCEx_PeriphCLKConfig+0x400>)
 800426a:	f443 1380 	orr.w	r3, r3, #1048576	; 0x100000
 800426e:	60d3      	str	r3, [r2, #12]
 8004270:	687b      	ldr	r3, [r7, #4]
 8004272:	681b      	ldr	r3, [r3, #0]
 8004274:	f403 5380 	and.w	r3, r3, #4096	; 0x1000
 8004278:	2b00      	cmp	r3, #0
 800427a:	d015      	beq.n	80042a8 <HAL_RCCEx_PeriphCLKConfig+0x36c>
 800427c:	4b2f      	ldr	r3, [pc, #188]	; (800433c <HAL_RCCEx_PeriphCLKConfig+0x400>)
 800427e:	f8d3 3088 	ldr.w	r3, [r3, #136]	; 0x88
 8004282:	f023 7240 	bic.w	r2, r3, #50331648	; 0x3000000
 8004286:	687b      	ldr	r3, [r7, #4]
 8004288:	6b9b      	ldr	r3, [r3, #56]	; 0x38
 800428a:	492c      	ldr	r1, [pc, #176]	; (800433c <HAL_RCCEx_PeriphCLKConfig+0x400>)
 800428c:	4313      	orrs	r3, r2
 800428e:	f8c1 3088 	str.w	r3, [r1, #136]	; 0x88
 8004292:	687b      	ldr	r3, [r7, #4]
 8004294:	6b9b      	ldr	r3, [r3, #56]	; 0x38
 8004296:	f1b3 7f80 	cmp.w	r3, #16777216	; 0x1000000
 800429a:	d105      	bne.n	80042a8 <HAL_RCCEx_PeriphCLKConfig+0x36c>
 800429c:	4b27      	ldr	r3, [pc, #156]	; (800433c <HAL_RCCEx_PeriphCLKConfig+0x400>)
 800429e:	68db      	ldr	r3, [r3, #12]
 80042a0:	4a26      	ldr	r2, [pc, #152]	; (800433c <HAL_RCCEx_PeriphCLKConfig+0x400>)
 80042a2:	f443 1380 	orr.w	r3, r3, #1048576	; 0x100000
 80042a6:	60d3      	str	r3, [r2, #12]
 80042a8:	687b      	ldr	r3, [r7, #4]
 80042aa:	681b      	ldr	r3, [r3, #0]
 80042ac:	f403 5300 	and.w	r3, r3, #8192	; 0x2000
 80042b0:	2b00      	cmp	r3, #0
 80042b2:	d015      	beq.n	80042e0 <HAL_RCCEx_PeriphCLKConfig+0x3a4>
 80042b4:	4b21      	ldr	r3, [pc, #132]	; (800433c <HAL_RCCEx_PeriphCLKConfig+0x400>)
 80042b6:	f8d3 3088 	ldr.w	r3, [r3, #136]	; 0x88
 80042ba:	f023 6240 	bic.w	r2, r3, #201326592	; 0xc000000
 80042be:	687b      	ldr	r3, [r7, #4]
 80042c0:	6bdb      	ldr	r3, [r3, #60]	; 0x3c
 80042c2:	491e      	ldr	r1, [pc, #120]	; (800433c <HAL_RCCEx_PeriphCLKConfig+0x400>)
 80042c4:	4313      	orrs	r3, r2
 80042c6:	f8c1 3088 	str.w	r3, [r1, #136]	; 0x88
 80042ca:	687b      	ldr	r3, [r7, #4]
 80042cc:	6bdb      	ldr	r3, [r3, #60]	; 0x3c
 80042ce:	f1b3 6f00 	cmp.w	r3, #134217728	; 0x8000000
 80042d2:	d105      	bne.n	80042e0 <HAL_RCCEx_PeriphCLKConfig+0x3a4>
 80042d4:	4b19      	ldr	r3, [pc, #100]	; (800433c <HAL_RCCEx_PeriphCLKConfig+0x400>)
 80042d6:	68db      	ldr	r3, [r3, #12]
 80042d8:	4a18      	ldr	r2, [pc, #96]	; (800433c <HAL_RCCEx_PeriphCLKConfig+0x400>)
 80042da:	f443 1380 	orr.w	r3, r3, #1048576	; 0x100000
 80042de:	60d3      	str	r3, [r2, #12]
 80042e0:	687b      	ldr	r3, [r7, #4]
 80042e2:	681b      	ldr	r3, [r3, #0]
 80042e4:	f403 4380 	and.w	r3, r3, #16384	; 0x4000
 80042e8:	2b00      	cmp	r3, #0
 80042ea:	d015      	beq.n	8004318 <HAL_RCCEx_PeriphCLKConfig+0x3dc>
 80042ec:	4b13      	ldr	r3, [pc, #76]	; (800433c <HAL_RCCEx_PeriphCLKConfig+0x400>)
 80042ee:	f8d3 3088 	ldr.w	r3, [r3, #136]	; 0x88
 80042f2:	f023 6240 	bic.w	r2, r3, #201326592	; 0xc000000
 80042f6:	687b      	ldr	r3, [r7, #4]
 80042f8:	6c1b      	ldr	r3, [r3, #64]	; 0x40
 80042fa:	4910      	ldr	r1, [pc, #64]	; (800433c <HAL_RCCEx_PeriphCLKConfig+0x400>)
 80042fc:	4313      	orrs	r3, r2
 80042fe:	f8c1 3088 	str.w	r3, [r1, #136]	; 0x88
 8004302:	687b      	ldr	r3, [r7, #4]
 8004304:	6c1b      	ldr	r3, [r3, #64]	; 0x40
 8004306:	f1b3 6f00 	cmp.w	r3, #134217728	; 0x8000000
 800430a:	d105      	bne.n	8004318 <HAL_RCCEx_PeriphCLKConfig+0x3dc>
 800430c:	4b0b      	ldr	r3, [pc, #44]	; (800433c <HAL_RCCEx_PeriphCLKConfig+0x400>)
 800430e:	68db      	ldr	r3, [r3, #12]
 8004310:	4a0a      	ldr	r2, [pc, #40]	; (800433c <HAL_RCCEx_PeriphCLKConfig+0x400>)
 8004312:	f443 1380 	orr.w	r3, r3, #1048576	; 0x100000
 8004316:	60d3      	str	r3, [r2, #12]
 8004318:	687b      	ldr	r3, [r7, #4]
 800431a:	681b      	ldr	r3, [r3, #0]
 800431c:	f403 4300 	and.w	r3, r3, #32768	; 0x8000
 8004320:	2b00      	cmp	r3, #0
 8004322:	d018      	beq.n	8004356 <HAL_RCCEx_PeriphCLKConfig+0x41a>
 8004324:	4b05      	ldr	r3, [pc, #20]	; (800433c <HAL_RCCEx_PeriphCLKConfig+0x400>)
 8004326:	f8d3 3088 	ldr.w	r3, [r3, #136]	; 0x88
 800432a:	f023 5240 	bic.w	r2, r3, #805306368	; 0x30000000
 800432e:	687b      	ldr	r3, [r7, #4]
 8004330:	6c5b      	ldr	r3, [r3, #68]	; 0x44
 8004332:	4902      	ldr	r1, [pc, #8]	; (800433c <HAL_RCCEx_PeriphCLKConfig+0x400>)
 8004334:	4313      	orrs	r3, r2
 8004336:	f8c1 3088 	str.w	r3, [r1, #136]	; 0x88
 800433a:	e001      	b.n	8004340 <HAL_RCCEx_PeriphCLKConfig+0x404>
 800433c:	40021000 	.word	0x40021000
 8004340:	687b      	ldr	r3, [r7, #4]
 8004342:	6c5b      	ldr	r3, [r3, #68]	; 0x44
 8004344:	f1b3 5f80 	cmp.w	r3, #268435456	; 0x10000000
 8004348:	d105      	bne.n	8004356 <HAL_RCCEx_PeriphCLKConfig+0x41a>
 800434a:	4b21      	ldr	r3, [pc, #132]	; (80043d0 <HAL_RCCEx_PeriphCLKConfig+0x494>)
 800434c:	68db      	ldr	r3, [r3, #12]
 800434e:	4a20      	ldr	r2, [pc, #128]	; (80043d0 <HAL_RCCEx_PeriphCLKConfig+0x494>)
 8004350:	f443 3380 	orr.w	r3, r3, #65536	; 0x10000
 8004354:	60d3      	str	r3, [r2, #12]
 8004356:	687b      	ldr	r3, [r7, #4]
 8004358:	681b      	ldr	r3, [r3, #0]
 800435a:	f403 3380 	and.w	r3, r3, #65536	; 0x10000
 800435e:	2b00      	cmp	r3, #0
 8004360:	d015      	beq.n	800438e <HAL_RCCEx_PeriphCLKConfig+0x452>
 8004362:	4b1b      	ldr	r3, [pc, #108]	; (80043d0 <HAL_RCCEx_PeriphCLKConfig+0x494>)
 8004364:	f8d3 3088 	ldr.w	r3, [r3, #136]	; 0x88
 8004368:	f023 4240 	bic.w	r2, r3, #3221225472	; 0xc0000000
 800436c:	687b      	ldr	r3, [r7, #4]
 800436e:	6c9b      	ldr	r3, [r3, #72]	; 0x48
 8004370:	4917      	ldr	r1, [pc, #92]	; (80043d0 <HAL_RCCEx_PeriphCLKConfig+0x494>)
 8004372:	4313      	orrs	r3, r2
 8004374:	f8c1 3088 	str.w	r3, [r1, #136]	; 0x88
 8004378:	687b      	ldr	r3, [r7, #4]
 800437a:	6c9b      	ldr	r3, [r3, #72]	; 0x48
 800437c:	f1b3 4f80 	cmp.w	r3, #1073741824	; 0x40000000
 8004380:	d105      	bne.n	800438e <HAL_RCCEx_PeriphCLKConfig+0x452>
 8004382:	4b13      	ldr	r3, [pc, #76]	; (80043d0 <HAL_RCCEx_PeriphCLKConfig+0x494>)
 8004384:	68db      	ldr	r3, [r3, #12]
 8004386:	4a12      	ldr	r2, [pc, #72]	; (80043d0 <HAL_RCCEx_PeriphCLKConfig+0x494>)
 8004388:	f443 3380 	orr.w	r3, r3, #65536	; 0x10000
 800438c:	60d3      	str	r3, [r2, #12]
 800438e:	687b      	ldr	r3, [r7, #4]
 8004390:	681b      	ldr	r3, [r3, #0]
 8004392:	f403 2380 	and.w	r3, r3, #262144	; 0x40000
 8004396:	2b00      	cmp	r3, #0
 8004398:	d015      	beq.n	80043c6 <HAL_RCCEx_PeriphCLKConfig+0x48a>
 800439a:	4b0d      	ldr	r3, [pc, #52]	; (80043d0 <HAL_RCCEx_PeriphCLKConfig+0x494>)
 800439c:	f8d3 309c 	ldr.w	r3, [r3, #156]	; 0x9c
 80043a0:	f423 1240 	bic.w	r2, r3, #3145728	; 0x300000
 80043a4:	687b      	ldr	r3, [r7, #4]
 80043a6:	6cdb      	ldr	r3, [r3, #76]	; 0x4c
 80043a8:	4909      	ldr	r1, [pc, #36]	; (80043d0 <HAL_RCCEx_PeriphCLKConfig+0x494>)
 80043aa:	4313      	orrs	r3, r2
 80043ac:	f8c1 309c 	str.w	r3, [r1, #156]	; 0x9c
 80043b0:	687b      	ldr	r3, [r7, #4]
 80043b2:	6cdb      	ldr	r3, [r3, #76]	; 0x4c
 80043b4:	f5b3 1f00 	cmp.w	r3, #2097152	; 0x200000
 80043b8:	d105      	bne.n	80043c6 <HAL_RCCEx_PeriphCLKConfig+0x48a>
 80043ba:	4b05      	ldr	r3, [pc, #20]	; (80043d0 <HAL_RCCEx_PeriphCLKConfig+0x494>)
 80043bc:	68db      	ldr	r3, [r3, #12]
 80043be:	4a04      	ldr	r2, [pc, #16]	; (80043d0 <HAL_RCCEx_PeriphCLKConfig+0x494>)
 80043c0:	f443 1380 	orr.w	r3, r3, #1048576	; 0x100000
 80043c4:	60d3      	str	r3, [r2, #12]
 80043c6:	7cbb      	ldrb	r3, [r7, #18]
 80043c8:	4618      	mov	r0, r3
 80043ca:	3718      	adds	r7, #24
 80043cc:	46bd      	mov	sp, r7
 80043ce:	bd80      	pop	{r7, pc}
 80043d0:	40021000 	.word	0x40021000

080043d4 <HAL_UART_Init>:
 80043d4:	b580      	push	{r7, lr}
 80043d6:	b082      	sub	sp, #8
 80043d8:	af00      	add	r7, sp, #0
 80043da:	6078      	str	r0, [r7, #4]
 80043dc:	687b      	ldr	r3, [r7, #4]
 80043de:	2b00      	cmp	r3, #0
 80043e0:	d101      	bne.n	80043e6 <HAL_UART_Init+0x12>
 80043e2:	2301      	movs	r3, #1
 80043e4:	e042      	b.n	800446c <HAL_UART_Init+0x98>
 80043e6:	687b      	ldr	r3, [r7, #4]
 80043e8:	f8d3 3084 	ldr.w	r3, [r3, #132]	; 0x84
 80043ec:	2b00      	cmp	r3, #0
 80043ee:	d106      	bne.n	80043fe <HAL_UART_Init+0x2a>
 80043f0:	687b      	ldr	r3, [r7, #4]
 80043f2:	2200      	movs	r2, #0
 80043f4:	f883 2080 	strb.w	r2, [r3, #128]	; 0x80
 80043f8:	6878      	ldr	r0, [r7, #4]
 80043fa:	f7fc fd2d 	bl	8000e58 <HAL_UART_MspInit>
 80043fe:	687b      	ldr	r3, [r7, #4]
 8004400:	2224      	movs	r2, #36	; 0x24
 8004402:	f8c3 2084 	str.w	r2, [r3, #132]	; 0x84
 8004406:	687b      	ldr	r3, [r7, #4]
 8004408:	681b      	ldr	r3, [r3, #0]
 800440a:	681a      	ldr	r2, [r3, #0]
 800440c:	687b      	ldr	r3, [r7, #4]
 800440e:	681b      	ldr	r3, [r3, #0]
 8004410:	f022 0201 	bic.w	r2, r2, #1
 8004414:	601a      	str	r2, [r3, #0]
 8004416:	6878      	ldr	r0, [r7, #4]
 8004418:	f000 fb5c 	bl	8004ad4 <UART_SetConfig>
 800441c:	4603      	mov	r3, r0
 800441e:	2b01      	cmp	r3, #1
 8004420:	d101      	bne.n	8004426 <HAL_UART_Init+0x52>
 8004422:	2301      	movs	r3, #1
 8004424:	e022      	b.n	800446c <HAL_UART_Init+0x98>
 8004426:	687b      	ldr	r3, [r7, #4]
 8004428:	6a9b      	ldr	r3, [r3, #40]	; 0x28
 800442a:	2b00      	cmp	r3, #0
 800442c:	d002      	beq.n	8004434 <HAL_UART_Init+0x60>
 800442e:	6878      	ldr	r0, [r7, #4]
 8004430:	f000 fe1a 	bl	8005068 <UART_AdvFeatureConfig>
 8004434:	687b      	ldr	r3, [r7, #4]
 8004436:	681b      	ldr	r3, [r3, #0]
 8004438:	685a      	ldr	r2, [r3, #4]
 800443a:	687b      	ldr	r3, [r7, #4]
 800443c:	681b      	ldr	r3, [r3, #0]
 800443e:	f422 4290 	bic.w	r2, r2, #18432	; 0x4800
 8004442:	605a      	str	r2, [r3, #4]
 8004444:	687b      	ldr	r3, [r7, #4]
 8004446:	681b      	ldr	r3, [r3, #0]
 8004448:	689a      	ldr	r2, [r3, #8]
 800444a:	687b      	ldr	r3, [r7, #4]
 800444c:	681b      	ldr	r3, [r3, #0]
 800444e:	f022 022a 	bic.w	r2, r2, #42	; 0x2a
 8004452:	609a      	str	r2, [r3, #8]
 8004454:	687b      	ldr	r3, [r7, #4]
 8004456:	681b      	ldr	r3, [r3, #0]
 8004458:	681a      	ldr	r2, [r3, #0]
 800445a:	687b      	ldr	r3, [r7, #4]
 800445c:	681b      	ldr	r3, [r3, #0]
 800445e:	f042 0201 	orr.w	r2, r2, #1
 8004462:	601a      	str	r2, [r3, #0]
 8004464:	6878      	ldr	r0, [r7, #4]
 8004466:	f000 fea1 	bl	80051ac <UART_CheckIdleState>
 800446a:	4603      	mov	r3, r0
 800446c:	4618      	mov	r0, r3
 800446e:	3708      	adds	r7, #8
 8004470:	46bd      	mov	sp, r7
 8004472:	bd80      	pop	{r7, pc}

08004474 <HAL_UART_Transmit>:
 8004474:	b580      	push	{r7, lr}
 8004476:	b08a      	sub	sp, #40	; 0x28
 8004478:	af02      	add	r7, sp, #8
 800447a:	60f8      	str	r0, [r7, #12]
 800447c:	60b9      	str	r1, [r7, #8]
 800447e:	603b      	str	r3, [r7, #0]
 8004480:	4613      	mov	r3, r2
 8004482:	80fb      	strh	r3, [r7, #6]
 8004484:	68fb      	ldr	r3, [r7, #12]
 8004486:	f8d3 3084 	ldr.w	r3, [r3, #132]	; 0x84
 800448a:	2b20      	cmp	r3, #32
 800448c:	f040 8083 	bne.w	8004596 <HAL_UART_Transmit+0x122>
 8004490:	68bb      	ldr	r3, [r7, #8]
 8004492:	2b00      	cmp	r3, #0
 8004494:	d002      	beq.n	800449c <HAL_UART_Transmit+0x28>
 8004496:	88fb      	ldrh	r3, [r7, #6]
 8004498:	2b00      	cmp	r3, #0
 800449a:	d101      	bne.n	80044a0 <HAL_UART_Transmit+0x2c>
 800449c:	2301      	movs	r3, #1
 800449e:	e07b      	b.n	8004598 <HAL_UART_Transmit+0x124>
 80044a0:	68fb      	ldr	r3, [r7, #12]
 80044a2:	f893 3080 	ldrb.w	r3, [r3, #128]	; 0x80
 80044a6:	2b01      	cmp	r3, #1
 80044a8:	d101      	bne.n	80044ae <HAL_UART_Transmit+0x3a>
 80044aa:	2302      	movs	r3, #2
 80044ac:	e074      	b.n	8004598 <HAL_UART_Transmit+0x124>
 80044ae:	68fb      	ldr	r3, [r7, #12]
 80044b0:	2201      	movs	r2, #1
 80044b2:	f883 2080 	strb.w	r2, [r3, #128]	; 0x80
 80044b6:	68fb      	ldr	r3, [r7, #12]
 80044b8:	2200      	movs	r2, #0
 80044ba:	f8c3 208c 	str.w	r2, [r3, #140]	; 0x8c
 80044be:	68fb      	ldr	r3, [r7, #12]
 80044c0:	2221      	movs	r2, #33	; 0x21
 80044c2:	f8c3 2084 	str.w	r2, [r3, #132]	; 0x84
 80044c6:	f7fc fde3 	bl	8001090 <HAL_GetTick>
 80044ca:	6178      	str	r0, [r7, #20]
 80044cc:	68fb      	ldr	r3, [r7, #12]
 80044ce:	88fa      	ldrh	r2, [r7, #6]
 80044d0:	f8a3 2054 	strh.w	r2, [r3, #84]	; 0x54
 80044d4:	68fb      	ldr	r3, [r7, #12]
 80044d6:	88fa      	ldrh	r2, [r7, #6]
 80044d8:	f8a3 2056 	strh.w	r2, [r3, #86]	; 0x56
 80044dc:	68fb      	ldr	r3, [r7, #12]
 80044de:	689b      	ldr	r3, [r3, #8]
 80044e0:	f5b3 5f80 	cmp.w	r3, #4096	; 0x1000
 80044e4:	d108      	bne.n	80044f8 <HAL_UART_Transmit+0x84>
 80044e6:	68fb      	ldr	r3, [r7, #12]
 80044e8:	691b      	ldr	r3, [r3, #16]
 80044ea:	2b00      	cmp	r3, #0
 80044ec:	d104      	bne.n	80044f8 <HAL_UART_Transmit+0x84>
 80044ee:	2300      	movs	r3, #0
 80044f0:	61fb      	str	r3, [r7, #28]
 80044f2:	68bb      	ldr	r3, [r7, #8]
 80044f4:	61bb      	str	r3, [r7, #24]
 80044f6:	e003      	b.n	8004500 <HAL_UART_Transmit+0x8c>
 80044f8:	68bb      	ldr	r3, [r7, #8]
 80044fa:	61fb      	str	r3, [r7, #28]
 80044fc:	2300      	movs	r3, #0
 80044fe:	61bb      	str	r3, [r7, #24]
 8004500:	68fb      	ldr	r3, [r7, #12]
 8004502:	2200      	movs	r2, #0
 8004504:	f883 2080 	strb.w	r2, [r3, #128]	; 0x80
 8004508:	e02c      	b.n	8004564 <HAL_UART_Transmit+0xf0>
 800450a:	683b      	ldr	r3, [r7, #0]
 800450c:	9300      	str	r3, [sp, #0]
 800450e:	697b      	ldr	r3, [r7, #20]
 8004510:	2200      	movs	r2, #0
 8004512:	2180      	movs	r1, #128	; 0x80
 8004514:	68f8      	ldr	r0, [r7, #12]
 8004516:	f000 fe94 	bl	8005242 <UART_WaitOnFlagUntilTimeout>
 800451a:	4603      	mov	r3, r0
 800451c:	2b00      	cmp	r3, #0
 800451e:	d001      	beq.n	8004524 <HAL_UART_Transmit+0xb0>
 8004520:	2303      	movs	r3, #3
 8004522:	e039      	b.n	8004598 <HAL_UART_Transmit+0x124>
 8004524:	69fb      	ldr	r3, [r7, #28]
 8004526:	2b00      	cmp	r3, #0
 8004528:	d10b      	bne.n	8004542 <HAL_UART_Transmit+0xce>
 800452a:	69bb      	ldr	r3, [r7, #24]
 800452c:	881b      	ldrh	r3, [r3, #0]
 800452e:	461a      	mov	r2, r3
 8004530:	68fb      	ldr	r3, [r7, #12]
 8004532:	681b      	ldr	r3, [r3, #0]
 8004534:	f3c2 0208 	ubfx	r2, r2, #0, #9
 8004538:	629a      	str	r2, [r3, #40]	; 0x28
 800453a:	69bb      	ldr	r3, [r7, #24]
 800453c:	3302      	adds	r3, #2
 800453e:	61bb      	str	r3, [r7, #24]
 8004540:	e007      	b.n	8004552 <HAL_UART_Transmit+0xde>
 8004542:	69fb      	ldr	r3, [r7, #28]
 8004544:	781a      	ldrb	r2, [r3, #0]
 8004546:	68fb      	ldr	r3, [r7, #12]
 8004548:	681b      	ldr	r3, [r3, #0]
 800454a:	629a      	str	r2, [r3, #40]	; 0x28
 800454c:	69fb      	ldr	r3, [r7, #28]
 800454e:	3301      	adds	r3, #1
 8004550:	61fb      	str	r3, [r7, #28]
 8004552:	68fb      	ldr	r3, [r7, #12]
 8004554:	f8b3 3056 	ldrh.w	r3, [r3, #86]	; 0x56
 8004558:	b29b      	uxth	r3, r3
 800455a:	3b01      	subs	r3, #1
 800455c:	b29a      	uxth	r2, r3
 800455e:	68fb      	ldr	r3, [r7, #12]
 8004560:	f8a3 2056 	strh.w	r2, [r3, #86]	; 0x56
 8004564:	68fb      	ldr	r3, [r7, #12]
 8004566:	f8b3 3056 	ldrh.w	r3, [r3, #86]	; 0x56
 800456a:	b29b      	uxth	r3, r3
 800456c:	2b00      	cmp	r3, #0
 800456e:	d1cc      	bne.n	800450a <HAL_UART_Transmit+0x96>
 8004570:	683b      	ldr	r3, [r7, #0]
 8004572:	9300      	str	r3, [sp, #0]
 8004574:	697b      	ldr	r3, [r7, #20]
 8004576:	2200      	movs	r2, #0
 8004578:	2140      	movs	r1, #64	; 0x40
 800457a:	68f8      	ldr	r0, [r7, #12]
 800457c:	f000 fe61 	bl	8005242 <UART_WaitOnFlagUntilTimeout>
 8004580:	4603      	mov	r3, r0
 8004582:	2b00      	cmp	r3, #0
 8004584:	d001      	beq.n	800458a <HAL_UART_Transmit+0x116>
 8004586:	2303      	movs	r3, #3
 8004588:	e006      	b.n	8004598 <HAL_UART_Transmit+0x124>
 800458a:	68fb      	ldr	r3, [r7, #12]
 800458c:	2220      	movs	r2, #32
 800458e:	f8c3 2084 	str.w	r2, [r3, #132]	; 0x84
 8004592:	2300      	movs	r3, #0
 8004594:	e000      	b.n	8004598 <HAL_UART_Transmit+0x124>
 8004596:	2302      	movs	r3, #2
 8004598:	4618      	mov	r0, r3
 800459a:	3720      	adds	r7, #32
 800459c:	46bd      	mov	sp, r7
 800459e:	bd80      	pop	{r7, pc}

080045a0 <HAL_UART_Receive_IT>:
 80045a0:	b580      	push	{r7, lr}
 80045a2:	b084      	sub	sp, #16
 80045a4:	af00      	add	r7, sp, #0
 80045a6:	60f8      	str	r0, [r7, #12]
 80045a8:	60b9      	str	r1, [r7, #8]
 80045aa:	4613      	mov	r3, r2
 80045ac:	80fb      	strh	r3, [r7, #6]
 80045ae:	68fb      	ldr	r3, [r7, #12]
 80045b0:	f8d3 3088 	ldr.w	r3, [r3, #136]	; 0x88
 80045b4:	2b20      	cmp	r3, #32
 80045b6:	d131      	bne.n	800461c <HAL_UART_Receive_IT+0x7c>
 80045b8:	68bb      	ldr	r3, [r7, #8]
 80045ba:	2b00      	cmp	r3, #0
 80045bc:	d002      	beq.n	80045c4 <HAL_UART_Receive_IT+0x24>
 80045be:	88fb      	ldrh	r3, [r7, #6]
 80045c0:	2b00      	cmp	r3, #0
 80045c2:	d101      	bne.n	80045c8 <HAL_UART_Receive_IT+0x28>
 80045c4:	2301      	movs	r3, #1
 80045c6:	e02a      	b.n	800461e <HAL_UART_Receive_IT+0x7e>
 80045c8:	68fb      	ldr	r3, [r7, #12]
 80045ca:	f893 3080 	ldrb.w	r3, [r3, #128]	; 0x80
 80045ce:	2b01      	cmp	r3, #1
 80045d0:	d101      	bne.n	80045d6 <HAL_UART_Receive_IT+0x36>
 80045d2:	2302      	movs	r3, #2
 80045d4:	e023      	b.n	800461e <HAL_UART_Receive_IT+0x7e>
 80045d6:	68fb      	ldr	r3, [r7, #12]
 80045d8:	2201      	movs	r2, #1
 80045da:	f883 2080 	strb.w	r2, [r3, #128]	; 0x80
 80045de:	68fb      	ldr	r3, [r7, #12]
 80045e0:	2200      	movs	r2, #0
 80045e2:	66da      	str	r2, [r3, #108]	; 0x6c
 80045e4:	68fb      	ldr	r3, [r7, #12]
 80045e6:	681b      	ldr	r3, [r3, #0]
 80045e8:	4a0f      	ldr	r2, [pc, #60]	; (8004628 <HAL_UART_Receive_IT+0x88>)
 80045ea:	4293      	cmp	r3, r2
 80045ec:	d00e      	beq.n	800460c <HAL_UART_Receive_IT+0x6c>
 80045ee:	68fb      	ldr	r3, [r7, #12]
 80045f0:	681b      	ldr	r3, [r3, #0]
 80045f2:	685b      	ldr	r3, [r3, #4]
 80045f4:	f403 0300 	and.w	r3, r3, #8388608	; 0x800000
 80045f8:	2b00      	cmp	r3, #0
 80045fa:	d007      	beq.n	800460c <HAL_UART_Receive_IT+0x6c>
 80045fc:	68fb      	ldr	r3, [r7, #12]
 80045fe:	681b      	ldr	r3, [r3, #0]
 8004600:	681a      	ldr	r2, [r3, #0]
 8004602:	68fb      	ldr	r3, [r7, #12]
 8004604:	681b      	ldr	r3, [r3, #0]
 8004606:	f042 6280 	orr.w	r2, r2, #67108864	; 0x4000000
 800460a:	601a      	str	r2, [r3, #0]
 800460c:	88fb      	ldrh	r3, [r7, #6]
 800460e:	461a      	mov	r2, r3
 8004610:	68b9      	ldr	r1, [r7, #8]
 8004612:	68f8      	ldr	r0, [r7, #12]
 8004614:	f000 fe96 	bl	8005344 <UART_Start_Receive_IT>
 8004618:	4603      	mov	r3, r0
 800461a:	e000      	b.n	800461e <HAL_UART_Receive_IT+0x7e>
 800461c:	2302      	movs	r3, #2
 800461e:	4618      	mov	r0, r3
 8004620:	3710      	adds	r7, #16
 8004622:	46bd      	mov	sp, r7
 8004624:	bd80      	pop	{r7, pc}
 8004626:	bf00      	nop
 8004628:	40008000 	.word	0x40008000

0800462c <HAL_UART_IRQHandler>:
 800462c:	b580      	push	{r7, lr}
 800462e:	b088      	sub	sp, #32
 8004630:	af00      	add	r7, sp, #0
 8004632:	6078      	str	r0, [r7, #4]
 8004634:	687b      	ldr	r3, [r7, #4]
 8004636:	681b      	ldr	r3, [r3, #0]
 8004638:	69db      	ldr	r3, [r3, #28]
 800463a:	61fb      	str	r3, [r7, #28]
 800463c:	687b      	ldr	r3, [r7, #4]
 800463e:	681b      	ldr	r3, [r3, #0]
 8004640:	681b      	ldr	r3, [r3, #0]
 8004642:	61bb      	str	r3, [r7, #24]
 8004644:	687b      	ldr	r3, [r7, #4]
 8004646:	681b      	ldr	r3, [r3, #0]
 8004648:	689b      	ldr	r3, [r3, #8]
 800464a:	617b      	str	r3, [r7, #20]
 800464c:	69fa      	ldr	r2, [r7, #28]
 800464e:	f640 030f 	movw	r3, #2063	; 0x80f
 8004652:	4013      	ands	r3, r2
 8004654:	613b      	str	r3, [r7, #16]
 8004656:	693b      	ldr	r3, [r7, #16]
 8004658:	2b00      	cmp	r3, #0
 800465a:	d118      	bne.n	800468e <HAL_UART_IRQHandler+0x62>
 800465c:	69fb      	ldr	r3, [r7, #28]
 800465e:	f003 0320 	and.w	r3, r3, #32
 8004662:	2b00      	cmp	r3, #0
 8004664:	d013      	beq.n	800468e <HAL_UART_IRQHandler+0x62>
 8004666:	69bb      	ldr	r3, [r7, #24]
 8004668:	f003 0320 	and.w	r3, r3, #32
 800466c:	2b00      	cmp	r3, #0
 800466e:	d104      	bne.n	800467a <HAL_UART_IRQHandler+0x4e>
 8004670:	697b      	ldr	r3, [r7, #20]
 8004672:	f003 5380 	and.w	r3, r3, #268435456	; 0x10000000
 8004676:	2b00      	cmp	r3, #0
 8004678:	d009      	beq.n	800468e <HAL_UART_IRQHandler+0x62>
 800467a:	687b      	ldr	r3, [r7, #4]
 800467c:	6f1b      	ldr	r3, [r3, #112]	; 0x70
 800467e:	2b00      	cmp	r3, #0
 8004680:	f000 81fb 	beq.w	8004a7a <HAL_UART_IRQHandler+0x44e>
 8004684:	687b      	ldr	r3, [r7, #4]
 8004686:	6f1b      	ldr	r3, [r3, #112]	; 0x70
 8004688:	6878      	ldr	r0, [r7, #4]
 800468a:	4798      	blx	r3
 800468c:	e1f5      	b.n	8004a7a <HAL_UART_IRQHandler+0x44e>
 800468e:	693b      	ldr	r3, [r7, #16]
 8004690:	2b00      	cmp	r3, #0
 8004692:	f000 80ef 	beq.w	8004874 <HAL_UART_IRQHandler+0x248>
 8004696:	697a      	ldr	r2, [r7, #20]
 8004698:	4b73      	ldr	r3, [pc, #460]	; (8004868 <HAL_UART_IRQHandler+0x23c>)
 800469a:	4013      	ands	r3, r2
 800469c:	2b00      	cmp	r3, #0
 800469e:	d105      	bne.n	80046ac <HAL_UART_IRQHandler+0x80>
 80046a0:	69ba      	ldr	r2, [r7, #24]
 80046a2:	4b72      	ldr	r3, [pc, #456]	; (800486c <HAL_UART_IRQHandler+0x240>)
 80046a4:	4013      	ands	r3, r2
 80046a6:	2b00      	cmp	r3, #0
 80046a8:	f000 80e4 	beq.w	8004874 <HAL_UART_IRQHandler+0x248>
 80046ac:	69fb      	ldr	r3, [r7, #28]
 80046ae:	f003 0301 	and.w	r3, r3, #1
 80046b2:	2b00      	cmp	r3, #0
 80046b4:	d010      	beq.n	80046d8 <HAL_UART_IRQHandler+0xac>
 80046b6:	69bb      	ldr	r3, [r7, #24]
 80046b8:	f403 7380 	and.w	r3, r3, #256	; 0x100
 80046bc:	2b00      	cmp	r3, #0
 80046be:	d00b      	beq.n	80046d8 <HAL_UART_IRQHandler+0xac>
 80046c0:	687b      	ldr	r3, [r7, #4]
 80046c2:	681b      	ldr	r3, [r3, #0]
 80046c4:	2201      	movs	r2, #1
 80046c6:	621a      	str	r2, [r3, #32]
 80046c8:	687b      	ldr	r3, [r7, #4]
 80046ca:	f8d3 308c 	ldr.w	r3, [r3, #140]	; 0x8c
 80046ce:	f043 0201 	orr.w	r2, r3, #1
 80046d2:	687b      	ldr	r3, [r7, #4]
 80046d4:	f8c3 208c 	str.w	r2, [r3, #140]	; 0x8c
 80046d8:	69fb      	ldr	r3, [r7, #28]
 80046da:	f003 0302 	and.w	r3, r3, #2
 80046de:	2b00      	cmp	r3, #0
 80046e0:	d010      	beq.n	8004704 <HAL_UART_IRQHandler+0xd8>
 80046e2:	697b      	ldr	r3, [r7, #20]
 80046e4:	f003 0301 	and.w	r3, r3, #1
 80046e8:	2b00      	cmp	r3, #0
 80046ea:	d00b      	beq.n	8004704 <HAL_UART_IRQHandler+0xd8>
 80046ec:	687b      	ldr	r3, [r7, #4]
 80046ee:	681b      	ldr	r3, [r3, #0]
 80046f0:	2202      	movs	r2, #2
 80046f2:	621a      	str	r2, [r3, #32]
 80046f4:	687b      	ldr	r3, [r7, #4]
 80046f6:	f8d3 308c 	ldr.w	r3, [r3, #140]	; 0x8c
 80046fa:	f043 0204 	orr.w	r2, r3, #4
 80046fe:	687b      	ldr	r3, [r7, #4]
 8004700:	f8c3 208c 	str.w	r2, [r3, #140]	; 0x8c
 8004704:	69fb      	ldr	r3, [r7, #28]
 8004706:	f003 0304 	and.w	r3, r3, #4
 800470a:	2b00      	cmp	r3, #0
 800470c:	d010      	beq.n	8004730 <HAL_UART_IRQHandler+0x104>
 800470e:	697b      	ldr	r3, [r7, #20]
 8004710:	f003 0301 	and.w	r3, r3, #1
 8004714:	2b00      	cmp	r3, #0
 8004716:	d00b      	beq.n	8004730 <HAL_UART_IRQHandler+0x104>
 8004718:	687b      	ldr	r3, [r7, #4]
 800471a:	681b      	ldr	r3, [r3, #0]
 800471c:	2204      	movs	r2, #4
 800471e:	621a      	str	r2, [r3, #32]
 8004720:	687b      	ldr	r3, [r7, #4]
 8004722:	f8d3 308c 	ldr.w	r3, [r3, #140]	; 0x8c
 8004726:	f043 0202 	orr.w	r2, r3, #2
 800472a:	687b      	ldr	r3, [r7, #4]
 800472c:	f8c3 208c 	str.w	r2, [r3, #140]	; 0x8c
 8004730:	69fb      	ldr	r3, [r7, #28]
 8004732:	f003 0308 	and.w	r3, r3, #8
 8004736:	2b00      	cmp	r3, #0
 8004738:	d015      	beq.n	8004766 <HAL_UART_IRQHandler+0x13a>
 800473a:	69bb      	ldr	r3, [r7, #24]
 800473c:	f003 0320 	and.w	r3, r3, #32
 8004740:	2b00      	cmp	r3, #0
 8004742:	d104      	bne.n	800474e <HAL_UART_IRQHandler+0x122>
 8004744:	697a      	ldr	r2, [r7, #20]
 8004746:	4b48      	ldr	r3, [pc, #288]	; (8004868 <HAL_UART_IRQHandler+0x23c>)
 8004748:	4013      	ands	r3, r2
 800474a:	2b00      	cmp	r3, #0
 800474c:	d00b      	beq.n	8004766 <HAL_UART_IRQHandler+0x13a>
 800474e:	687b      	ldr	r3, [r7, #4]
 8004750:	681b      	ldr	r3, [r3, #0]
 8004752:	2208      	movs	r2, #8
 8004754:	621a      	str	r2, [r3, #32]
 8004756:	687b      	ldr	r3, [r7, #4]
 8004758:	f8d3 308c 	ldr.w	r3, [r3, #140]	; 0x8c
 800475c:	f043 0208 	orr.w	r2, r3, #8
 8004760:	687b      	ldr	r3, [r7, #4]
 8004762:	f8c3 208c 	str.w	r2, [r3, #140]	; 0x8c
 8004766:	69fb      	ldr	r3, [r7, #28]
 8004768:	f403 6300 	and.w	r3, r3, #2048	; 0x800
 800476c:	2b00      	cmp	r3, #0
 800476e:	d011      	beq.n	8004794 <HAL_UART_IRQHandler+0x168>
 8004770:	69bb      	ldr	r3, [r7, #24]
 8004772:	f003 6380 	and.w	r3, r3, #67108864	; 0x4000000
 8004776:	2b00      	cmp	r3, #0
 8004778:	d00c      	beq.n	8004794 <HAL_UART_IRQHandler+0x168>
 800477a:	687b      	ldr	r3, [r7, #4]
 800477c:	681b      	ldr	r3, [r3, #0]
 800477e:	f44f 6200 	mov.w	r2, #2048	; 0x800
 8004782:	621a      	str	r2, [r3, #32]
 8004784:	687b      	ldr	r3, [r7, #4]
 8004786:	f8d3 308c 	ldr.w	r3, [r3, #140]	; 0x8c
 800478a:	f043 0220 	orr.w	r2, r3, #32
 800478e:	687b      	ldr	r3, [r7, #4]
 8004790:	f8c3 208c 	str.w	r2, [r3, #140]	; 0x8c
 8004794:	687b      	ldr	r3, [r7, #4]
 8004796:	f8d3 308c 	ldr.w	r3, [r3, #140]	; 0x8c
 800479a:	2b00      	cmp	r3, #0
 800479c:	f000 816f 	beq.w	8004a7e <HAL_UART_IRQHandler+0x452>
 80047a0:	69fb      	ldr	r3, [r7, #28]
 80047a2:	f003 0320 	and.w	r3, r3, #32
 80047a6:	2b00      	cmp	r3, #0
 80047a8:	d011      	beq.n	80047ce <HAL_UART_IRQHandler+0x1a2>
 80047aa:	69bb      	ldr	r3, [r7, #24]
 80047ac:	f003 0320 	and.w	r3, r3, #32
 80047b0:	2b00      	cmp	r3, #0
 80047b2:	d104      	bne.n	80047be <HAL_UART_IRQHandler+0x192>
 80047b4:	697b      	ldr	r3, [r7, #20]
 80047b6:	f003 5380 	and.w	r3, r3, #268435456	; 0x10000000
 80047ba:	2b00      	cmp	r3, #0
 80047bc:	d007      	beq.n	80047ce <HAL_UART_IRQHandler+0x1a2>
 80047be:	687b      	ldr	r3, [r7, #4]
 80047c0:	6f1b      	ldr	r3, [r3, #112]	; 0x70
 80047c2:	2b00      	cmp	r3, #0
 80047c4:	d003      	beq.n	80047ce <HAL_UART_IRQHandler+0x1a2>
 80047c6:	687b      	ldr	r3, [r7, #4]
 80047c8:	6f1b      	ldr	r3, [r3, #112]	; 0x70
 80047ca:	6878      	ldr	r0, [r7, #4]
 80047cc:	4798      	blx	r3
 80047ce:	687b      	ldr	r3, [r7, #4]
 80047d0:	f8d3 308c 	ldr.w	r3, [r3, #140]	; 0x8c
 80047d4:	60fb      	str	r3, [r7, #12]
 80047d6:	687b      	ldr	r3, [r7, #4]
 80047d8:	681b      	ldr	r3, [r3, #0]
 80047da:	689b      	ldr	r3, [r3, #8]
 80047dc:	f003 0340 	and.w	r3, r3, #64	; 0x40
 80047e0:	2b40      	cmp	r3, #64	; 0x40
 80047e2:	d004      	beq.n	80047ee <HAL_UART_IRQHandler+0x1c2>
 80047e4:	68fb      	ldr	r3, [r7, #12]
 80047e6:	f003 0328 	and.w	r3, r3, #40	; 0x28
 80047ea:	2b00      	cmp	r3, #0
 80047ec:	d031      	beq.n	8004852 <HAL_UART_IRQHandler+0x226>
 80047ee:	6878      	ldr	r0, [r7, #4]
 80047f0:	f000 fe66 	bl	80054c0 <UART_EndRxTransfer>
 80047f4:	687b      	ldr	r3, [r7, #4]
 80047f6:	681b      	ldr	r3, [r3, #0]
 80047f8:	689b      	ldr	r3, [r3, #8]
 80047fa:	f003 0340 	and.w	r3, r3, #64	; 0x40
 80047fe:	2b40      	cmp	r3, #64	; 0x40
 8004800:	d123      	bne.n	800484a <HAL_UART_IRQHandler+0x21e>
 8004802:	687b      	ldr	r3, [r7, #4]
 8004804:	681b      	ldr	r3, [r3, #0]
 8004806:	689a      	ldr	r2, [r3, #8]
 8004808:	687b      	ldr	r3, [r7, #4]
 800480a:	681b      	ldr	r3, [r3, #0]
 800480c:	f022 0240 	bic.w	r2, r2, #64	; 0x40
 8004810:	609a      	str	r2, [r3, #8]
 8004812:	687b      	ldr	r3, [r7, #4]
 8004814:	6fdb      	ldr	r3, [r3, #124]	; 0x7c
 8004816:	2b00      	cmp	r3, #0
 8004818:	d013      	beq.n	8004842 <HAL_UART_IRQHandler+0x216>
 800481a:	687b      	ldr	r3, [r7, #4]
 800481c:	6fdb      	ldr	r3, [r3, #124]	; 0x7c
 800481e:	4a14      	ldr	r2, [pc, #80]	; (8004870 <HAL_UART_IRQHandler+0x244>)
 8004820:	639a      	str	r2, [r3, #56]	; 0x38
 8004822:	687b      	ldr	r3, [r7, #4]
 8004824:	6fdb      	ldr	r3, [r3, #124]	; 0x7c
 8004826:	4618      	mov	r0, r3
 8004828:	f7fe fa12 	bl	8002c50 <HAL_DMA_Abort_IT>
 800482c:	4603      	mov	r3, r0
 800482e:	2b00      	cmp	r3, #0
 8004830:	d017      	beq.n	8004862 <HAL_UART_IRQHandler+0x236>
 8004832:	687b      	ldr	r3, [r7, #4]
 8004834:	6fdb      	ldr	r3, [r3, #124]	; 0x7c
 8004836:	6b9b      	ldr	r3, [r3, #56]	; 0x38
 8004838:	687a      	ldr	r2, [r7, #4]
 800483a:	6fd2      	ldr	r2, [r2, #124]	; 0x7c
 800483c:	4610      	mov	r0, r2
 800483e:	4798      	blx	r3
 8004840:	e00f      	b.n	8004862 <HAL_UART_IRQHandler+0x236>
 8004842:	6878      	ldr	r0, [r7, #4]
 8004844:	f000 f930 	bl	8004aa8 <HAL_UART_ErrorCallback>
 8004848:	e00b      	b.n	8004862 <HAL_UART_IRQHandler+0x236>
 800484a:	6878      	ldr	r0, [r7, #4]
 800484c:	f000 f92c 	bl	8004aa8 <HAL_UART_ErrorCallback>
 8004850:	e007      	b.n	8004862 <HAL_UART_IRQHandler+0x236>
 8004852:	6878      	ldr	r0, [r7, #4]
 8004854:	f000 f928 	bl	8004aa8 <HAL_UART_ErrorCallback>
 8004858:	687b      	ldr	r3, [r7, #4]
 800485a:	2200      	movs	r2, #0
 800485c:	f8c3 208c 	str.w	r2, [r3, #140]	; 0x8c
 8004860:	e10d      	b.n	8004a7e <HAL_UART_IRQHandler+0x452>
 8004862:	bf00      	nop
 8004864:	e10b      	b.n	8004a7e <HAL_UART_IRQHandler+0x452>
 8004866:	bf00      	nop
 8004868:	10000001 	.word	0x10000001
 800486c:	04000120 	.word	0x04000120
 8004870:	08005525 	.word	0x08005525
 8004874:	687b      	ldr	r3, [r7, #4]
 8004876:	6edb      	ldr	r3, [r3, #108]	; 0x6c
 8004878:	2b01      	cmp	r3, #1
 800487a:	f040 80ab 	bne.w	80049d4 <HAL_UART_IRQHandler+0x3a8>
 800487e:	69fb      	ldr	r3, [r7, #28]
 8004880:	f003 0310 	and.w	r3, r3, #16
 8004884:	2b00      	cmp	r3, #0
 8004886:	f000 80a5 	beq.w	80049d4 <HAL_UART_IRQHandler+0x3a8>
 800488a:	69bb      	ldr	r3, [r7, #24]
 800488c:	f003 0310 	and.w	r3, r3, #16
 8004890:	2b00      	cmp	r3, #0
 8004892:	f000 809f 	beq.w	80049d4 <HAL_UART_IRQHandler+0x3a8>
 8004896:	687b      	ldr	r3, [r7, #4]
 8004898:	681b      	ldr	r3, [r3, #0]
 800489a:	2210      	movs	r2, #16
 800489c:	621a      	str	r2, [r3, #32]
 800489e:	687b      	ldr	r3, [r7, #4]
 80048a0:	681b      	ldr	r3, [r3, #0]
 80048a2:	689b      	ldr	r3, [r3, #8]
 80048a4:	f003 0340 	and.w	r3, r3, #64	; 0x40
 80048a8:	2b40      	cmp	r3, #64	; 0x40
 80048aa:	d155      	bne.n	8004958 <HAL_UART_IRQHandler+0x32c>
 80048ac:	687b      	ldr	r3, [r7, #4]
 80048ae:	6fdb      	ldr	r3, [r3, #124]	; 0x7c
 80048b0:	681b      	ldr	r3, [r3, #0]
 80048b2:	685b      	ldr	r3, [r3, #4]
 80048b4:	813b      	strh	r3, [r7, #8]
 80048b6:	893b      	ldrh	r3, [r7, #8]
 80048b8:	2b00      	cmp	r3, #0
 80048ba:	f000 80e2 	beq.w	8004a82 <HAL_UART_IRQHandler+0x456>
 80048be:	687b      	ldr	r3, [r7, #4]
 80048c0:	f8b3 305c 	ldrh.w	r3, [r3, #92]	; 0x5c
 80048c4:	893a      	ldrh	r2, [r7, #8]
 80048c6:	429a      	cmp	r2, r3
 80048c8:	f080 80db 	bcs.w	8004a82 <HAL_UART_IRQHandler+0x456>
 80048cc:	687b      	ldr	r3, [r7, #4]
 80048ce:	893a      	ldrh	r2, [r7, #8]
 80048d0:	f8a3 205e 	strh.w	r2, [r3, #94]	; 0x5e
 80048d4:	687b      	ldr	r3, [r7, #4]
 80048d6:	6fdb      	ldr	r3, [r3, #124]	; 0x7c
 80048d8:	681b      	ldr	r3, [r3, #0]
 80048da:	681b      	ldr	r3, [r3, #0]
 80048dc:	f003 0320 	and.w	r3, r3, #32
 80048e0:	2b00      	cmp	r3, #0
 80048e2:	d12b      	bne.n	800493c <HAL_UART_IRQHandler+0x310>
 80048e4:	687b      	ldr	r3, [r7, #4]
 80048e6:	681b      	ldr	r3, [r3, #0]
 80048e8:	681a      	ldr	r2, [r3, #0]
 80048ea:	687b      	ldr	r3, [r7, #4]
 80048ec:	681b      	ldr	r3, [r3, #0]
 80048ee:	f422 7280 	bic.w	r2, r2, #256	; 0x100
 80048f2:	601a      	str	r2, [r3, #0]
 80048f4:	687b      	ldr	r3, [r7, #4]
 80048f6:	681b      	ldr	r3, [r3, #0]
 80048f8:	689a      	ldr	r2, [r3, #8]
 80048fa:	687b      	ldr	r3, [r7, #4]
 80048fc:	681b      	ldr	r3, [r3, #0]
 80048fe:	f022 0201 	bic.w	r2, r2, #1
 8004902:	609a      	str	r2, [r3, #8]
 8004904:	687b      	ldr	r3, [r7, #4]
 8004906:	681b      	ldr	r3, [r3, #0]
 8004908:	689a      	ldr	r2, [r3, #8]
 800490a:	687b      	ldr	r3, [r7, #4]
 800490c:	681b      	ldr	r3, [r3, #0]
 800490e:	f022 0240 	bic.w	r2, r2, #64	; 0x40
 8004912:	609a      	str	r2, [r3, #8]
 8004914:	687b      	ldr	r3, [r7, #4]
 8004916:	2220      	movs	r2, #32
 8004918:	f8c3 2088 	str.w	r2, [r3, #136]	; 0x88
 800491c:	687b      	ldr	r3, [r7, #4]
 800491e:	2200      	movs	r2, #0
 8004920:	66da      	str	r2, [r3, #108]	; 0x6c
 8004922:	687b      	ldr	r3, [r7, #4]
 8004924:	681b      	ldr	r3, [r3, #0]
 8004926:	681a      	ldr	r2, [r3, #0]
 8004928:	687b      	ldr	r3, [r7, #4]
 800492a:	681b      	ldr	r3, [r3, #0]
 800492c:	f022 0210 	bic.w	r2, r2, #16
 8004930:	601a      	str	r2, [r3, #0]
 8004932:	687b      	ldr	r3, [r7, #4]
 8004934:	6fdb      	ldr	r3, [r3, #124]	; 0x7c
 8004936:	4618      	mov	r0, r3
 8004938:	f7fe f931 	bl	8002b9e <HAL_DMA_Abort>
 800493c:	687b      	ldr	r3, [r7, #4]
 800493e:	f8b3 205c 	ldrh.w	r2, [r3, #92]	; 0x5c
 8004942:	687b      	ldr	r3, [r7, #4]
 8004944:	f8b3 305e 	ldrh.w	r3, [r3, #94]	; 0x5e
 8004948:	b29b      	uxth	r3, r3
 800494a:	1ad3      	subs	r3, r2, r3
 800494c:	b29b      	uxth	r3, r3
 800494e:	4619      	mov	r1, r3
 8004950:	6878      	ldr	r0, [r7, #4]
 8004952:	f000 f8b3 	bl	8004abc <HAL_UARTEx_RxEventCallback>
 8004956:	e094      	b.n	8004a82 <HAL_UART_IRQHandler+0x456>
 8004958:	687b      	ldr	r3, [r7, #4]
 800495a:	f8b3 205c 	ldrh.w	r2, [r3, #92]	; 0x5c
 800495e:	687b      	ldr	r3, [r7, #4]
 8004960:	f8b3 305e 	ldrh.w	r3, [r3, #94]	; 0x5e
 8004964:	b29b      	uxth	r3, r3
 8004966:	1ad3      	subs	r3, r2, r3
 8004968:	817b      	strh	r3, [r7, #10]
 800496a:	687b      	ldr	r3, [r7, #4]
 800496c:	f8b3 305e 	ldrh.w	r3, [r3, #94]	; 0x5e
 8004970:	b29b      	uxth	r3, r3
 8004972:	2b00      	cmp	r3, #0
 8004974:	f000 8087 	beq.w	8004a86 <HAL_UART_IRQHandler+0x45a>
 8004978:	897b      	ldrh	r3, [r7, #10]
 800497a:	2b00      	cmp	r3, #0
 800497c:	f000 8083 	beq.w	8004a86 <HAL_UART_IRQHandler+0x45a>
 8004980:	687b      	ldr	r3, [r7, #4]
 8004982:	681b      	ldr	r3, [r3, #0]
 8004984:	681a      	ldr	r2, [r3, #0]
 8004986:	687b      	ldr	r3, [r7, #4]
 8004988:	681b      	ldr	r3, [r3, #0]
 800498a:	f422 7290 	bic.w	r2, r2, #288	; 0x120
 800498e:	601a      	str	r2, [r3, #0]
 8004990:	687b      	ldr	r3, [r7, #4]
 8004992:	681b      	ldr	r3, [r3, #0]
 8004994:	689b      	ldr	r3, [r3, #8]
 8004996:	687a      	ldr	r2, [r7, #4]
 8004998:	6812      	ldr	r2, [r2, #0]
 800499a:	f023 5380 	bic.w	r3, r3, #268435456	; 0x10000000
 800499e:	f023 0301 	bic.w	r3, r3, #1
 80049a2:	6093      	str	r3, [r2, #8]
 80049a4:	687b      	ldr	r3, [r7, #4]
 80049a6:	2220      	movs	r2, #32
 80049a8:	f8c3 2088 	str.w	r2, [r3, #136]	; 0x88
 80049ac:	687b      	ldr	r3, [r7, #4]
 80049ae:	2200      	movs	r2, #0
 80049b0:	66da      	str	r2, [r3, #108]	; 0x6c
 80049b2:	687b      	ldr	r3, [r7, #4]
 80049b4:	2200      	movs	r2, #0
 80049b6:	671a      	str	r2, [r3, #112]	; 0x70
 80049b8:	687b      	ldr	r3, [r7, #4]
 80049ba:	681b      	ldr	r3, [r3, #0]
 80049bc:	681a      	ldr	r2, [r3, #0]
 80049be:	687b      	ldr	r3, [r7, #4]
 80049c0:	681b      	ldr	r3, [r3, #0]
 80049c2:	f022 0210 	bic.w	r2, r2, #16
 80049c6:	601a      	str	r2, [r3, #0]
 80049c8:	897b      	ldrh	r3, [r7, #10]
 80049ca:	4619      	mov	r1, r3
 80049cc:	6878      	ldr	r0, [r7, #4]
 80049ce:	f000 f875 	bl	8004abc <HAL_UARTEx_RxEventCallback>
 80049d2:	e058      	b.n	8004a86 <HAL_UART_IRQHandler+0x45a>
 80049d4:	69fb      	ldr	r3, [r7, #28]
 80049d6:	f403 1380 	and.w	r3, r3, #1048576	; 0x100000
 80049da:	2b00      	cmp	r3, #0
 80049dc:	d00d      	beq.n	80049fa <HAL_UART_IRQHandler+0x3ce>
 80049de:	697b      	ldr	r3, [r7, #20]
 80049e0:	f403 0380 	and.w	r3, r3, #4194304	; 0x400000
 80049e4:	2b00      	cmp	r3, #0
 80049e6:	d008      	beq.n	80049fa <HAL_UART_IRQHandler+0x3ce>
 80049e8:	687b      	ldr	r3, [r7, #4]
 80049ea:	681b      	ldr	r3, [r3, #0]
 80049ec:	f44f 1280 	mov.w	r2, #1048576	; 0x100000
 80049f0:	621a      	str	r2, [r3, #32]
 80049f2:	6878      	ldr	r0, [r7, #4]
 80049f4:	f001 f8a2 	bl	8005b3c <HAL_UARTEx_WakeupCallback>
 80049f8:	e048      	b.n	8004a8c <HAL_UART_IRQHandler+0x460>
 80049fa:	69fb      	ldr	r3, [r7, #28]
 80049fc:	f003 0380 	and.w	r3, r3, #128	; 0x80
 8004a00:	2b00      	cmp	r3, #0
 8004a02:	d012      	beq.n	8004a2a <HAL_UART_IRQHandler+0x3fe>
 8004a04:	69bb      	ldr	r3, [r7, #24]
 8004a06:	f003 0380 	and.w	r3, r3, #128	; 0x80
 8004a0a:	2b00      	cmp	r3, #0
 8004a0c:	d104      	bne.n	8004a18 <HAL_UART_IRQHandler+0x3ec>
 8004a0e:	697b      	ldr	r3, [r7, #20]
 8004a10:	f403 0300 	and.w	r3, r3, #8388608	; 0x800000
 8004a14:	2b00      	cmp	r3, #0
 8004a16:	d008      	beq.n	8004a2a <HAL_UART_IRQHandler+0x3fe>
 8004a18:	687b      	ldr	r3, [r7, #4]
 8004a1a:	6f5b      	ldr	r3, [r3, #116]	; 0x74
 8004a1c:	2b00      	cmp	r3, #0
 8004a1e:	d034      	beq.n	8004a8a <HAL_UART_IRQHandler+0x45e>
 8004a20:	687b      	ldr	r3, [r7, #4]
 8004a22:	6f5b      	ldr	r3, [r3, #116]	; 0x74
 8004a24:	6878      	ldr	r0, [r7, #4]
 8004a26:	4798      	blx	r3
 8004a28:	e02f      	b.n	8004a8a <HAL_UART_IRQHandler+0x45e>
 8004a2a:	69fb      	ldr	r3, [r7, #28]
 8004a2c:	f003 0340 	and.w	r3, r3, #64	; 0x40
 8004a30:	2b00      	cmp	r3, #0
 8004a32:	d008      	beq.n	8004a46 <HAL_UART_IRQHandler+0x41a>
 8004a34:	69bb      	ldr	r3, [r7, #24]
 8004a36:	f003 0340 	and.w	r3, r3, #64	; 0x40
 8004a3a:	2b00      	cmp	r3, #0
 8004a3c:	d003      	beq.n	8004a46 <HAL_UART_IRQHandler+0x41a>
 8004a3e:	6878      	ldr	r0, [r7, #4]
 8004a40:	f000 fd86 	bl	8005550 <UART_EndTransmit_IT>
 8004a44:	e022      	b.n	8004a8c <HAL_UART_IRQHandler+0x460>
 8004a46:	69fb      	ldr	r3, [r7, #28]
 8004a48:	f403 0300 	and.w	r3, r3, #8388608	; 0x800000
 8004a4c:	2b00      	cmp	r3, #0
 8004a4e:	d008      	beq.n	8004a62 <HAL_UART_IRQHandler+0x436>
 8004a50:	69bb      	ldr	r3, [r7, #24]
 8004a52:	f003 4380 	and.w	r3, r3, #1073741824	; 0x40000000
 8004a56:	2b00      	cmp	r3, #0
 8004a58:	d003      	beq.n	8004a62 <HAL_UART_IRQHandler+0x436>
 8004a5a:	6878      	ldr	r0, [r7, #4]
 8004a5c:	f001 f882 	bl	8005b64 <HAL_UARTEx_TxFifoEmptyCallback>
 8004a60:	e014      	b.n	8004a8c <HAL_UART_IRQHandler+0x460>
 8004a62:	69fb      	ldr	r3, [r7, #28]
 8004a64:	f003 7380 	and.w	r3, r3, #16777216	; 0x1000000
 8004a68:	2b00      	cmp	r3, #0
 8004a6a:	d00f      	beq.n	8004a8c <HAL_UART_IRQHandler+0x460>
 8004a6c:	69bb      	ldr	r3, [r7, #24]
 8004a6e:	2b00      	cmp	r3, #0
 8004a70:	da0c      	bge.n	8004a8c <HAL_UART_IRQHandler+0x460>
 8004a72:	6878      	ldr	r0, [r7, #4]
 8004a74:	f001 f86c 	bl	8005b50 <HAL_UARTEx_RxFifoFullCallback>
 8004a78:	e008      	b.n	8004a8c <HAL_UART_IRQHandler+0x460>
 8004a7a:	bf00      	nop
 8004a7c:	e006      	b.n	8004a8c <HAL_UART_IRQHandler+0x460>
 8004a7e:	bf00      	nop
 8004a80:	e004      	b.n	8004a8c <HAL_UART_IRQHandler+0x460>
 8004a82:	bf00      	nop
 8004a84:	e002      	b.n	8004a8c <HAL_UART_IRQHandler+0x460>
 8004a86:	bf00      	nop
 8004a88:	e000      	b.n	8004a8c <HAL_UART_IRQHandler+0x460>
 8004a8a:	bf00      	nop
 8004a8c:	3720      	adds	r7, #32
 8004a8e:	46bd      	mov	sp, r7
 8004a90:	bd80      	pop	{r7, pc}
 8004a92:	bf00      	nop

08004a94 <HAL_UART_TxCpltCallback>:
 8004a94:	b480      	push	{r7}
 8004a96:	b083      	sub	sp, #12
 8004a98:	af00      	add	r7, sp, #0
 8004a9a:	6078      	str	r0, [r7, #4]
 8004a9c:	bf00      	nop
 8004a9e:	370c      	adds	r7, #12
 8004aa0:	46bd      	mov	sp, r7
 8004aa2:	f85d 7b04 	ldr.w	r7, [sp], #4
 8004aa6:	4770      	bx	lr

08004aa8 <HAL_UART_ErrorCallback>:
 8004aa8:	b480      	push	{r7}
 8004aaa:	b083      	sub	sp, #12
 8004aac:	af00      	add	r7, sp, #0
 8004aae:	6078      	str	r0, [r7, #4]
 8004ab0:	bf00      	nop
 8004ab2:	370c      	adds	r7, #12
 8004ab4:	46bd      	mov	sp, r7
 8004ab6:	f85d 7b04 	ldr.w	r7, [sp], #4
 8004aba:	4770      	bx	lr

08004abc <HAL_UARTEx_RxEventCallback>:
 8004abc:	b480      	push	{r7}
 8004abe:	b083      	sub	sp, #12
 8004ac0:	af00      	add	r7, sp, #0
 8004ac2:	6078      	str	r0, [r7, #4]
 8004ac4:	460b      	mov	r3, r1
 8004ac6:	807b      	strh	r3, [r7, #2]
 8004ac8:	bf00      	nop
 8004aca:	370c      	adds	r7, #12
 8004acc:	46bd      	mov	sp, r7
 8004ace:	f85d 7b04 	ldr.w	r7, [sp], #4
 8004ad2:	4770      	bx	lr

08004ad4 <UART_SetConfig>:
 8004ad4:	b5b0      	push	{r4, r5, r7, lr}
 8004ad6:	b088      	sub	sp, #32
 8004ad8:	af00      	add	r7, sp, #0
 8004ada:	6078      	str	r0, [r7, #4]
 8004adc:	2300      	movs	r3, #0
 8004ade:	76bb      	strb	r3, [r7, #26]
 8004ae0:	687b      	ldr	r3, [r7, #4]
 8004ae2:	689a      	ldr	r2, [r3, #8]
 8004ae4:	687b      	ldr	r3, [r7, #4]
 8004ae6:	691b      	ldr	r3, [r3, #16]
 8004ae8:	431a      	orrs	r2, r3
 8004aea:	687b      	ldr	r3, [r7, #4]
 8004aec:	695b      	ldr	r3, [r3, #20]
 8004aee:	431a      	orrs	r2, r3
 8004af0:	687b      	ldr	r3, [r7, #4]
 8004af2:	69db      	ldr	r3, [r3, #28]
 8004af4:	4313      	orrs	r3, r2
 8004af6:	61fb      	str	r3, [r7, #28]
 8004af8:	687b      	ldr	r3, [r7, #4]
 8004afa:	681b      	ldr	r3, [r3, #0]
 8004afc:	681a      	ldr	r2, [r3, #0]
 8004afe:	4bb1      	ldr	r3, [pc, #708]	; (8004dc4 <UART_SetConfig+0x2f0>)
 8004b00:	4013      	ands	r3, r2
 8004b02:	687a      	ldr	r2, [r7, #4]
 8004b04:	6812      	ldr	r2, [r2, #0]
 8004b06:	69f9      	ldr	r1, [r7, #28]
 8004b08:	430b      	orrs	r3, r1
 8004b0a:	6013      	str	r3, [r2, #0]
 8004b0c:	687b      	ldr	r3, [r7, #4]
 8004b0e:	681b      	ldr	r3, [r3, #0]
 8004b10:	685b      	ldr	r3, [r3, #4]
 8004b12:	f423 5140 	bic.w	r1, r3, #12288	; 0x3000
 8004b16:	687b      	ldr	r3, [r7, #4]
 8004b18:	68da      	ldr	r2, [r3, #12]
 8004b1a:	687b      	ldr	r3, [r7, #4]
 8004b1c:	681b      	ldr	r3, [r3, #0]
 8004b1e:	430a      	orrs	r2, r1
 8004b20:	605a      	str	r2, [r3, #4]
 8004b22:	687b      	ldr	r3, [r7, #4]
 8004b24:	699b      	ldr	r3, [r3, #24]
 8004b26:	61fb      	str	r3, [r7, #28]
 8004b28:	687b      	ldr	r3, [r7, #4]
 8004b2a:	681b      	ldr	r3, [r3, #0]
 8004b2c:	4aa6      	ldr	r2, [pc, #664]	; (8004dc8 <UART_SetConfig+0x2f4>)
 8004b2e:	4293      	cmp	r3, r2
 8004b30:	d004      	beq.n	8004b3c <UART_SetConfig+0x68>
 8004b32:	687b      	ldr	r3, [r7, #4]
 8004b34:	6a1b      	ldr	r3, [r3, #32]
 8004b36:	69fa      	ldr	r2, [r7, #28]
 8004b38:	4313      	orrs	r3, r2
 8004b3a:	61fb      	str	r3, [r7, #28]
 8004b3c:	687b      	ldr	r3, [r7, #4]
 8004b3e:	681b      	ldr	r3, [r3, #0]
 8004b40:	689b      	ldr	r3, [r3, #8]
 8004b42:	f023 436e 	bic.w	r3, r3, #3992977408	; 0xee000000
 8004b46:	f423 6330 	bic.w	r3, r3, #2816	; 0xb00
 8004b4a:	687a      	ldr	r2, [r7, #4]
 8004b4c:	6812      	ldr	r2, [r2, #0]
 8004b4e:	69f9      	ldr	r1, [r7, #28]
 8004b50:	430b      	orrs	r3, r1
 8004b52:	6093      	str	r3, [r2, #8]
 8004b54:	687b      	ldr	r3, [r7, #4]
 8004b56:	681b      	ldr	r3, [r3, #0]
 8004b58:	6adb      	ldr	r3, [r3, #44]	; 0x2c
 8004b5a:	f023 010f 	bic.w	r1, r3, #15
 8004b5e:	687b      	ldr	r3, [r7, #4]
 8004b60:	6a5a      	ldr	r2, [r3, #36]	; 0x24
 8004b62:	687b      	ldr	r3, [r7, #4]
 8004b64:	681b      	ldr	r3, [r3, #0]
 8004b66:	430a      	orrs	r2, r1
 8004b68:	62da      	str	r2, [r3, #44]	; 0x2c
 8004b6a:	687b      	ldr	r3, [r7, #4]
 8004b6c:	681b      	ldr	r3, [r3, #0]
 8004b6e:	4a97      	ldr	r2, [pc, #604]	; (8004dcc <UART_SetConfig+0x2f8>)
 8004b70:	4293      	cmp	r3, r2
 8004b72:	d120      	bne.n	8004bb6 <UART_SetConfig+0xe2>
 8004b74:	4b96      	ldr	r3, [pc, #600]	; (8004dd0 <UART_SetConfig+0x2fc>)
 8004b76:	f8d3 3088 	ldr.w	r3, [r3, #136]	; 0x88
 8004b7a:	f003 0303 	and.w	r3, r3, #3
 8004b7e:	2b03      	cmp	r3, #3
 8004b80:	d816      	bhi.n	8004bb0 <UART_SetConfig+0xdc>
 8004b82:	a201      	add	r2, pc, #4	; (adr r2, 8004b88 <UART_SetConfig+0xb4>)
 8004b84:	f852 f023 	ldr.w	pc, [r2, r3, lsl #2]
 8004b88:	08004b99 	.word	0x08004b99
 8004b8c:	08004ba5 	.word	0x08004ba5
 8004b90:	08004b9f 	.word	0x08004b9f
 8004b94:	08004bab 	.word	0x08004bab
 8004b98:	2301      	movs	r3, #1
 8004b9a:	76fb      	strb	r3, [r7, #27]
 8004b9c:	e0e7      	b.n	8004d6e <UART_SetConfig+0x29a>
 8004b9e:	2302      	movs	r3, #2
 8004ba0:	76fb      	strb	r3, [r7, #27]
 8004ba2:	e0e4      	b.n	8004d6e <UART_SetConfig+0x29a>
 8004ba4:	2304      	movs	r3, #4
 8004ba6:	76fb      	strb	r3, [r7, #27]
 8004ba8:	e0e1      	b.n	8004d6e <UART_SetConfig+0x29a>
 8004baa:	2308      	movs	r3, #8
 8004bac:	76fb      	strb	r3, [r7, #27]
 8004bae:	e0de      	b.n	8004d6e <UART_SetConfig+0x29a>
 8004bb0:	2310      	movs	r3, #16
 8004bb2:	76fb      	strb	r3, [r7, #27]
 8004bb4:	e0db      	b.n	8004d6e <UART_SetConfig+0x29a>
 8004bb6:	687b      	ldr	r3, [r7, #4]
 8004bb8:	681b      	ldr	r3, [r3, #0]
 8004bba:	4a86      	ldr	r2, [pc, #536]	; (8004dd4 <UART_SetConfig+0x300>)
 8004bbc:	4293      	cmp	r3, r2
 8004bbe:	d132      	bne.n	8004c26 <UART_SetConfig+0x152>
 8004bc0:	4b83      	ldr	r3, [pc, #524]	; (8004dd0 <UART_SetConfig+0x2fc>)
 8004bc2:	f8d3 3088 	ldr.w	r3, [r3, #136]	; 0x88
 8004bc6:	f003 030c 	and.w	r3, r3, #12
 8004bca:	2b0c      	cmp	r3, #12
 8004bcc:	d828      	bhi.n	8004c20 <UART_SetConfig+0x14c>
 8004bce:	a201      	add	r2, pc, #4	; (adr r2, 8004bd4 <UART_SetConfig+0x100>)
 8004bd0:	f852 f023 	ldr.w	pc, [r2, r3, lsl #2]
 8004bd4:	08004c09 	.word	0x08004c09
 8004bd8:	08004c21 	.word	0x08004c21
 8004bdc:	08004c21 	.word	0x08004c21
 8004be0:	08004c21 	.word	0x08004c21
 8004be4:	08004c15 	.word	0x08004c15
 8004be8:	08004c21 	.word	0x08004c21
 8004bec:	08004c21 	.word	0x08004c21
 8004bf0:	08004c21 	.word	0x08004c21
 8004bf4:	08004c0f 	.word	0x08004c0f
 8004bf8:	08004c21 	.word	0x08004c21
 8004bfc:	08004c21 	.word	0x08004c21
 8004c00:	08004c21 	.word	0x08004c21
 8004c04:	08004c1b 	.word	0x08004c1b
 8004c08:	2300      	movs	r3, #0
 8004c0a:	76fb      	strb	r3, [r7, #27]
 8004c0c:	e0af      	b.n	8004d6e <UART_SetConfig+0x29a>
 8004c0e:	2302      	movs	r3, #2
 8004c10:	76fb      	strb	r3, [r7, #27]
 8004c12:	e0ac      	b.n	8004d6e <UART_SetConfig+0x29a>
 8004c14:	2304      	movs	r3, #4
 8004c16:	76fb      	strb	r3, [r7, #27]
 8004c18:	e0a9      	b.n	8004d6e <UART_SetConfig+0x29a>
 8004c1a:	2308      	movs	r3, #8
 8004c1c:	76fb      	strb	r3, [r7, #27]
 8004c1e:	e0a6      	b.n	8004d6e <UART_SetConfig+0x29a>
 8004c20:	2310      	movs	r3, #16
 8004c22:	76fb      	strb	r3, [r7, #27]
 8004c24:	e0a3      	b.n	8004d6e <UART_SetConfig+0x29a>
 8004c26:	687b      	ldr	r3, [r7, #4]
 8004c28:	681b      	ldr	r3, [r3, #0]
 8004c2a:	4a6b      	ldr	r2, [pc, #428]	; (8004dd8 <UART_SetConfig+0x304>)
 8004c2c:	4293      	cmp	r3, r2
 8004c2e:	d120      	bne.n	8004c72 <UART_SetConfig+0x19e>
 8004c30:	4b67      	ldr	r3, [pc, #412]	; (8004dd0 <UART_SetConfig+0x2fc>)
 8004c32:	f8d3 3088 	ldr.w	r3, [r3, #136]	; 0x88
 8004c36:	f003 0330 	and.w	r3, r3, #48	; 0x30
 8004c3a:	2b30      	cmp	r3, #48	; 0x30
 8004c3c:	d013      	beq.n	8004c66 <UART_SetConfig+0x192>
 8004c3e:	2b30      	cmp	r3, #48	; 0x30
 8004c40:	d814      	bhi.n	8004c6c <UART_SetConfig+0x198>
 8004c42:	2b20      	cmp	r3, #32
 8004c44:	d009      	beq.n	8004c5a <UART_SetConfig+0x186>
 8004c46:	2b20      	cmp	r3, #32
 8004c48:	d810      	bhi.n	8004c6c <UART_SetConfig+0x198>
 8004c4a:	2b00      	cmp	r3, #0
 8004c4c:	d002      	beq.n	8004c54 <UART_SetConfig+0x180>
 8004c4e:	2b10      	cmp	r3, #16
 8004c50:	d006      	beq.n	8004c60 <UART_SetConfig+0x18c>
 8004c52:	e00b      	b.n	8004c6c <UART_SetConfig+0x198>
 8004c54:	2300      	movs	r3, #0
 8004c56:	76fb      	strb	r3, [r7, #27]
 8004c58:	e089      	b.n	8004d6e <UART_SetConfig+0x29a>
 8004c5a:	2302      	movs	r3, #2
 8004c5c:	76fb      	strb	r3, [r7, #27]
 8004c5e:	e086      	b.n	8004d6e <UART_SetConfig+0x29a>
 8004c60:	2304      	movs	r3, #4
 8004c62:	76fb      	strb	r3, [r7, #27]
 8004c64:	e083      	b.n	8004d6e <UART_SetConfig+0x29a>
 8004c66:	2308      	movs	r3, #8
 8004c68:	76fb      	strb	r3, [r7, #27]
 8004c6a:	e080      	b.n	8004d6e <UART_SetConfig+0x29a>
 8004c6c:	2310      	movs	r3, #16
 8004c6e:	76fb      	strb	r3, [r7, #27]
 8004c70:	e07d      	b.n	8004d6e <UART_SetConfig+0x29a>
 8004c72:	687b      	ldr	r3, [r7, #4]
 8004c74:	681b      	ldr	r3, [r3, #0]
 8004c76:	4a59      	ldr	r2, [pc, #356]	; (8004ddc <UART_SetConfig+0x308>)
 8004c78:	4293      	cmp	r3, r2
 8004c7a:	d120      	bne.n	8004cbe <UART_SetConfig+0x1ea>
 8004c7c:	4b54      	ldr	r3, [pc, #336]	; (8004dd0 <UART_SetConfig+0x2fc>)
 8004c7e:	f8d3 3088 	ldr.w	r3, [r3, #136]	; 0x88
 8004c82:	f003 03c0 	and.w	r3, r3, #192	; 0xc0
 8004c86:	2bc0      	cmp	r3, #192	; 0xc0
 8004c88:	d013      	beq.n	8004cb2 <UART_SetConfig+0x1de>
 8004c8a:	2bc0      	cmp	r3, #192	; 0xc0
 8004c8c:	d814      	bhi.n	8004cb8 <UART_SetConfig+0x1e4>
 8004c8e:	2b80      	cmp	r3, #128	; 0x80
 8004c90:	d009      	beq.n	8004ca6 <UART_SetConfig+0x1d2>
 8004c92:	2b80      	cmp	r3, #128	; 0x80
 8004c94:	d810      	bhi.n	8004cb8 <UART_SetConfig+0x1e4>
 8004c96:	2b00      	cmp	r3, #0
 8004c98:	d002      	beq.n	8004ca0 <UART_SetConfig+0x1cc>
 8004c9a:	2b40      	cmp	r3, #64	; 0x40
 8004c9c:	d006      	beq.n	8004cac <UART_SetConfig+0x1d8>
 8004c9e:	e00b      	b.n	8004cb8 <UART_SetConfig+0x1e4>
 8004ca0:	2300      	movs	r3, #0
 8004ca2:	76fb      	strb	r3, [r7, #27]
 8004ca4:	e063      	b.n	8004d6e <UART_SetConfig+0x29a>
 8004ca6:	2302      	movs	r3, #2
 8004ca8:	76fb      	strb	r3, [r7, #27]
 8004caa:	e060      	b.n	8004d6e <UART_SetConfig+0x29a>
 8004cac:	2304      	movs	r3, #4
 8004cae:	76fb      	strb	r3, [r7, #27]
 8004cb0:	e05d      	b.n	8004d6e <UART_SetConfig+0x29a>
 8004cb2:	2308      	movs	r3, #8
 8004cb4:	76fb      	strb	r3, [r7, #27]
 8004cb6:	e05a      	b.n	8004d6e <UART_SetConfig+0x29a>
 8004cb8:	2310      	movs	r3, #16
 8004cba:	76fb      	strb	r3, [r7, #27]
 8004cbc:	e057      	b.n	8004d6e <UART_SetConfig+0x29a>
 8004cbe:	687b      	ldr	r3, [r7, #4]
 8004cc0:	681b      	ldr	r3, [r3, #0]
 8004cc2:	4a47      	ldr	r2, [pc, #284]	; (8004de0 <UART_SetConfig+0x30c>)
 8004cc4:	4293      	cmp	r3, r2
 8004cc6:	d125      	bne.n	8004d14 <UART_SetConfig+0x240>
 8004cc8:	4b41      	ldr	r3, [pc, #260]	; (8004dd0 <UART_SetConfig+0x2fc>)
 8004cca:	f8d3 3088 	ldr.w	r3, [r3, #136]	; 0x88
 8004cce:	f403 7340 	and.w	r3, r3, #768	; 0x300
 8004cd2:	f5b3 7f40 	cmp.w	r3, #768	; 0x300
 8004cd6:	d017      	beq.n	8004d08 <UART_SetConfig+0x234>
 8004cd8:	f5b3 7f40 	cmp.w	r3, #768	; 0x300
 8004cdc:	d817      	bhi.n	8004d0e <UART_SetConfig+0x23a>
 8004cde:	f5b3 7f00 	cmp.w	r3, #512	; 0x200
 8004ce2:	d00b      	beq.n	8004cfc <UART_SetConfig+0x228>
 8004ce4:	f5b3 7f00 	cmp.w	r3, #512	; 0x200
 8004ce8:	d811      	bhi.n	8004d0e <UART_SetConfig+0x23a>
 8004cea:	2b00      	cmp	r3, #0
 8004cec:	d003      	beq.n	8004cf6 <UART_SetConfig+0x222>
 8004cee:	f5b3 7f80 	cmp.w	r3, #256	; 0x100
 8004cf2:	d006      	beq.n	8004d02 <UART_SetConfig+0x22e>
 8004cf4:	e00b      	b.n	8004d0e <UART_SetConfig+0x23a>
 8004cf6:	2300      	movs	r3, #0
 8004cf8:	76fb      	strb	r3, [r7, #27]
 8004cfa:	e038      	b.n	8004d6e <UART_SetConfig+0x29a>
 8004cfc:	2302      	movs	r3, #2
 8004cfe:	76fb      	strb	r3, [r7, #27]
 8004d00:	e035      	b.n	8004d6e <UART_SetConfig+0x29a>
 8004d02:	2304      	movs	r3, #4
 8004d04:	76fb      	strb	r3, [r7, #27]
 8004d06:	e032      	b.n	8004d6e <UART_SetConfig+0x29a>
 8004d08:	2308      	movs	r3, #8
 8004d0a:	76fb      	strb	r3, [r7, #27]
 8004d0c:	e02f      	b.n	8004d6e <UART_SetConfig+0x29a>
 8004d0e:	2310      	movs	r3, #16
 8004d10:	76fb      	strb	r3, [r7, #27]
 8004d12:	e02c      	b.n	8004d6e <UART_SetConfig+0x29a>
 8004d14:	687b      	ldr	r3, [r7, #4]
 8004d16:	681b      	ldr	r3, [r3, #0]
 8004d18:	4a2b      	ldr	r2, [pc, #172]	; (8004dc8 <UART_SetConfig+0x2f4>)
 8004d1a:	4293      	cmp	r3, r2
 8004d1c:	d125      	bne.n	8004d6a <UART_SetConfig+0x296>
 8004d1e:	4b2c      	ldr	r3, [pc, #176]	; (8004dd0 <UART_SetConfig+0x2fc>)
 8004d20:	f8d3 3088 	ldr.w	r3, [r3, #136]	; 0x88
 8004d24:	f403 6340 	and.w	r3, r3, #3072	; 0xc00
 8004d28:	f5b3 6f40 	cmp.w	r3, #3072	; 0xc00
 8004d2c:	d017      	beq.n	8004d5e <UART_SetConfig+0x28a>
 8004d2e:	f5b3 6f40 	cmp.w	r3, #3072	; 0xc00
 8004d32:	d817      	bhi.n	8004d64 <UART_SetConfig+0x290>
 8004d34:	f5b3 6f00 	cmp.w	r3, #2048	; 0x800
 8004d38:	d00b      	beq.n	8004d52 <UART_SetConfig+0x27e>
 8004d3a:	f5b3 6f00 	cmp.w	r3, #2048	; 0x800
 8004d3e:	d811      	bhi.n	8004d64 <UART_SetConfig+0x290>
 8004d40:	2b00      	cmp	r3, #0
 8004d42:	d003      	beq.n	8004d4c <UART_SetConfig+0x278>
 8004d44:	f5b3 6f80 	cmp.w	r3, #1024	; 0x400
 8004d48:	d006      	beq.n	8004d58 <UART_SetConfig+0x284>
 8004d4a:	e00b      	b.n	8004d64 <UART_SetConfig+0x290>
 8004d4c:	2300      	movs	r3, #0
 8004d4e:	76fb      	strb	r3, [r7, #27]
 8004d50:	e00d      	b.n	8004d6e <UART_SetConfig+0x29a>
 8004d52:	2302      	movs	r3, #2
 8004d54:	76fb      	strb	r3, [r7, #27]
 8004d56:	e00a      	b.n	8004d6e <UART_SetConfig+0x29a>
 8004d58:	2304      	movs	r3, #4
 8004d5a:	76fb      	strb	r3, [r7, #27]
 8004d5c:	e007      	b.n	8004d6e <UART_SetConfig+0x29a>
 8004d5e:	2308      	movs	r3, #8
 8004d60:	76fb      	strb	r3, [r7, #27]
 8004d62:	e004      	b.n	8004d6e <UART_SetConfig+0x29a>
 8004d64:	2310      	movs	r3, #16
 8004d66:	76fb      	strb	r3, [r7, #27]
 8004d68:	e001      	b.n	8004d6e <UART_SetConfig+0x29a>
 8004d6a:	2310      	movs	r3, #16
 8004d6c:	76fb      	strb	r3, [r7, #27]
 8004d6e:	687b      	ldr	r3, [r7, #4]
 8004d70:	681b      	ldr	r3, [r3, #0]
 8004d72:	4a15      	ldr	r2, [pc, #84]	; (8004dc8 <UART_SetConfig+0x2f4>)
 8004d74:	4293      	cmp	r3, r2
 8004d76:	f040 809f 	bne.w	8004eb8 <UART_SetConfig+0x3e4>
 8004d7a:	7efb      	ldrb	r3, [r7, #27]
 8004d7c:	2b08      	cmp	r3, #8
 8004d7e:	d837      	bhi.n	8004df0 <UART_SetConfig+0x31c>
 8004d80:	a201      	add	r2, pc, #4	; (adr r2, 8004d88 <UART_SetConfig+0x2b4>)
 8004d82:	f852 f023 	ldr.w	pc, [r2, r3, lsl #2]
 8004d86:	bf00      	nop
 8004d88:	08004dad 	.word	0x08004dad
 8004d8c:	08004df1 	.word	0x08004df1
 8004d90:	08004db5 	.word	0x08004db5
 8004d94:	08004df1 	.word	0x08004df1
 8004d98:	08004dbb 	.word	0x08004dbb
 8004d9c:	08004df1 	.word	0x08004df1
 8004da0:	08004df1 	.word	0x08004df1
 8004da4:	08004df1 	.word	0x08004df1
 8004da8:	08004de9 	.word	0x08004de9
 8004dac:	f7ff f854 	bl	8003e58 <HAL_RCC_GetPCLK1Freq>
 8004db0:	6178      	str	r0, [r7, #20]
 8004db2:	e022      	b.n	8004dfa <UART_SetConfig+0x326>
 8004db4:	4b0b      	ldr	r3, [pc, #44]	; (8004de4 <UART_SetConfig+0x310>)
 8004db6:	617b      	str	r3, [r7, #20]
 8004db8:	e01f      	b.n	8004dfa <UART_SetConfig+0x326>
 8004dba:	f7fe ffdf 	bl	8003d7c <HAL_RCC_GetSysClockFreq>
 8004dbe:	6178      	str	r0, [r7, #20]
 8004dc0:	e01b      	b.n	8004dfa <UART_SetConfig+0x326>
 8004dc2:	bf00      	nop
 8004dc4:	cfff69f3 	.word	0xcfff69f3
 8004dc8:	40008000 	.word	0x40008000
 8004dcc:	40013800 	.word	0x40013800
 8004dd0:	40021000 	.word	0x40021000
 8004dd4:	40004400 	.word	0x40004400
 8004dd8:	40004800 	.word	0x40004800
 8004ddc:	40004c00 	.word	0x40004c00
 8004de0:	40005000 	.word	0x40005000
 8004de4:	00f42400 	.word	0x00f42400
 8004de8:	f44f 4300 	mov.w	r3, #32768	; 0x8000
 8004dec:	617b      	str	r3, [r7, #20]
 8004dee:	e004      	b.n	8004dfa <UART_SetConfig+0x326>
 8004df0:	2300      	movs	r3, #0
 8004df2:	617b      	str	r3, [r7, #20]
 8004df4:	2301      	movs	r3, #1
 8004df6:	76bb      	strb	r3, [r7, #26]
 8004df8:	bf00      	nop
 8004dfa:	697b      	ldr	r3, [r7, #20]
 8004dfc:	2b00      	cmp	r3, #0
 8004dfe:	f000 811b 	beq.w	8005038 <UART_SetConfig+0x564>
 8004e02:	687b      	ldr	r3, [r7, #4]
 8004e04:	6a5b      	ldr	r3, [r3, #36]	; 0x24
 8004e06:	4a96      	ldr	r2, [pc, #600]	; (8005060 <UART_SetConfig+0x58c>)
 8004e08:	f832 3013 	ldrh.w	r3, [r2, r3, lsl #1]
 8004e0c:	461a      	mov	r2, r3
 8004e0e:	697b      	ldr	r3, [r7, #20]
 8004e10:	fbb3 f3f2 	udiv	r3, r3, r2
 8004e14:	60bb      	str	r3, [r7, #8]
 8004e16:	687b      	ldr	r3, [r7, #4]
 8004e18:	685a      	ldr	r2, [r3, #4]
 8004e1a:	4613      	mov	r3, r2
 8004e1c:	005b      	lsls	r3, r3, #1
 8004e1e:	4413      	add	r3, r2
 8004e20:	68ba      	ldr	r2, [r7, #8]
 8004e22:	429a      	cmp	r2, r3
 8004e24:	d305      	bcc.n	8004e32 <UART_SetConfig+0x35e>
 8004e26:	687b      	ldr	r3, [r7, #4]
 8004e28:	685b      	ldr	r3, [r3, #4]
 8004e2a:	031b      	lsls	r3, r3, #12
 8004e2c:	68ba      	ldr	r2, [r7, #8]
 8004e2e:	429a      	cmp	r2, r3
 8004e30:	d902      	bls.n	8004e38 <UART_SetConfig+0x364>
 8004e32:	2301      	movs	r3, #1
 8004e34:	76bb      	strb	r3, [r7, #26]
 8004e36:	e0ff      	b.n	8005038 <UART_SetConfig+0x564>
 8004e38:	697b      	ldr	r3, [r7, #20]
 8004e3a:	4618      	mov	r0, r3
 8004e3c:	f04f 0100 	mov.w	r1, #0
 8004e40:	687b      	ldr	r3, [r7, #4]
 8004e42:	6a5b      	ldr	r3, [r3, #36]	; 0x24
 8004e44:	4a86      	ldr	r2, [pc, #536]	; (8005060 <UART_SetConfig+0x58c>)
 8004e46:	f832 3013 	ldrh.w	r3, [r2, r3, lsl #1]
 8004e4a:	b29a      	uxth	r2, r3
 8004e4c:	f04f 0300 	mov.w	r3, #0
 8004e50:	f7fb fa36 	bl	80002c0 <__aeabi_uldivmod>
 8004e54:	4602      	mov	r2, r0
 8004e56:	460b      	mov	r3, r1
 8004e58:	4610      	mov	r0, r2
 8004e5a:	4619      	mov	r1, r3
 8004e5c:	f04f 0200 	mov.w	r2, #0
 8004e60:	f04f 0300 	mov.w	r3, #0
 8004e64:	020b      	lsls	r3, r1, #8
 8004e66:	ea43 6310 	orr.w	r3, r3, r0, lsr #24
 8004e6a:	0202      	lsls	r2, r0, #8
 8004e6c:	6879      	ldr	r1, [r7, #4]
 8004e6e:	6849      	ldr	r1, [r1, #4]
 8004e70:	0849      	lsrs	r1, r1, #1
 8004e72:	4608      	mov	r0, r1
 8004e74:	f04f 0100 	mov.w	r1, #0
 8004e78:	1814      	adds	r4, r2, r0
 8004e7a:	eb43 0501 	adc.w	r5, r3, r1
 8004e7e:	687b      	ldr	r3, [r7, #4]
 8004e80:	685b      	ldr	r3, [r3, #4]
 8004e82:	461a      	mov	r2, r3
 8004e84:	f04f 0300 	mov.w	r3, #0
 8004e88:	4620      	mov	r0, r4
 8004e8a:	4629      	mov	r1, r5
 8004e8c:	f7fb fa18 	bl	80002c0 <__aeabi_uldivmod>
 8004e90:	4602      	mov	r2, r0
 8004e92:	460b      	mov	r3, r1
 8004e94:	4613      	mov	r3, r2
 8004e96:	613b      	str	r3, [r7, #16]
 8004e98:	693b      	ldr	r3, [r7, #16]
 8004e9a:	f5b3 7f40 	cmp.w	r3, #768	; 0x300
 8004e9e:	d308      	bcc.n	8004eb2 <UART_SetConfig+0x3de>
 8004ea0:	693b      	ldr	r3, [r7, #16]
 8004ea2:	f5b3 1f80 	cmp.w	r3, #1048576	; 0x100000
 8004ea6:	d204      	bcs.n	8004eb2 <UART_SetConfig+0x3de>
 8004ea8:	687b      	ldr	r3, [r7, #4]
 8004eaa:	681b      	ldr	r3, [r3, #0]
 8004eac:	693a      	ldr	r2, [r7, #16]
 8004eae:	60da      	str	r2, [r3, #12]
 8004eb0:	e0c2      	b.n	8005038 <UART_SetConfig+0x564>
 8004eb2:	2301      	movs	r3, #1
 8004eb4:	76bb      	strb	r3, [r7, #26]
 8004eb6:	e0bf      	b.n	8005038 <UART_SetConfig+0x564>
 8004eb8:	687b      	ldr	r3, [r7, #4]
 8004eba:	69db      	ldr	r3, [r3, #28]
 8004ebc:	f5b3 4f00 	cmp.w	r3, #32768	; 0x8000
 8004ec0:	d165      	bne.n	8004f8e <UART_SetConfig+0x4ba>
 8004ec2:	7efb      	ldrb	r3, [r7, #27]
 8004ec4:	2b08      	cmp	r3, #8
 8004ec6:	d828      	bhi.n	8004f1a <UART_SetConfig+0x446>
 8004ec8:	a201      	add	r2, pc, #4	; (adr r2, 8004ed0 <UART_SetConfig+0x3fc>)
 8004eca:	f852 f023 	ldr.w	pc, [r2, r3, lsl #2]
 8004ece:	bf00      	nop
 8004ed0:	08004ef5 	.word	0x08004ef5
 8004ed4:	08004efd 	.word	0x08004efd
 8004ed8:	08004f05 	.word	0x08004f05
 8004edc:	08004f1b 	.word	0x08004f1b
 8004ee0:	08004f0b 	.word	0x08004f0b
 8004ee4:	08004f1b 	.word	0x08004f1b
 8004ee8:	08004f1b 	.word	0x08004f1b
 8004eec:	08004f1b 	.word	0x08004f1b
 8004ef0:	08004f13 	.word	0x08004f13
 8004ef4:	f7fe ffb0 	bl	8003e58 <HAL_RCC_GetPCLK1Freq>
 8004ef8:	6178      	str	r0, [r7, #20]
 8004efa:	e013      	b.n	8004f24 <UART_SetConfig+0x450>
 8004efc:	f7fe ffc2 	bl	8003e84 <HAL_RCC_GetPCLK2Freq>
 8004f00:	6178      	str	r0, [r7, #20]
 8004f02:	e00f      	b.n	8004f24 <UART_SetConfig+0x450>
 8004f04:	4b57      	ldr	r3, [pc, #348]	; (8005064 <UART_SetConfig+0x590>)
 8004f06:	617b      	str	r3, [r7, #20]
 8004f08:	e00c      	b.n	8004f24 <UART_SetConfig+0x450>
 8004f0a:	f7fe ff37 	bl	8003d7c <HAL_RCC_GetSysClockFreq>
 8004f0e:	6178      	str	r0, [r7, #20]
 8004f10:	e008      	b.n	8004f24 <UART_SetConfig+0x450>
 8004f12:	f44f 4300 	mov.w	r3, #32768	; 0x8000
 8004f16:	617b      	str	r3, [r7, #20]
 8004f18:	e004      	b.n	8004f24 <UART_SetConfig+0x450>
 8004f1a:	2300      	movs	r3, #0
 8004f1c:	617b      	str	r3, [r7, #20]
 8004f1e:	2301      	movs	r3, #1
 8004f20:	76bb      	strb	r3, [r7, #26]
 8004f22:	bf00      	nop
 8004f24:	697b      	ldr	r3, [r7, #20]
 8004f26:	2b00      	cmp	r3, #0
 8004f28:	f000 8086 	beq.w	8005038 <UART_SetConfig+0x564>
 8004f2c:	687b      	ldr	r3, [r7, #4]
 8004f2e:	6a5b      	ldr	r3, [r3, #36]	; 0x24
 8004f30:	4a4b      	ldr	r2, [pc, #300]	; (8005060 <UART_SetConfig+0x58c>)
 8004f32:	f832 3013 	ldrh.w	r3, [r2, r3, lsl #1]
 8004f36:	461a      	mov	r2, r3
 8004f38:	697b      	ldr	r3, [r7, #20]
 8004f3a:	fbb3 f3f2 	udiv	r3, r3, r2
 8004f3e:	005a      	lsls	r2, r3, #1
 8004f40:	687b      	ldr	r3, [r7, #4]
 8004f42:	685b      	ldr	r3, [r3, #4]
 8004f44:	085b      	lsrs	r3, r3, #1
 8004f46:	441a      	add	r2, r3
 8004f48:	687b      	ldr	r3, [r7, #4]
 8004f4a:	685b      	ldr	r3, [r3, #4]
 8004f4c:	fbb2 f3f3 	udiv	r3, r2, r3
 8004f50:	b29b      	uxth	r3, r3
 8004f52:	613b      	str	r3, [r7, #16]
 8004f54:	693b      	ldr	r3, [r7, #16]
 8004f56:	2b0f      	cmp	r3, #15
 8004f58:	d916      	bls.n	8004f88 <UART_SetConfig+0x4b4>
 8004f5a:	693b      	ldr	r3, [r7, #16]
 8004f5c:	f5b3 3f80 	cmp.w	r3, #65536	; 0x10000
 8004f60:	d212      	bcs.n	8004f88 <UART_SetConfig+0x4b4>
 8004f62:	693b      	ldr	r3, [r7, #16]
 8004f64:	b29b      	uxth	r3, r3
 8004f66:	f023 030f 	bic.w	r3, r3, #15
 8004f6a:	81fb      	strh	r3, [r7, #14]
 8004f6c:	693b      	ldr	r3, [r7, #16]
 8004f6e:	085b      	lsrs	r3, r3, #1
 8004f70:	b29b      	uxth	r3, r3
 8004f72:	f003 0307 	and.w	r3, r3, #7
 8004f76:	b29a      	uxth	r2, r3
 8004f78:	89fb      	ldrh	r3, [r7, #14]
 8004f7a:	4313      	orrs	r3, r2
 8004f7c:	81fb      	strh	r3, [r7, #14]
 8004f7e:	687b      	ldr	r3, [r7, #4]
 8004f80:	681b      	ldr	r3, [r3, #0]
 8004f82:	89fa      	ldrh	r2, [r7, #14]
 8004f84:	60da      	str	r2, [r3, #12]
 8004f86:	e057      	b.n	8005038 <UART_SetConfig+0x564>
 8004f88:	2301      	movs	r3, #1
 8004f8a:	76bb      	strb	r3, [r7, #26]
 8004f8c:	e054      	b.n	8005038 <UART_SetConfig+0x564>
 8004f8e:	7efb      	ldrb	r3, [r7, #27]
 8004f90:	2b08      	cmp	r3, #8
 8004f92:	d828      	bhi.n	8004fe6 <UART_SetConfig+0x512>
 8004f94:	a201      	add	r2, pc, #4	; (adr r2, 8004f9c <UART_SetConfig+0x4c8>)
 8004f96:	f852 f023 	ldr.w	pc, [r2, r3, lsl #2]
 8004f9a:	bf00      	nop
 8004f9c:	08004fc1 	.word	0x08004fc1
 8004fa0:	08004fc9 	.word	0x08004fc9
 8004fa4:	08004fd1 	.word	0x08004fd1
 8004fa8:	08004fe7 	.word	0x08004fe7
 8004fac:	08004fd7 	.word	0x08004fd7
 8004fb0:	08004fe7 	.word	0x08004fe7
 8004fb4:	08004fe7 	.word	0x08004fe7
 8004fb8:	08004fe7 	.word	0x08004fe7
 8004fbc:	08004fdf 	.word	0x08004fdf
 8004fc0:	f7fe ff4a 	bl	8003e58 <HAL_RCC_GetPCLK1Freq>
 8004fc4:	6178      	str	r0, [r7, #20]
 8004fc6:	e013      	b.n	8004ff0 <UART_SetConfig+0x51c>
 8004fc8:	f7fe ff5c 	bl	8003e84 <HAL_RCC_GetPCLK2Freq>
 8004fcc:	6178      	str	r0, [r7, #20]
 8004fce:	e00f      	b.n	8004ff0 <UART_SetConfig+0x51c>
 8004fd0:	4b24      	ldr	r3, [pc, #144]	; (8005064 <UART_SetConfig+0x590>)
 8004fd2:	617b      	str	r3, [r7, #20]
 8004fd4:	e00c      	b.n	8004ff0 <UART_SetConfig+0x51c>
 8004fd6:	f7fe fed1 	bl	8003d7c <HAL_RCC_GetSysClockFreq>
 8004fda:	6178      	str	r0, [r7, #20]
 8004fdc:	e008      	b.n	8004ff0 <UART_SetConfig+0x51c>
 8004fde:	f44f 4300 	mov.w	r3, #32768	; 0x8000
 8004fe2:	617b      	str	r3, [r7, #20]
 8004fe4:	e004      	b.n	8004ff0 <UART_SetConfig+0x51c>
 8004fe6:	2300      	movs	r3, #0
 8004fe8:	617b      	str	r3, [r7, #20]
 8004fea:	2301      	movs	r3, #1
 8004fec:	76bb      	strb	r3, [r7, #26]
 8004fee:	bf00      	nop
 8004ff0:	697b      	ldr	r3, [r7, #20]
 8004ff2:	2b00      	cmp	r3, #0
 8004ff4:	d020      	beq.n	8005038 <UART_SetConfig+0x564>
 8004ff6:	687b      	ldr	r3, [r7, #4]
 8004ff8:	6a5b      	ldr	r3, [r3, #36]	; 0x24
 8004ffa:	4a19      	ldr	r2, [pc, #100]	; (8005060 <UART_SetConfig+0x58c>)
 8004ffc:	f832 3013 	ldrh.w	r3, [r2, r3, lsl #1]
 8005000:	461a      	mov	r2, r3
 8005002:	697b      	ldr	r3, [r7, #20]
 8005004:	fbb3 f2f2 	udiv	r2, r3, r2
 8005008:	687b      	ldr	r3, [r7, #4]
 800500a:	685b      	ldr	r3, [r3, #4]
 800500c:	085b      	lsrs	r3, r3, #1
 800500e:	441a      	add	r2, r3
 8005010:	687b      	ldr	r3, [r7, #4]
 8005012:	685b      	ldr	r3, [r3, #4]
 8005014:	fbb2 f3f3 	udiv	r3, r2, r3
 8005018:	b29b      	uxth	r3, r3
 800501a:	613b      	str	r3, [r7, #16]
 800501c:	693b      	ldr	r3, [r7, #16]
 800501e:	2b0f      	cmp	r3, #15
 8005020:	d908      	bls.n	8005034 <UART_SetConfig+0x560>
 8005022:	693b      	ldr	r3, [r7, #16]
 8005024:	f5b3 3f80 	cmp.w	r3, #65536	; 0x10000
 8005028:	d204      	bcs.n	8005034 <UART_SetConfig+0x560>
 800502a:	687b      	ldr	r3, [r7, #4]
 800502c:	681b      	ldr	r3, [r3, #0]
 800502e:	693a      	ldr	r2, [r7, #16]
 8005030:	60da      	str	r2, [r3, #12]
 8005032:	e001      	b.n	8005038 <UART_SetConfig+0x564>
 8005034:	2301      	movs	r3, #1
 8005036:	76bb      	strb	r3, [r7, #26]
 8005038:	687b      	ldr	r3, [r7, #4]
 800503a:	2201      	movs	r2, #1
 800503c:	f8a3 206a 	strh.w	r2, [r3, #106]	; 0x6a
 8005040:	687b      	ldr	r3, [r7, #4]
 8005042:	2201      	movs	r2, #1
 8005044:	f8a3 2068 	strh.w	r2, [r3, #104]	; 0x68
 8005048:	687b      	ldr	r3, [r7, #4]
 800504a:	2200      	movs	r2, #0
 800504c:	671a      	str	r2, [r3, #112]	; 0x70
 800504e:	687b      	ldr	r3, [r7, #4]
 8005050:	2200      	movs	r2, #0
 8005052:	675a      	str	r2, [r3, #116]	; 0x74
 8005054:	7ebb      	ldrb	r3, [r7, #26]
 8005056:	4618      	mov	r0, r3
 8005058:	3720      	adds	r7, #32
 800505a:	46bd      	mov	sp, r7
 800505c:	bdb0      	pop	{r4, r5, r7, pc}
 800505e:	bf00      	nop
 8005060:	08006cd4 	.word	0x08006cd4
 8005064:	00f42400 	.word	0x00f42400

08005068 <UART_AdvFeatureConfig>:
 8005068:	b480      	push	{r7}
 800506a:	b083      	sub	sp, #12
 800506c:	af00      	add	r7, sp, #0
 800506e:	6078      	str	r0, [r7, #4]
 8005070:	687b      	ldr	r3, [r7, #4]
 8005072:	6a9b      	ldr	r3, [r3, #40]	; 0x28
 8005074:	f003 0301 	and.w	r3, r3, #1
 8005078:	2b00      	cmp	r3, #0
 800507a:	d00a      	beq.n	8005092 <UART_AdvFeatureConfig+0x2a>
 800507c:	687b      	ldr	r3, [r7, #4]
 800507e:	681b      	ldr	r3, [r3, #0]
 8005080:	685b      	ldr	r3, [r3, #4]
 8005082:	f423 3100 	bic.w	r1, r3, #131072	; 0x20000
 8005086:	687b      	ldr	r3, [r7, #4]
 8005088:	6ada      	ldr	r2, [r3, #44]	; 0x2c
 800508a:	687b      	ldr	r3, [r7, #4]
 800508c:	681b      	ldr	r3, [r3, #0]
 800508e:	430a      	orrs	r2, r1
 8005090:	605a      	str	r2, [r3, #4]
 8005092:	687b      	ldr	r3, [r7, #4]
 8005094:	6a9b      	ldr	r3, [r3, #40]	; 0x28
 8005096:	f003 0302 	and.w	r3, r3, #2
 800509a:	2b00      	cmp	r3, #0
 800509c:	d00a      	beq.n	80050b4 <UART_AdvFeatureConfig+0x4c>
 800509e:	687b      	ldr	r3, [r7, #4]
 80050a0:	681b      	ldr	r3, [r3, #0]
 80050a2:	685b      	ldr	r3, [r3, #4]
 80050a4:	f423 3180 	bic.w	r1, r3, #65536	; 0x10000
 80050a8:	687b      	ldr	r3, [r7, #4]
 80050aa:	6b1a      	ldr	r2, [r3, #48]	; 0x30
 80050ac:	687b      	ldr	r3, [r7, #4]
 80050ae:	681b      	ldr	r3, [r3, #0]
 80050b0:	430a      	orrs	r2, r1
 80050b2:	605a      	str	r2, [r3, #4]
 80050b4:	687b      	ldr	r3, [r7, #4]
 80050b6:	6a9b      	ldr	r3, [r3, #40]	; 0x28
 80050b8:	f003 0304 	and.w	r3, r3, #4
 80050bc:	2b00      	cmp	r3, #0
 80050be:	d00a      	beq.n	80050d6 <UART_AdvFeatureConfig+0x6e>
 80050c0:	687b      	ldr	r3, [r7, #4]
 80050c2:	681b      	ldr	r3, [r3, #0]
 80050c4:	685b      	ldr	r3, [r3, #4]
 80050c6:	f423 2180 	bic.w	r1, r3, #262144	; 0x40000
 80050ca:	687b      	ldr	r3, [r7, #4]
 80050cc:	6b5a      	ldr	r2, [r3, #52]	; 0x34
 80050ce:	687b      	ldr	r3, [r7, #4]
 80050d0:	681b      	ldr	r3, [r3, #0]
 80050d2:	430a      	orrs	r2, r1
 80050d4:	605a      	str	r2, [r3, #4]
 80050d6:	687b      	ldr	r3, [r7, #4]
 80050d8:	6a9b      	ldr	r3, [r3, #40]	; 0x28
 80050da:	f003 0308 	and.w	r3, r3, #8
 80050de:	2b00      	cmp	r3, #0
 80050e0:	d00a      	beq.n	80050f8 <UART_AdvFeatureConfig+0x90>
 80050e2:	687b      	ldr	r3, [r7, #4]
 80050e4:	681b      	ldr	r3, [r3, #0]
 80050e6:	685b      	ldr	r3, [r3, #4]
 80050e8:	f423 4100 	bic.w	r1, r3, #32768	; 0x8000
 80050ec:	687b      	ldr	r3, [r7, #4]
 80050ee:	6b9a      	ldr	r2, [r3, #56]	; 0x38
 80050f0:	687b      	ldr	r3, [r7, #4]
 80050f2:	681b      	ldr	r3, [r3, #0]
 80050f4:	430a      	orrs	r2, r1
 80050f6:	605a      	str	r2, [r3, #4]
 80050f8:	687b      	ldr	r3, [r7, #4]
 80050fa:	6a9b      	ldr	r3, [r3, #40]	; 0x28
 80050fc:	f003 0310 	and.w	r3, r3, #16
 8005100:	2b00      	cmp	r3, #0
 8005102:	d00a      	beq.n	800511a <UART_AdvFeatureConfig+0xb2>
 8005104:	687b      	ldr	r3, [r7, #4]
 8005106:	681b      	ldr	r3, [r3, #0]
 8005108:	689b      	ldr	r3, [r3, #8]
 800510a:	f423 5180 	bic.w	r1, r3, #4096	; 0x1000
 800510e:	687b      	ldr	r3, [r7, #4]
 8005110:	6bda      	ldr	r2, [r3, #60]	; 0x3c
 8005112:	687b      	ldr	r3, [r7, #4]
 8005114:	681b      	ldr	r3, [r3, #0]
 8005116:	430a      	orrs	r2, r1
 8005118:	609a      	str	r2, [r3, #8]
 800511a:	687b      	ldr	r3, [r7, #4]
 800511c:	6a9b      	ldr	r3, [r3, #40]	; 0x28
 800511e:	f003 0320 	and.w	r3, r3, #32
 8005122:	2b00      	cmp	r3, #0
 8005124:	d00a      	beq.n	800513c <UART_AdvFeatureConfig+0xd4>
 8005126:	687b      	ldr	r3, [r7, #4]
 8005128:	681b      	ldr	r3, [r3, #0]
 800512a:	689b      	ldr	r3, [r3, #8]
 800512c:	f423 5100 	bic.w	r1, r3, #8192	; 0x2000
 8005130:	687b      	ldr	r3, [r7, #4]
 8005132:	6c1a      	ldr	r2, [r3, #64]	; 0x40
 8005134:	687b      	ldr	r3, [r7, #4]
 8005136:	681b      	ldr	r3, [r3, #0]
 8005138:	430a      	orrs	r2, r1
 800513a:	609a      	str	r2, [r3, #8]
 800513c:	687b      	ldr	r3, [r7, #4]
 800513e:	6a9b      	ldr	r3, [r3, #40]	; 0x28
 8005140:	f003 0340 	and.w	r3, r3, #64	; 0x40
 8005144:	2b00      	cmp	r3, #0
 8005146:	d01a      	beq.n	800517e <UART_AdvFeatureConfig+0x116>
 8005148:	687b      	ldr	r3, [r7, #4]
 800514a:	681b      	ldr	r3, [r3, #0]
 800514c:	685b      	ldr	r3, [r3, #4]
 800514e:	f423 1180 	bic.w	r1, r3, #1048576	; 0x100000
 8005152:	687b      	ldr	r3, [r7, #4]
 8005154:	6c5a      	ldr	r2, [r3, #68]	; 0x44
 8005156:	687b      	ldr	r3, [r7, #4]
 8005158:	681b      	ldr	r3, [r3, #0]
 800515a:	430a      	orrs	r2, r1
 800515c:	605a      	str	r2, [r3, #4]
 800515e:	687b      	ldr	r3, [r7, #4]
 8005160:	6c5b      	ldr	r3, [r3, #68]	; 0x44
 8005162:	f5b3 1f80 	cmp.w	r3, #1048576	; 0x100000
 8005166:	d10a      	bne.n	800517e <UART_AdvFeatureConfig+0x116>
 8005168:	687b      	ldr	r3, [r7, #4]
 800516a:	681b      	ldr	r3, [r3, #0]
 800516c:	685b      	ldr	r3, [r3, #4]
 800516e:	f423 01c0 	bic.w	r1, r3, #6291456	; 0x600000
 8005172:	687b      	ldr	r3, [r7, #4]
 8005174:	6c9a      	ldr	r2, [r3, #72]	; 0x48
 8005176:	687b      	ldr	r3, [r7, #4]
 8005178:	681b      	ldr	r3, [r3, #0]
 800517a:	430a      	orrs	r2, r1
 800517c:	605a      	str	r2, [r3, #4]
 800517e:	687b      	ldr	r3, [r7, #4]
 8005180:	6a9b      	ldr	r3, [r3, #40]	; 0x28
 8005182:	f003 0380 	and.w	r3, r3, #128	; 0x80
 8005186:	2b00      	cmp	r3, #0
 8005188:	d00a      	beq.n	80051a0 <UART_AdvFeatureConfig+0x138>
 800518a:	687b      	ldr	r3, [r7, #4]
 800518c:	681b      	ldr	r3, [r3, #0]
 800518e:	685b      	ldr	r3, [r3, #4]
 8005190:	f423 2100 	bic.w	r1, r3, #524288	; 0x80000
 8005194:	687b      	ldr	r3, [r7, #4]
 8005196:	6cda      	ldr	r2, [r3, #76]	; 0x4c
 8005198:	687b      	ldr	r3, [r7, #4]
 800519a:	681b      	ldr	r3, [r3, #0]
 800519c:	430a      	orrs	r2, r1
 800519e:	605a      	str	r2, [r3, #4]
 80051a0:	bf00      	nop
 80051a2:	370c      	adds	r7, #12
 80051a4:	46bd      	mov	sp, r7
 80051a6:	f85d 7b04 	ldr.w	r7, [sp], #4
 80051aa:	4770      	bx	lr

080051ac <UART_CheckIdleState>:
 80051ac:	b580      	push	{r7, lr}
 80051ae:	b086      	sub	sp, #24
 80051b0:	af02      	add	r7, sp, #8
 80051b2:	6078      	str	r0, [r7, #4]
 80051b4:	687b      	ldr	r3, [r7, #4]
 80051b6:	2200      	movs	r2, #0
 80051b8:	f8c3 208c 	str.w	r2, [r3, #140]	; 0x8c
 80051bc:	f7fb ff68 	bl	8001090 <HAL_GetTick>
 80051c0:	60f8      	str	r0, [r7, #12]
 80051c2:	687b      	ldr	r3, [r7, #4]
 80051c4:	681b      	ldr	r3, [r3, #0]
 80051c6:	681b      	ldr	r3, [r3, #0]
 80051c8:	f003 0308 	and.w	r3, r3, #8
 80051cc:	2b08      	cmp	r3, #8
 80051ce:	d10e      	bne.n	80051ee <UART_CheckIdleState+0x42>
 80051d0:	f06f 437e 	mvn.w	r3, #4261412864	; 0xfe000000
 80051d4:	9300      	str	r3, [sp, #0]
 80051d6:	68fb      	ldr	r3, [r7, #12]
 80051d8:	2200      	movs	r2, #0
 80051da:	f44f 1100 	mov.w	r1, #2097152	; 0x200000
 80051de:	6878      	ldr	r0, [r7, #4]
 80051e0:	f000 f82f 	bl	8005242 <UART_WaitOnFlagUntilTimeout>
 80051e4:	4603      	mov	r3, r0
 80051e6:	2b00      	cmp	r3, #0
 80051e8:	d001      	beq.n	80051ee <UART_CheckIdleState+0x42>
 80051ea:	2303      	movs	r3, #3
 80051ec:	e025      	b.n	800523a <UART_CheckIdleState+0x8e>
 80051ee:	687b      	ldr	r3, [r7, #4]
 80051f0:	681b      	ldr	r3, [r3, #0]
 80051f2:	681b      	ldr	r3, [r3, #0]
 80051f4:	f003 0304 	and.w	r3, r3, #4
 80051f8:	2b04      	cmp	r3, #4
 80051fa:	d10e      	bne.n	800521a <UART_CheckIdleState+0x6e>
 80051fc:	f06f 437e 	mvn.w	r3, #4261412864	; 0xfe000000
 8005200:	9300      	str	r3, [sp, #0]
 8005202:	68fb      	ldr	r3, [r7, #12]
 8005204:	2200      	movs	r2, #0
 8005206:	f44f 0180 	mov.w	r1, #4194304	; 0x400000
 800520a:	6878      	ldr	r0, [r7, #4]
 800520c:	f000 f819 	bl	8005242 <UART_WaitOnFlagUntilTimeout>
 8005210:	4603      	mov	r3, r0
 8005212:	2b00      	cmp	r3, #0
 8005214:	d001      	beq.n	800521a <UART_CheckIdleState+0x6e>
 8005216:	2303      	movs	r3, #3
 8005218:	e00f      	b.n	800523a <UART_CheckIdleState+0x8e>
 800521a:	687b      	ldr	r3, [r7, #4]
 800521c:	2220      	movs	r2, #32
 800521e:	f8c3 2084 	str.w	r2, [r3, #132]	; 0x84
 8005222:	687b      	ldr	r3, [r7, #4]
 8005224:	2220      	movs	r2, #32
 8005226:	f8c3 2088 	str.w	r2, [r3, #136]	; 0x88
 800522a:	687b      	ldr	r3, [r7, #4]
 800522c:	2200      	movs	r2, #0
 800522e:	66da      	str	r2, [r3, #108]	; 0x6c
 8005230:	687b      	ldr	r3, [r7, #4]
 8005232:	2200      	movs	r2, #0
 8005234:	f883 2080 	strb.w	r2, [r3, #128]	; 0x80
 8005238:	2300      	movs	r3, #0
 800523a:	4618      	mov	r0, r3
 800523c:	3710      	adds	r7, #16
 800523e:	46bd      	mov	sp, r7
 8005240:	bd80      	pop	{r7, pc}

08005242 <UART_WaitOnFlagUntilTimeout>:
 8005242:	b580      	push	{r7, lr}
 8005244:	b084      	sub	sp, #16
 8005246:	af00      	add	r7, sp, #0
 8005248:	60f8      	str	r0, [r7, #12]
 800524a:	60b9      	str	r1, [r7, #8]
 800524c:	603b      	str	r3, [r7, #0]
 800524e:	4613      	mov	r3, r2
 8005250:	71fb      	strb	r3, [r7, #7]
 8005252:	e062      	b.n	800531a <UART_WaitOnFlagUntilTimeout+0xd8>
 8005254:	69bb      	ldr	r3, [r7, #24]
 8005256:	f1b3 3fff 	cmp.w	r3, #4294967295
 800525a:	d05e      	beq.n	800531a <UART_WaitOnFlagUntilTimeout+0xd8>
 800525c:	f7fb ff18 	bl	8001090 <HAL_GetTick>
 8005260:	4602      	mov	r2, r0
 8005262:	683b      	ldr	r3, [r7, #0]
 8005264:	1ad3      	subs	r3, r2, r3
 8005266:	69ba      	ldr	r2, [r7, #24]
 8005268:	429a      	cmp	r2, r3
 800526a:	d302      	bcc.n	8005272 <UART_WaitOnFlagUntilTimeout+0x30>
 800526c:	69bb      	ldr	r3, [r7, #24]
 800526e:	2b00      	cmp	r3, #0
 8005270:	d11d      	bne.n	80052ae <UART_WaitOnFlagUntilTimeout+0x6c>
 8005272:	68fb      	ldr	r3, [r7, #12]
 8005274:	681b      	ldr	r3, [r3, #0]
 8005276:	681a      	ldr	r2, [r3, #0]
 8005278:	68fb      	ldr	r3, [r7, #12]
 800527a:	681b      	ldr	r3, [r3, #0]
 800527c:	f422 72d0 	bic.w	r2, r2, #416	; 0x1a0
 8005280:	601a      	str	r2, [r3, #0]
 8005282:	68fb      	ldr	r3, [r7, #12]
 8005284:	681b      	ldr	r3, [r3, #0]
 8005286:	689a      	ldr	r2, [r3, #8]
 8005288:	68fb      	ldr	r3, [r7, #12]
 800528a:	681b      	ldr	r3, [r3, #0]
 800528c:	f022 0201 	bic.w	r2, r2, #1
 8005290:	609a      	str	r2, [r3, #8]
 8005292:	68fb      	ldr	r3, [r7, #12]
 8005294:	2220      	movs	r2, #32
 8005296:	f8c3 2084 	str.w	r2, [r3, #132]	; 0x84
 800529a:	68fb      	ldr	r3, [r7, #12]
 800529c:	2220      	movs	r2, #32
 800529e:	f8c3 2088 	str.w	r2, [r3, #136]	; 0x88
 80052a2:	68fb      	ldr	r3, [r7, #12]
 80052a4:	2200      	movs	r2, #0
 80052a6:	f883 2080 	strb.w	r2, [r3, #128]	; 0x80
 80052aa:	2303      	movs	r3, #3
 80052ac:	e045      	b.n	800533a <UART_WaitOnFlagUntilTimeout+0xf8>
 80052ae:	68fb      	ldr	r3, [r7, #12]
 80052b0:	681b      	ldr	r3, [r3, #0]
 80052b2:	681b      	ldr	r3, [r3, #0]
 80052b4:	f003 0304 	and.w	r3, r3, #4
 80052b8:	2b00      	cmp	r3, #0
 80052ba:	d02e      	beq.n	800531a <UART_WaitOnFlagUntilTimeout+0xd8>
 80052bc:	68fb      	ldr	r3, [r7, #12]
 80052be:	681b      	ldr	r3, [r3, #0]
 80052c0:	69db      	ldr	r3, [r3, #28]
 80052c2:	f403 6300 	and.w	r3, r3, #2048	; 0x800
 80052c6:	f5b3 6f00 	cmp.w	r3, #2048	; 0x800
 80052ca:	d126      	bne.n	800531a <UART_WaitOnFlagUntilTimeout+0xd8>
 80052cc:	68fb      	ldr	r3, [r7, #12]
 80052ce:	681b      	ldr	r3, [r3, #0]
 80052d0:	f44f 6200 	mov.w	r2, #2048	; 0x800
 80052d4:	621a      	str	r2, [r3, #32]
 80052d6:	68fb      	ldr	r3, [r7, #12]
 80052d8:	681b      	ldr	r3, [r3, #0]
 80052da:	681a      	ldr	r2, [r3, #0]
 80052dc:	68fb      	ldr	r3, [r7, #12]
 80052de:	681b      	ldr	r3, [r3, #0]
 80052e0:	f422 72d0 	bic.w	r2, r2, #416	; 0x1a0
 80052e4:	601a      	str	r2, [r3, #0]
 80052e6:	68fb      	ldr	r3, [r7, #12]
 80052e8:	681b      	ldr	r3, [r3, #0]
 80052ea:	689a      	ldr	r2, [r3, #8]
 80052ec:	68fb      	ldr	r3, [r7, #12]
 80052ee:	681b      	ldr	r3, [r3, #0]
 80052f0:	f022 0201 	bic.w	r2, r2, #1
 80052f4:	609a      	str	r2, [r3, #8]
 80052f6:	68fb      	ldr	r3, [r7, #12]
 80052f8:	2220      	movs	r2, #32
 80052fa:	f8c3 2084 	str.w	r2, [r3, #132]	; 0x84
 80052fe:	68fb      	ldr	r3, [r7, #12]
 8005300:	2220      	movs	r2, #32
 8005302:	f8c3 2088 	str.w	r2, [r3, #136]	; 0x88
 8005306:	68fb      	ldr	r3, [r7, #12]
 8005308:	2220      	movs	r2, #32
 800530a:	f8c3 208c 	str.w	r2, [r3, #140]	; 0x8c
 800530e:	68fb      	ldr	r3, [r7, #12]
 8005310:	2200      	movs	r2, #0
 8005312:	f883 2080 	strb.w	r2, [r3, #128]	; 0x80
 8005316:	2303      	movs	r3, #3
 8005318:	e00f      	b.n	800533a <UART_WaitOnFlagUntilTimeout+0xf8>
 800531a:	68fb      	ldr	r3, [r7, #12]
 800531c:	681b      	ldr	r3, [r3, #0]
 800531e:	69da      	ldr	r2, [r3, #28]
 8005320:	68bb      	ldr	r3, [r7, #8]
 8005322:	4013      	ands	r3, r2
 8005324:	68ba      	ldr	r2, [r7, #8]
 8005326:	429a      	cmp	r2, r3
 8005328:	bf0c      	ite	eq
 800532a:	2301      	moveq	r3, #1
 800532c:	2300      	movne	r3, #0
 800532e:	b2db      	uxtb	r3, r3
 8005330:	461a      	mov	r2, r3
 8005332:	79fb      	ldrb	r3, [r7, #7]
 8005334:	429a      	cmp	r2, r3
 8005336:	d08d      	beq.n	8005254 <UART_WaitOnFlagUntilTimeout+0x12>
 8005338:	2300      	movs	r3, #0
 800533a:	4618      	mov	r0, r3
 800533c:	3710      	adds	r7, #16
 800533e:	46bd      	mov	sp, r7
 8005340:	bd80      	pop	{r7, pc}
	...

08005344 <UART_Start_Receive_IT>:
 8005344:	b480      	push	{r7}
 8005346:	b085      	sub	sp, #20
 8005348:	af00      	add	r7, sp, #0
 800534a:	60f8      	str	r0, [r7, #12]
 800534c:	60b9      	str	r1, [r7, #8]
 800534e:	4613      	mov	r3, r2
 8005350:	80fb      	strh	r3, [r7, #6]
 8005352:	68fb      	ldr	r3, [r7, #12]
 8005354:	68ba      	ldr	r2, [r7, #8]
 8005356:	659a      	str	r2, [r3, #88]	; 0x58
 8005358:	68fb      	ldr	r3, [r7, #12]
 800535a:	88fa      	ldrh	r2, [r7, #6]
 800535c:	f8a3 205c 	strh.w	r2, [r3, #92]	; 0x5c
 8005360:	68fb      	ldr	r3, [r7, #12]
 8005362:	88fa      	ldrh	r2, [r7, #6]
 8005364:	f8a3 205e 	strh.w	r2, [r3, #94]	; 0x5e
 8005368:	68fb      	ldr	r3, [r7, #12]
 800536a:	2200      	movs	r2, #0
 800536c:	671a      	str	r2, [r3, #112]	; 0x70
 800536e:	68fb      	ldr	r3, [r7, #12]
 8005370:	689b      	ldr	r3, [r3, #8]
 8005372:	f5b3 5f80 	cmp.w	r3, #4096	; 0x1000
 8005376:	d10e      	bne.n	8005396 <UART_Start_Receive_IT+0x52>
 8005378:	68fb      	ldr	r3, [r7, #12]
 800537a:	691b      	ldr	r3, [r3, #16]
 800537c:	2b00      	cmp	r3, #0
 800537e:	d105      	bne.n	800538c <UART_Start_Receive_IT+0x48>
 8005380:	68fb      	ldr	r3, [r7, #12]
 8005382:	f240 12ff 	movw	r2, #511	; 0x1ff
 8005386:	f8a3 2060 	strh.w	r2, [r3, #96]	; 0x60
 800538a:	e02d      	b.n	80053e8 <UART_Start_Receive_IT+0xa4>
 800538c:	68fb      	ldr	r3, [r7, #12]
 800538e:	22ff      	movs	r2, #255	; 0xff
 8005390:	f8a3 2060 	strh.w	r2, [r3, #96]	; 0x60
 8005394:	e028      	b.n	80053e8 <UART_Start_Receive_IT+0xa4>
 8005396:	68fb      	ldr	r3, [r7, #12]
 8005398:	689b      	ldr	r3, [r3, #8]
 800539a:	2b00      	cmp	r3, #0
 800539c:	d10d      	bne.n	80053ba <UART_Start_Receive_IT+0x76>
 800539e:	68fb      	ldr	r3, [r7, #12]
 80053a0:	691b      	ldr	r3, [r3, #16]
 80053a2:	2b00      	cmp	r3, #0
 80053a4:	d104      	bne.n	80053b0 <UART_Start_Receive_IT+0x6c>
 80053a6:	68fb      	ldr	r3, [r7, #12]
 80053a8:	22ff      	movs	r2, #255	; 0xff
 80053aa:	f8a3 2060 	strh.w	r2, [r3, #96]	; 0x60
 80053ae:	e01b      	b.n	80053e8 <UART_Start_Receive_IT+0xa4>
 80053b0:	68fb      	ldr	r3, [r7, #12]
 80053b2:	227f      	movs	r2, #127	; 0x7f
 80053b4:	f8a3 2060 	strh.w	r2, [r3, #96]	; 0x60
 80053b8:	e016      	b.n	80053e8 <UART_Start_Receive_IT+0xa4>
 80053ba:	68fb      	ldr	r3, [r7, #12]
 80053bc:	689b      	ldr	r3, [r3, #8]
 80053be:	f1b3 5f80 	cmp.w	r3, #268435456	; 0x10000000
 80053c2:	d10d      	bne.n	80053e0 <UART_Start_Receive_IT+0x9c>
 80053c4:	68fb      	ldr	r3, [r7, #12]
 80053c6:	691b      	ldr	r3, [r3, #16]
 80053c8:	2b00      	cmp	r3, #0
 80053ca:	d104      	bne.n	80053d6 <UART_Start_Receive_IT+0x92>
 80053cc:	68fb      	ldr	r3, [r7, #12]
 80053ce:	227f      	movs	r2, #127	; 0x7f
 80053d0:	f8a3 2060 	strh.w	r2, [r3, #96]	; 0x60
 80053d4:	e008      	b.n	80053e8 <UART_Start_Receive_IT+0xa4>
 80053d6:	68fb      	ldr	r3, [r7, #12]
 80053d8:	223f      	movs	r2, #63	; 0x3f
 80053da:	f8a3 2060 	strh.w	r2, [r3, #96]	; 0x60
 80053de:	e003      	b.n	80053e8 <UART_Start_Receive_IT+0xa4>
 80053e0:	68fb      	ldr	r3, [r7, #12]
 80053e2:	2200      	movs	r2, #0
 80053e4:	f8a3 2060 	strh.w	r2, [r3, #96]	; 0x60
 80053e8:	68fb      	ldr	r3, [r7, #12]
 80053ea:	2200      	movs	r2, #0
 80053ec:	f8c3 208c 	str.w	r2, [r3, #140]	; 0x8c
 80053f0:	68fb      	ldr	r3, [r7, #12]
 80053f2:	2222      	movs	r2, #34	; 0x22
 80053f4:	f8c3 2088 	str.w	r2, [r3, #136]	; 0x88
 80053f8:	68fb      	ldr	r3, [r7, #12]
 80053fa:	681b      	ldr	r3, [r3, #0]
 80053fc:	689a      	ldr	r2, [r3, #8]
 80053fe:	68fb      	ldr	r3, [r7, #12]
 8005400:	681b      	ldr	r3, [r3, #0]
 8005402:	f042 0201 	orr.w	r2, r2, #1
 8005406:	609a      	str	r2, [r3, #8]
 8005408:	68fb      	ldr	r3, [r7, #12]
 800540a:	6e5b      	ldr	r3, [r3, #100]	; 0x64
 800540c:	f1b3 5f00 	cmp.w	r3, #536870912	; 0x20000000
 8005410:	d12a      	bne.n	8005468 <UART_Start_Receive_IT+0x124>
 8005412:	68fb      	ldr	r3, [r7, #12]
 8005414:	f8b3 3068 	ldrh.w	r3, [r3, #104]	; 0x68
 8005418:	88fa      	ldrh	r2, [r7, #6]
 800541a:	429a      	cmp	r2, r3
 800541c:	d324      	bcc.n	8005468 <UART_Start_Receive_IT+0x124>
 800541e:	68fb      	ldr	r3, [r7, #12]
 8005420:	689b      	ldr	r3, [r3, #8]
 8005422:	f5b3 5f80 	cmp.w	r3, #4096	; 0x1000
 8005426:	d107      	bne.n	8005438 <UART_Start_Receive_IT+0xf4>
 8005428:	68fb      	ldr	r3, [r7, #12]
 800542a:	691b      	ldr	r3, [r3, #16]
 800542c:	2b00      	cmp	r3, #0
 800542e:	d103      	bne.n	8005438 <UART_Start_Receive_IT+0xf4>
 8005430:	68fb      	ldr	r3, [r7, #12]
 8005432:	4a1f      	ldr	r2, [pc, #124]	; (80054b0 <UART_Start_Receive_IT+0x16c>)
 8005434:	671a      	str	r2, [r3, #112]	; 0x70
 8005436:	e002      	b.n	800543e <UART_Start_Receive_IT+0xfa>
 8005438:	68fb      	ldr	r3, [r7, #12]
 800543a:	4a1e      	ldr	r2, [pc, #120]	; (80054b4 <UART_Start_Receive_IT+0x170>)
 800543c:	671a      	str	r2, [r3, #112]	; 0x70
 800543e:	68fb      	ldr	r3, [r7, #12]
 8005440:	2200      	movs	r2, #0
 8005442:	f883 2080 	strb.w	r2, [r3, #128]	; 0x80
 8005446:	68fb      	ldr	r3, [r7, #12]
 8005448:	681b      	ldr	r3, [r3, #0]
 800544a:	681a      	ldr	r2, [r3, #0]
 800544c:	68fb      	ldr	r3, [r7, #12]
 800544e:	681b      	ldr	r3, [r3, #0]
 8005450:	f442 7280 	orr.w	r2, r2, #256	; 0x100
 8005454:	601a      	str	r2, [r3, #0]
 8005456:	68fb      	ldr	r3, [r7, #12]
 8005458:	681b      	ldr	r3, [r3, #0]
 800545a:	689a      	ldr	r2, [r3, #8]
 800545c:	68fb      	ldr	r3, [r7, #12]
 800545e:	681b      	ldr	r3, [r3, #0]
 8005460:	f042 5280 	orr.w	r2, r2, #268435456	; 0x10000000
 8005464:	609a      	str	r2, [r3, #8]
 8005466:	e01b      	b.n	80054a0 <UART_Start_Receive_IT+0x15c>
 8005468:	68fb      	ldr	r3, [r7, #12]
 800546a:	689b      	ldr	r3, [r3, #8]
 800546c:	f5b3 5f80 	cmp.w	r3, #4096	; 0x1000
 8005470:	d107      	bne.n	8005482 <UART_Start_Receive_IT+0x13e>
 8005472:	68fb      	ldr	r3, [r7, #12]
 8005474:	691b      	ldr	r3, [r3, #16]
 8005476:	2b00      	cmp	r3, #0
 8005478:	d103      	bne.n	8005482 <UART_Start_Receive_IT+0x13e>
 800547a:	68fb      	ldr	r3, [r7, #12]
 800547c:	4a0e      	ldr	r2, [pc, #56]	; (80054b8 <UART_Start_Receive_IT+0x174>)
 800547e:	671a      	str	r2, [r3, #112]	; 0x70
 8005480:	e002      	b.n	8005488 <UART_Start_Receive_IT+0x144>
 8005482:	68fb      	ldr	r3, [r7, #12]
 8005484:	4a0d      	ldr	r2, [pc, #52]	; (80054bc <UART_Start_Receive_IT+0x178>)
 8005486:	671a      	str	r2, [r3, #112]	; 0x70
 8005488:	68fb      	ldr	r3, [r7, #12]
 800548a:	2200      	movs	r2, #0
 800548c:	f883 2080 	strb.w	r2, [r3, #128]	; 0x80
 8005490:	68fb      	ldr	r3, [r7, #12]
 8005492:	681b      	ldr	r3, [r3, #0]
 8005494:	681a      	ldr	r2, [r3, #0]
 8005496:	68fb      	ldr	r3, [r7, #12]
 8005498:	681b      	ldr	r3, [r3, #0]
 800549a:	f442 7290 	orr.w	r2, r2, #288	; 0x120
 800549e:	601a      	str	r2, [r3, #0]
 80054a0:	2300      	movs	r3, #0
 80054a2:	4618      	mov	r0, r3
 80054a4:	3714      	adds	r7, #20
 80054a6:	46bd      	mov	sp, r7
 80054a8:	f85d 7b04 	ldr.w	r7, [sp], #4
 80054ac:	4770      	bx	lr
 80054ae:	bf00      	nop
 80054b0:	08005939 	.word	0x08005939
 80054b4:	08005735 	.word	0x08005735
 80054b8:	0800565d 	.word	0x0800565d
 80054bc:	08005585 	.word	0x08005585

080054c0 <UART_EndRxTransfer>:
 80054c0:	b480      	push	{r7}
 80054c2:	b083      	sub	sp, #12
 80054c4:	af00      	add	r7, sp, #0
 80054c6:	6078      	str	r0, [r7, #4]
 80054c8:	687b      	ldr	r3, [r7, #4]
 80054ca:	681b      	ldr	r3, [r3, #0]
 80054cc:	681a      	ldr	r2, [r3, #0]
 80054ce:	687b      	ldr	r3, [r7, #4]
 80054d0:	681b      	ldr	r3, [r3, #0]
 80054d2:	f422 7290 	bic.w	r2, r2, #288	; 0x120
 80054d6:	601a      	str	r2, [r3, #0]
 80054d8:	687b      	ldr	r3, [r7, #4]
 80054da:	681b      	ldr	r3, [r3, #0]
 80054dc:	689b      	ldr	r3, [r3, #8]
 80054de:	687a      	ldr	r2, [r7, #4]
 80054e0:	6812      	ldr	r2, [r2, #0]
 80054e2:	f023 5380 	bic.w	r3, r3, #268435456	; 0x10000000
 80054e6:	f023 0301 	bic.w	r3, r3, #1
 80054ea:	6093      	str	r3, [r2, #8]
 80054ec:	687b      	ldr	r3, [r7, #4]
 80054ee:	6edb      	ldr	r3, [r3, #108]	; 0x6c
 80054f0:	2b01      	cmp	r3, #1
 80054f2:	d107      	bne.n	8005504 <UART_EndRxTransfer+0x44>
 80054f4:	687b      	ldr	r3, [r7, #4]
 80054f6:	681b      	ldr	r3, [r3, #0]
 80054f8:	681a      	ldr	r2, [r3, #0]
 80054fa:	687b      	ldr	r3, [r7, #4]
 80054fc:	681b      	ldr	r3, [r3, #0]
 80054fe:	f022 0210 	bic.w	r2, r2, #16
 8005502:	601a      	str	r2, [r3, #0]
 8005504:	687b      	ldr	r3, [r7, #4]
 8005506:	2220      	movs	r2, #32
 8005508:	f8c3 2088 	str.w	r2, [r3, #136]	; 0x88
 800550c:	687b      	ldr	r3, [r7, #4]
 800550e:	2200      	movs	r2, #0
 8005510:	66da      	str	r2, [r3, #108]	; 0x6c
 8005512:	687b      	ldr	r3, [r7, #4]
 8005514:	2200      	movs	r2, #0
 8005516:	671a      	str	r2, [r3, #112]	; 0x70
 8005518:	bf00      	nop
 800551a:	370c      	adds	r7, #12
 800551c:	46bd      	mov	sp, r7
 800551e:	f85d 7b04 	ldr.w	r7, [sp], #4
 8005522:	4770      	bx	lr

08005524 <UART_DMAAbortOnError>:
 8005524:	b580      	push	{r7, lr}
 8005526:	b084      	sub	sp, #16
 8005528:	af00      	add	r7, sp, #0
 800552a:	6078      	str	r0, [r7, #4]
 800552c:	687b      	ldr	r3, [r7, #4]
 800552e:	6a9b      	ldr	r3, [r3, #40]	; 0x28
 8005530:	60fb      	str	r3, [r7, #12]
 8005532:	68fb      	ldr	r3, [r7, #12]
 8005534:	2200      	movs	r2, #0
 8005536:	f8a3 205e 	strh.w	r2, [r3, #94]	; 0x5e
 800553a:	68fb      	ldr	r3, [r7, #12]
 800553c:	2200      	movs	r2, #0
 800553e:	f8a3 2056 	strh.w	r2, [r3, #86]	; 0x56
 8005542:	68f8      	ldr	r0, [r7, #12]
 8005544:	f7ff fab0 	bl	8004aa8 <HAL_UART_ErrorCallback>
 8005548:	bf00      	nop
 800554a:	3710      	adds	r7, #16
 800554c:	46bd      	mov	sp, r7
 800554e:	bd80      	pop	{r7, pc}

08005550 <UART_EndTransmit_IT>:
 8005550:	b580      	push	{r7, lr}
 8005552:	b082      	sub	sp, #8
 8005554:	af00      	add	r7, sp, #0
 8005556:	6078      	str	r0, [r7, #4]
 8005558:	687b      	ldr	r3, [r7, #4]
 800555a:	681b      	ldr	r3, [r3, #0]
 800555c:	681a      	ldr	r2, [r3, #0]
 800555e:	687b      	ldr	r3, [r7, #4]
 8005560:	681b      	ldr	r3, [r3, #0]
 8005562:	f022 0240 	bic.w	r2, r2, #64	; 0x40
 8005566:	601a      	str	r2, [r3, #0]
 8005568:	687b      	ldr	r3, [r7, #4]
 800556a:	2220      	movs	r2, #32
 800556c:	f8c3 2084 	str.w	r2, [r3, #132]	; 0x84
 8005570:	687b      	ldr	r3, [r7, #4]
 8005572:	2200      	movs	r2, #0
 8005574:	675a      	str	r2, [r3, #116]	; 0x74
 8005576:	6878      	ldr	r0, [r7, #4]
 8005578:	f7ff fa8c 	bl	8004a94 <HAL_UART_TxCpltCallback>
 800557c:	bf00      	nop
 800557e:	3708      	adds	r7, #8
 8005580:	46bd      	mov	sp, r7
 8005582:	bd80      	pop	{r7, pc}

08005584 <UART_RxISR_8BIT>:
 8005584:	b580      	push	{r7, lr}
 8005586:	b084      	sub	sp, #16
 8005588:	af00      	add	r7, sp, #0
 800558a:	6078      	str	r0, [r7, #4]
 800558c:	687b      	ldr	r3, [r7, #4]
 800558e:	f8b3 3060 	ldrh.w	r3, [r3, #96]	; 0x60
 8005592:	81fb      	strh	r3, [r7, #14]
 8005594:	687b      	ldr	r3, [r7, #4]
 8005596:	f8d3 3088 	ldr.w	r3, [r3, #136]	; 0x88
 800559a:	2b22      	cmp	r3, #34	; 0x22
 800559c:	d152      	bne.n	8005644 <UART_RxISR_8BIT+0xc0>
 800559e:	687b      	ldr	r3, [r7, #4]
 80055a0:	681b      	ldr	r3, [r3, #0]
 80055a2:	6a5b      	ldr	r3, [r3, #36]	; 0x24
 80055a4:	81bb      	strh	r3, [r7, #12]
 80055a6:	89bb      	ldrh	r3, [r7, #12]
 80055a8:	b2d9      	uxtb	r1, r3
 80055aa:	89fb      	ldrh	r3, [r7, #14]
 80055ac:	b2da      	uxtb	r2, r3
 80055ae:	687b      	ldr	r3, [r7, #4]
 80055b0:	6d9b      	ldr	r3, [r3, #88]	; 0x58
 80055b2:	400a      	ands	r2, r1
 80055b4:	b2d2      	uxtb	r2, r2
 80055b6:	701a      	strb	r2, [r3, #0]
 80055b8:	687b      	ldr	r3, [r7, #4]
 80055ba:	6d9b      	ldr	r3, [r3, #88]	; 0x58
 80055bc:	1c5a      	adds	r2, r3, #1
 80055be:	687b      	ldr	r3, [r7, #4]
 80055c0:	659a      	str	r2, [r3, #88]	; 0x58
 80055c2:	687b      	ldr	r3, [r7, #4]
 80055c4:	f8b3 305e 	ldrh.w	r3, [r3, #94]	; 0x5e
 80055c8:	b29b      	uxth	r3, r3
 80055ca:	3b01      	subs	r3, #1
 80055cc:	b29a      	uxth	r2, r3
 80055ce:	687b      	ldr	r3, [r7, #4]
 80055d0:	f8a3 205e 	strh.w	r2, [r3, #94]	; 0x5e
 80055d4:	687b      	ldr	r3, [r7, #4]
 80055d6:	f8b3 305e 	ldrh.w	r3, [r3, #94]	; 0x5e
 80055da:	b29b      	uxth	r3, r3
 80055dc:	2b00      	cmp	r3, #0
 80055de:	d139      	bne.n	8005654 <UART_RxISR_8BIT+0xd0>
 80055e0:	687b      	ldr	r3, [r7, #4]
 80055e2:	681b      	ldr	r3, [r3, #0]
 80055e4:	681a      	ldr	r2, [r3, #0]
 80055e6:	687b      	ldr	r3, [r7, #4]
 80055e8:	681b      	ldr	r3, [r3, #0]
 80055ea:	f422 7290 	bic.w	r2, r2, #288	; 0x120
 80055ee:	601a      	str	r2, [r3, #0]
 80055f0:	687b      	ldr	r3, [r7, #4]
 80055f2:	681b      	ldr	r3, [r3, #0]
 80055f4:	689a      	ldr	r2, [r3, #8]
 80055f6:	687b      	ldr	r3, [r7, #4]
 80055f8:	681b      	ldr	r3, [r3, #0]
 80055fa:	f022 0201 	bic.w	r2, r2, #1
 80055fe:	609a      	str	r2, [r3, #8]
 8005600:	687b      	ldr	r3, [r7, #4]
 8005602:	2220      	movs	r2, #32
 8005604:	f8c3 2088 	str.w	r2, [r3, #136]	; 0x88
 8005608:	687b      	ldr	r3, [r7, #4]
 800560a:	2200      	movs	r2, #0
 800560c:	671a      	str	r2, [r3, #112]	; 0x70
 800560e:	687b      	ldr	r3, [r7, #4]
 8005610:	6edb      	ldr	r3, [r3, #108]	; 0x6c
 8005612:	2b01      	cmp	r3, #1
 8005614:	d10f      	bne.n	8005636 <UART_RxISR_8BIT+0xb2>
 8005616:	687b      	ldr	r3, [r7, #4]
 8005618:	681b      	ldr	r3, [r3, #0]
 800561a:	681a      	ldr	r2, [r3, #0]
 800561c:	687b      	ldr	r3, [r7, #4]
 800561e:	681b      	ldr	r3, [r3, #0]
 8005620:	f022 0210 	bic.w	r2, r2, #16
 8005624:	601a      	str	r2, [r3, #0]
 8005626:	687b      	ldr	r3, [r7, #4]
 8005628:	f8b3 305c 	ldrh.w	r3, [r3, #92]	; 0x5c
 800562c:	4619      	mov	r1, r3
 800562e:	6878      	ldr	r0, [r7, #4]
 8005630:	f7ff fa44 	bl	8004abc <HAL_UARTEx_RxEventCallback>
 8005634:	e002      	b.n	800563c <UART_RxISR_8BIT+0xb8>
 8005636:	6878      	ldr	r0, [r7, #4]
 8005638:	f7fb fa14 	bl	8000a64 <HAL_UART_RxCpltCallback>
 800563c:	687b      	ldr	r3, [r7, #4]
 800563e:	2200      	movs	r2, #0
 8005640:	66da      	str	r2, [r3, #108]	; 0x6c
 8005642:	e007      	b.n	8005654 <UART_RxISR_8BIT+0xd0>
 8005644:	687b      	ldr	r3, [r7, #4]
 8005646:	681b      	ldr	r3, [r3, #0]
 8005648:	699a      	ldr	r2, [r3, #24]
 800564a:	687b      	ldr	r3, [r7, #4]
 800564c:	681b      	ldr	r3, [r3, #0]
 800564e:	f042 0208 	orr.w	r2, r2, #8
 8005652:	619a      	str	r2, [r3, #24]
 8005654:	bf00      	nop
 8005656:	3710      	adds	r7, #16
 8005658:	46bd      	mov	sp, r7
 800565a:	bd80      	pop	{r7, pc}

0800565c <UART_RxISR_16BIT>:
 800565c:	b580      	push	{r7, lr}
 800565e:	b084      	sub	sp, #16
 8005660:	af00      	add	r7, sp, #0
 8005662:	6078      	str	r0, [r7, #4]
 8005664:	687b      	ldr	r3, [r7, #4]
 8005666:	f8b3 3060 	ldrh.w	r3, [r3, #96]	; 0x60
 800566a:	81fb      	strh	r3, [r7, #14]
 800566c:	687b      	ldr	r3, [r7, #4]
 800566e:	f8d3 3088 	ldr.w	r3, [r3, #136]	; 0x88
 8005672:	2b22      	cmp	r3, #34	; 0x22
 8005674:	d152      	bne.n	800571c <UART_RxISR_16BIT+0xc0>
 8005676:	687b      	ldr	r3, [r7, #4]
 8005678:	681b      	ldr	r3, [r3, #0]
 800567a:	6a5b      	ldr	r3, [r3, #36]	; 0x24
 800567c:	81bb      	strh	r3, [r7, #12]
 800567e:	687b      	ldr	r3, [r7, #4]
 8005680:	6d9b      	ldr	r3, [r3, #88]	; 0x58
 8005682:	60bb      	str	r3, [r7, #8]
 8005684:	89ba      	ldrh	r2, [r7, #12]
 8005686:	89fb      	ldrh	r3, [r7, #14]
 8005688:	4013      	ands	r3, r2
 800568a:	b29a      	uxth	r2, r3
 800568c:	68bb      	ldr	r3, [r7, #8]
 800568e:	801a      	strh	r2, [r3, #0]
 8005690:	687b      	ldr	r3, [r7, #4]
 8005692:	6d9b      	ldr	r3, [r3, #88]	; 0x58
 8005694:	1c9a      	adds	r2, r3, #2
 8005696:	687b      	ldr	r3, [r7, #4]
 8005698:	659a      	str	r2, [r3, #88]	; 0x58
 800569a:	687b      	ldr	r3, [r7, #4]
 800569c:	f8b3 305e 	ldrh.w	r3, [r3, #94]	; 0x5e
 80056a0:	b29b      	uxth	r3, r3
 80056a2:	3b01      	subs	r3, #1
 80056a4:	b29a      	uxth	r2, r3
 80056a6:	687b      	ldr	r3, [r7, #4]
 80056a8:	f8a3 205e 	strh.w	r2, [r3, #94]	; 0x5e
 80056ac:	687b      	ldr	r3, [r7, #4]
 80056ae:	f8b3 305e 	ldrh.w	r3, [r3, #94]	; 0x5e
 80056b2:	b29b      	uxth	r3, r3
 80056b4:	2b00      	cmp	r3, #0
 80056b6:	d139      	bne.n	800572c <UART_RxISR_16BIT+0xd0>
 80056b8:	687b      	ldr	r3, [r7, #4]
 80056ba:	681b      	ldr	r3, [r3, #0]
 80056bc:	681a      	ldr	r2, [r3, #0]
 80056be:	687b      	ldr	r3, [r7, #4]
 80056c0:	681b      	ldr	r3, [r3, #0]
 80056c2:	f422 7290 	bic.w	r2, r2, #288	; 0x120
 80056c6:	601a      	str	r2, [r3, #0]
 80056c8:	687b      	ldr	r3, [r7, #4]
 80056ca:	681b      	ldr	r3, [r3, #0]
 80056cc:	689a      	ldr	r2, [r3, #8]
 80056ce:	687b      	ldr	r3, [r7, #4]
 80056d0:	681b      	ldr	r3, [r3, #0]
 80056d2:	f022 0201 	bic.w	r2, r2, #1
 80056d6:	609a      	str	r2, [r3, #8]
 80056d8:	687b      	ldr	r3, [r7, #4]
 80056da:	2220      	movs	r2, #32
 80056dc:	f8c3 2088 	str.w	r2, [r3, #136]	; 0x88
 80056e0:	687b      	ldr	r3, [r7, #4]
 80056e2:	2200      	movs	r2, #0
 80056e4:	671a      	str	r2, [r3, #112]	; 0x70
 80056e6:	687b      	ldr	r3, [r7, #4]
 80056e8:	6edb      	ldr	r3, [r3, #108]	; 0x6c
 80056ea:	2b01      	cmp	r3, #1
 80056ec:	d10f      	bne.n	800570e <UART_RxISR_16BIT+0xb2>
 80056ee:	687b      	ldr	r3, [r7, #4]
 80056f0:	681b      	ldr	r3, [r3, #0]
 80056f2:	681a      	ldr	r2, [r3, #0]
 80056f4:	687b      	ldr	r3, [r7, #4]
 80056f6:	681b      	ldr	r3, [r3, #0]
 80056f8:	f022 0210 	bic.w	r2, r2, #16
 80056fc:	601a      	str	r2, [r3, #0]
 80056fe:	687b      	ldr	r3, [r7, #4]
 8005700:	f8b3 305c 	ldrh.w	r3, [r3, #92]	; 0x5c
 8005704:	4619      	mov	r1, r3
 8005706:	6878      	ldr	r0, [r7, #4]
 8005708:	f7ff f9d8 	bl	8004abc <HAL_UARTEx_RxEventCallback>
 800570c:	e002      	b.n	8005714 <UART_RxISR_16BIT+0xb8>
 800570e:	6878      	ldr	r0, [r7, #4]
 8005710:	f7fb f9a8 	bl	8000a64 <HAL_UART_RxCpltCallback>
 8005714:	687b      	ldr	r3, [r7, #4]
 8005716:	2200      	movs	r2, #0
 8005718:	66da      	str	r2, [r3, #108]	; 0x6c
 800571a:	e007      	b.n	800572c <UART_RxISR_16BIT+0xd0>
 800571c:	687b      	ldr	r3, [r7, #4]
 800571e:	681b      	ldr	r3, [r3, #0]
 8005720:	699a      	ldr	r2, [r3, #24]
 8005722:	687b      	ldr	r3, [r7, #4]
 8005724:	681b      	ldr	r3, [r3, #0]
 8005726:	f042 0208 	orr.w	r2, r2, #8
 800572a:	619a      	str	r2, [r3, #24]
 800572c:	bf00      	nop
 800572e:	3710      	adds	r7, #16
 8005730:	46bd      	mov	sp, r7
 8005732:	bd80      	pop	{r7, pc}

08005734 <UART_RxISR_8BIT_FIFOEN>:
 8005734:	b580      	push	{r7, lr}
 8005736:	b088      	sub	sp, #32
 8005738:	af00      	add	r7, sp, #0
 800573a:	6078      	str	r0, [r7, #4]
 800573c:	687b      	ldr	r3, [r7, #4]
 800573e:	f8b3 3060 	ldrh.w	r3, [r3, #96]	; 0x60
 8005742:	837b      	strh	r3, [r7, #26]
 8005744:	687b      	ldr	r3, [r7, #4]
 8005746:	681b      	ldr	r3, [r3, #0]
 8005748:	69db      	ldr	r3, [r3, #28]
 800574a:	61fb      	str	r3, [r7, #28]
 800574c:	687b      	ldr	r3, [r7, #4]
 800574e:	681b      	ldr	r3, [r3, #0]
 8005750:	681b      	ldr	r3, [r3, #0]
 8005752:	617b      	str	r3, [r7, #20]
 8005754:	687b      	ldr	r3, [r7, #4]
 8005756:	681b      	ldr	r3, [r3, #0]
 8005758:	689b      	ldr	r3, [r3, #8]
 800575a:	613b      	str	r3, [r7, #16]
 800575c:	687b      	ldr	r3, [r7, #4]
 800575e:	f8d3 3088 	ldr.w	r3, [r3, #136]	; 0x88
 8005762:	2b22      	cmp	r3, #34	; 0x22
 8005764:	f040 80da 	bne.w	800591c <UART_RxISR_8BIT_FIFOEN+0x1e8>
 8005768:	687b      	ldr	r3, [r7, #4]
 800576a:	f8b3 3068 	ldrh.w	r3, [r3, #104]	; 0x68
 800576e:	81fb      	strh	r3, [r7, #14]
 8005770:	e0aa      	b.n	80058c8 <UART_RxISR_8BIT_FIFOEN+0x194>
 8005772:	687b      	ldr	r3, [r7, #4]
 8005774:	681b      	ldr	r3, [r3, #0]
 8005776:	6a5b      	ldr	r3, [r3, #36]	; 0x24
 8005778:	81bb      	strh	r3, [r7, #12]
 800577a:	89bb      	ldrh	r3, [r7, #12]
 800577c:	b2d9      	uxtb	r1, r3
 800577e:	8b7b      	ldrh	r3, [r7, #26]
 8005780:	b2da      	uxtb	r2, r3
 8005782:	687b      	ldr	r3, [r7, #4]
 8005784:	6d9b      	ldr	r3, [r3, #88]	; 0x58
 8005786:	400a      	ands	r2, r1
 8005788:	b2d2      	uxtb	r2, r2
 800578a:	701a      	strb	r2, [r3, #0]
 800578c:	687b      	ldr	r3, [r7, #4]
 800578e:	6d9b      	ldr	r3, [r3, #88]	; 0x58
 8005790:	1c5a      	adds	r2, r3, #1
 8005792:	687b      	ldr	r3, [r7, #4]
 8005794:	659a      	str	r2, [r3, #88]	; 0x58
 8005796:	687b      	ldr	r3, [r7, #4]
 8005798:	f8b3 305e 	ldrh.w	r3, [r3, #94]	; 0x5e
 800579c:	b29b      	uxth	r3, r3
 800579e:	3b01      	subs	r3, #1
 80057a0:	b29a      	uxth	r2, r3
 80057a2:	687b      	ldr	r3, [r7, #4]
 80057a4:	f8a3 205e 	strh.w	r2, [r3, #94]	; 0x5e
 80057a8:	687b      	ldr	r3, [r7, #4]
 80057aa:	681b      	ldr	r3, [r3, #0]
 80057ac:	69db      	ldr	r3, [r3, #28]
 80057ae:	61fb      	str	r3, [r7, #28]
 80057b0:	69fb      	ldr	r3, [r7, #28]
 80057b2:	f003 0307 	and.w	r3, r3, #7
 80057b6:	2b00      	cmp	r3, #0
 80057b8:	d04d      	beq.n	8005856 <UART_RxISR_8BIT_FIFOEN+0x122>
 80057ba:	69fb      	ldr	r3, [r7, #28]
 80057bc:	f003 0301 	and.w	r3, r3, #1
 80057c0:	2b00      	cmp	r3, #0
 80057c2:	d010      	beq.n	80057e6 <UART_RxISR_8BIT_FIFOEN+0xb2>
 80057c4:	697b      	ldr	r3, [r7, #20]
 80057c6:	f403 7380 	and.w	r3, r3, #256	; 0x100
 80057ca:	2b00      	cmp	r3, #0
 80057cc:	d00b      	beq.n	80057e6 <UART_RxISR_8BIT_FIFOEN+0xb2>
 80057ce:	687b      	ldr	r3, [r7, #4]
 80057d0:	681b      	ldr	r3, [r3, #0]
 80057d2:	2201      	movs	r2, #1
 80057d4:	621a      	str	r2, [r3, #32]
 80057d6:	687b      	ldr	r3, [r7, #4]
 80057d8:	f8d3 308c 	ldr.w	r3, [r3, #140]	; 0x8c
 80057dc:	f043 0201 	orr.w	r2, r3, #1
 80057e0:	687b      	ldr	r3, [r7, #4]
 80057e2:	f8c3 208c 	str.w	r2, [r3, #140]	; 0x8c
 80057e6:	69fb      	ldr	r3, [r7, #28]
 80057e8:	f003 0302 	and.w	r3, r3, #2
 80057ec:	2b00      	cmp	r3, #0
 80057ee:	d010      	beq.n	8005812 <UART_RxISR_8BIT_FIFOEN+0xde>
 80057f0:	693b      	ldr	r3, [r7, #16]
 80057f2:	f003 0301 	and.w	r3, r3, #1
 80057f6:	2b00      	cmp	r3, #0
 80057f8:	d00b      	beq.n	8005812 <UART_RxISR_8BIT_FIFOEN+0xde>
 80057fa:	687b      	ldr	r3, [r7, #4]
 80057fc:	681b      	ldr	r3, [r3, #0]
 80057fe:	2202      	movs	r2, #2
 8005800:	621a      	str	r2, [r3, #32]
 8005802:	687b      	ldr	r3, [r7, #4]
 8005804:	f8d3 308c 	ldr.w	r3, [r3, #140]	; 0x8c
 8005808:	f043 0204 	orr.w	r2, r3, #4
 800580c:	687b      	ldr	r3, [r7, #4]
 800580e:	f8c3 208c 	str.w	r2, [r3, #140]	; 0x8c
 8005812:	69fb      	ldr	r3, [r7, #28]
 8005814:	f003 0304 	and.w	r3, r3, #4
 8005818:	2b00      	cmp	r3, #0
 800581a:	d010      	beq.n	800583e <UART_RxISR_8BIT_FIFOEN+0x10a>
 800581c:	693b      	ldr	r3, [r7, #16]
 800581e:	f003 0301 	and.w	r3, r3, #1
 8005822:	2b00      	cmp	r3, #0
 8005824:	d00b      	beq.n	800583e <UART_RxISR_8BIT_FIFOEN+0x10a>
 8005826:	687b      	ldr	r3, [r7, #4]
 8005828:	681b      	ldr	r3, [r3, #0]
 800582a:	2204      	movs	r2, #4
 800582c:	621a      	str	r2, [r3, #32]
 800582e:	687b      	ldr	r3, [r7, #4]
 8005830:	f8d3 308c 	ldr.w	r3, [r3, #140]	; 0x8c
 8005834:	f043 0202 	orr.w	r2, r3, #2
 8005838:	687b      	ldr	r3, [r7, #4]
 800583a:	f8c3 208c 	str.w	r2, [r3, #140]	; 0x8c
 800583e:	687b      	ldr	r3, [r7, #4]
 8005840:	f8d3 308c 	ldr.w	r3, [r3, #140]	; 0x8c
 8005844:	2b00      	cmp	r3, #0
 8005846:	d006      	beq.n	8005856 <UART_RxISR_8BIT_FIFOEN+0x122>
 8005848:	6878      	ldr	r0, [r7, #4]
 800584a:	f7ff f92d 	bl	8004aa8 <HAL_UART_ErrorCallback>
 800584e:	687b      	ldr	r3, [r7, #4]
 8005850:	2200      	movs	r2, #0
 8005852:	f8c3 208c 	str.w	r2, [r3, #140]	; 0x8c
 8005856:	687b      	ldr	r3, [r7, #4]
 8005858:	f8b3 305e 	ldrh.w	r3, [r3, #94]	; 0x5e
 800585c:	b29b      	uxth	r3, r3
 800585e:	2b00      	cmp	r3, #0
 8005860:	d132      	bne.n	80058c8 <UART_RxISR_8BIT_FIFOEN+0x194>
 8005862:	687b      	ldr	r3, [r7, #4]
 8005864:	681b      	ldr	r3, [r3, #0]
 8005866:	681a      	ldr	r2, [r3, #0]
 8005868:	687b      	ldr	r3, [r7, #4]
 800586a:	681b      	ldr	r3, [r3, #0]
 800586c:	f422 7280 	bic.w	r2, r2, #256	; 0x100
 8005870:	601a      	str	r2, [r3, #0]
 8005872:	687b      	ldr	r3, [r7, #4]
 8005874:	681b      	ldr	r3, [r3, #0]
 8005876:	689b      	ldr	r3, [r3, #8]
 8005878:	687a      	ldr	r2, [r7, #4]
 800587a:	6812      	ldr	r2, [r2, #0]
 800587c:	f023 5380 	bic.w	r3, r3, #268435456	; 0x10000000
 8005880:	f023 0301 	bic.w	r3, r3, #1
 8005884:	6093      	str	r3, [r2, #8]
 8005886:	687b      	ldr	r3, [r7, #4]
 8005888:	2220      	movs	r2, #32
 800588a:	f8c3 2088 	str.w	r2, [r3, #136]	; 0x88
 800588e:	687b      	ldr	r3, [r7, #4]
 8005890:	2200      	movs	r2, #0
 8005892:	671a      	str	r2, [r3, #112]	; 0x70
 8005894:	687b      	ldr	r3, [r7, #4]
 8005896:	6edb      	ldr	r3, [r3, #108]	; 0x6c
 8005898:	2b01      	cmp	r3, #1
 800589a:	d10f      	bne.n	80058bc <UART_RxISR_8BIT_FIFOEN+0x188>
 800589c:	687b      	ldr	r3, [r7, #4]
 800589e:	681b      	ldr	r3, [r3, #0]
 80058a0:	681a      	ldr	r2, [r3, #0]
 80058a2:	687b      	ldr	r3, [r7, #4]
 80058a4:	681b      	ldr	r3, [r3, #0]
 80058a6:	f022 0210 	bic.w	r2, r2, #16
 80058aa:	601a      	str	r2, [r3, #0]
 80058ac:	687b      	ldr	r3, [r7, #4]
 80058ae:	f8b3 305c 	ldrh.w	r3, [r3, #92]	; 0x5c
 80058b2:	4619      	mov	r1, r3
 80058b4:	6878      	ldr	r0, [r7, #4]
 80058b6:	f7ff f901 	bl	8004abc <HAL_UARTEx_RxEventCallback>
 80058ba:	e002      	b.n	80058c2 <UART_RxISR_8BIT_FIFOEN+0x18e>
 80058bc:	6878      	ldr	r0, [r7, #4]
 80058be:	f7fb f8d1 	bl	8000a64 <HAL_UART_RxCpltCallback>
 80058c2:	687b      	ldr	r3, [r7, #4]
 80058c4:	2200      	movs	r2, #0
 80058c6:	66da      	str	r2, [r3, #108]	; 0x6c
 80058c8:	89fb      	ldrh	r3, [r7, #14]
 80058ca:	2b00      	cmp	r3, #0
 80058cc:	d005      	beq.n	80058da <UART_RxISR_8BIT_FIFOEN+0x1a6>
 80058ce:	69fb      	ldr	r3, [r7, #28]
 80058d0:	f003 0320 	and.w	r3, r3, #32
 80058d4:	2b00      	cmp	r3, #0
 80058d6:	f47f af4c 	bne.w	8005772 <UART_RxISR_8BIT_FIFOEN+0x3e>
 80058da:	687b      	ldr	r3, [r7, #4]
 80058dc:	f8b3 305e 	ldrh.w	r3, [r3, #94]	; 0x5e
 80058e0:	817b      	strh	r3, [r7, #10]
 80058e2:	897b      	ldrh	r3, [r7, #10]
 80058e4:	2b00      	cmp	r3, #0
 80058e6:	d021      	beq.n	800592c <UART_RxISR_8BIT_FIFOEN+0x1f8>
 80058e8:	687b      	ldr	r3, [r7, #4]
 80058ea:	f8b3 3068 	ldrh.w	r3, [r3, #104]	; 0x68
 80058ee:	897a      	ldrh	r2, [r7, #10]
 80058f0:	429a      	cmp	r2, r3
 80058f2:	d21b      	bcs.n	800592c <UART_RxISR_8BIT_FIFOEN+0x1f8>
 80058f4:	687b      	ldr	r3, [r7, #4]
 80058f6:	681b      	ldr	r3, [r3, #0]
 80058f8:	689a      	ldr	r2, [r3, #8]
 80058fa:	687b      	ldr	r3, [r7, #4]
 80058fc:	681b      	ldr	r3, [r3, #0]
 80058fe:	f022 5280 	bic.w	r2, r2, #268435456	; 0x10000000
 8005902:	609a      	str	r2, [r3, #8]
 8005904:	687b      	ldr	r3, [r7, #4]
 8005906:	4a0b      	ldr	r2, [pc, #44]	; (8005934 <UART_RxISR_8BIT_FIFOEN+0x200>)
 8005908:	671a      	str	r2, [r3, #112]	; 0x70
 800590a:	687b      	ldr	r3, [r7, #4]
 800590c:	681b      	ldr	r3, [r3, #0]
 800590e:	681a      	ldr	r2, [r3, #0]
 8005910:	687b      	ldr	r3, [r7, #4]
 8005912:	681b      	ldr	r3, [r3, #0]
 8005914:	f042 0220 	orr.w	r2, r2, #32
 8005918:	601a      	str	r2, [r3, #0]
 800591a:	e007      	b.n	800592c <UART_RxISR_8BIT_FIFOEN+0x1f8>
 800591c:	687b      	ldr	r3, [r7, #4]
 800591e:	681b      	ldr	r3, [r3, #0]
 8005920:	699a      	ldr	r2, [r3, #24]
 8005922:	687b      	ldr	r3, [r7, #4]
 8005924:	681b      	ldr	r3, [r3, #0]
 8005926:	f042 0208 	orr.w	r2, r2, #8
 800592a:	619a      	str	r2, [r3, #24]
 800592c:	bf00      	nop
 800592e:	3720      	adds	r7, #32
 8005930:	46bd      	mov	sp, r7
 8005932:	bd80      	pop	{r7, pc}
 8005934:	08005585 	.word	0x08005585

08005938 <UART_RxISR_16BIT_FIFOEN>:
 8005938:	b580      	push	{r7, lr}
 800593a:	b08a      	sub	sp, #40	; 0x28
 800593c:	af00      	add	r7, sp, #0
 800593e:	6078      	str	r0, [r7, #4]
 8005940:	687b      	ldr	r3, [r7, #4]
 8005942:	f8b3 3060 	ldrh.w	r3, [r3, #96]	; 0x60
 8005946:	847b      	strh	r3, [r7, #34]	; 0x22
 8005948:	687b      	ldr	r3, [r7, #4]
 800594a:	681b      	ldr	r3, [r3, #0]
 800594c:	69db      	ldr	r3, [r3, #28]
 800594e:	627b      	str	r3, [r7, #36]	; 0x24
 8005950:	687b      	ldr	r3, [r7, #4]
 8005952:	681b      	ldr	r3, [r3, #0]
 8005954:	681b      	ldr	r3, [r3, #0]
 8005956:	61fb      	str	r3, [r7, #28]
 8005958:	687b      	ldr	r3, [r7, #4]
 800595a:	681b      	ldr	r3, [r3, #0]
 800595c:	689b      	ldr	r3, [r3, #8]
 800595e:	61bb      	str	r3, [r7, #24]
 8005960:	687b      	ldr	r3, [r7, #4]
 8005962:	f8d3 3088 	ldr.w	r3, [r3, #136]	; 0x88
 8005966:	2b22      	cmp	r3, #34	; 0x22
 8005968:	f040 80da 	bne.w	8005b20 <UART_RxISR_16BIT_FIFOEN+0x1e8>
 800596c:	687b      	ldr	r3, [r7, #4]
 800596e:	f8b3 3068 	ldrh.w	r3, [r3, #104]	; 0x68
 8005972:	82fb      	strh	r3, [r7, #22]
 8005974:	e0aa      	b.n	8005acc <UART_RxISR_16BIT_FIFOEN+0x194>
 8005976:	687b      	ldr	r3, [r7, #4]
 8005978:	681b      	ldr	r3, [r3, #0]
 800597a:	6a5b      	ldr	r3, [r3, #36]	; 0x24
 800597c:	82bb      	strh	r3, [r7, #20]
 800597e:	687b      	ldr	r3, [r7, #4]
 8005980:	6d9b      	ldr	r3, [r3, #88]	; 0x58
 8005982:	613b      	str	r3, [r7, #16]
 8005984:	8aba      	ldrh	r2, [r7, #20]
 8005986:	8c7b      	ldrh	r3, [r7, #34]	; 0x22
 8005988:	4013      	ands	r3, r2
 800598a:	b29a      	uxth	r2, r3
 800598c:	693b      	ldr	r3, [r7, #16]
 800598e:	801a      	strh	r2, [r3, #0]
 8005990:	687b      	ldr	r3, [r7, #4]
 8005992:	6d9b      	ldr	r3, [r3, #88]	; 0x58
 8005994:	1c9a      	adds	r2, r3, #2
 8005996:	687b      	ldr	r3, [r7, #4]
 8005998:	659a      	str	r2, [r3, #88]	; 0x58
 800599a:	687b      	ldr	r3, [r7, #4]
 800599c:	f8b3 305e 	ldrh.w	r3, [r3, #94]	; 0x5e
 80059a0:	b29b      	uxth	r3, r3
 80059a2:	3b01      	subs	r3, #1
 80059a4:	b29a      	uxth	r2, r3
 80059a6:	687b      	ldr	r3, [r7, #4]
 80059a8:	f8a3 205e 	strh.w	r2, [r3, #94]	; 0x5e
 80059ac:	687b      	ldr	r3, [r7, #4]
 80059ae:	681b      	ldr	r3, [r3, #0]
 80059b0:	69db      	ldr	r3, [r3, #28]
 80059b2:	627b      	str	r3, [r7, #36]	; 0x24
 80059b4:	6a7b      	ldr	r3, [r7, #36]	; 0x24
 80059b6:	f003 0307 	and.w	r3, r3, #7
 80059ba:	2b00      	cmp	r3, #0
 80059bc:	d04d      	beq.n	8005a5a <UART_RxISR_16BIT_FIFOEN+0x122>
 80059be:	6a7b      	ldr	r3, [r7, #36]	; 0x24
 80059c0:	f003 0301 	and.w	r3, r3, #1
 80059c4:	2b00      	cmp	r3, #0
 80059c6:	d010      	beq.n	80059ea <UART_RxISR_16BIT_FIFOEN+0xb2>
 80059c8:	69fb      	ldr	r3, [r7, #28]
 80059ca:	f403 7380 	and.w	r3, r3, #256	; 0x100
 80059ce:	2b00      	cmp	r3, #0
 80059d0:	d00b      	beq.n	80059ea <UART_RxISR_16BIT_FIFOEN+0xb2>
 80059d2:	687b      	ldr	r3, [r7, #4]
 80059d4:	681b      	ldr	r3, [r3, #0]
 80059d6:	2201      	movs	r2, #1
 80059d8:	621a      	str	r2, [r3, #32]
 80059da:	687b      	ldr	r3, [r7, #4]
 80059dc:	f8d3 308c 	ldr.w	r3, [r3, #140]	; 0x8c
 80059e0:	f043 0201 	orr.w	r2, r3, #1
 80059e4:	687b      	ldr	r3, [r7, #4]
 80059e6:	f8c3 208c 	str.w	r2, [r3, #140]	; 0x8c
 80059ea:	6a7b      	ldr	r3, [r7, #36]	; 0x24
 80059ec:	f003 0302 	and.w	r3, r3, #2
 80059f0:	2b00      	cmp	r3, #0
 80059f2:	d010      	beq.n	8005a16 <UART_RxISR_16BIT_FIFOEN+0xde>
 80059f4:	69bb      	ldr	r3, [r7, #24]
 80059f6:	f003 0301 	and.w	r3, r3, #1
 80059fa:	2b00      	cmp	r3, #0
 80059fc:	d00b      	beq.n	8005a16 <UART_RxISR_16BIT_FIFOEN+0xde>
 80059fe:	687b      	ldr	r3, [r7, #4]
 8005a00:	681b      	ldr	r3, [r3, #0]
 8005a02:	2202      	movs	r2, #2
 8005a04:	621a      	str	r2, [r3, #32]
 8005a06:	687b      	ldr	r3, [r7, #4]
 8005a08:	f8d3 308c 	ldr.w	r3, [r3, #140]	; 0x8c
 8005a0c:	f043 0204 	orr.w	r2, r3, #4
 8005a10:	687b      	ldr	r3, [r7, #4]
 8005a12:	f8c3 208c 	str.w	r2, [r3, #140]	; 0x8c
 8005a16:	6a7b      	ldr	r3, [r7, #36]	; 0x24
 8005a18:	f003 0304 	and.w	r3, r3, #4
 8005a1c:	2b00      	cmp	r3, #0
 8005a1e:	d010      	beq.n	8005a42 <UART_RxISR_16BIT_FIFOEN+0x10a>
 8005a20:	69bb      	ldr	r3, [r7, #24]
 8005a22:	f003 0301 	and.w	r3, r3, #1
 8005a26:	2b00      	cmp	r3, #0
 8005a28:	d00b      	beq.n	8005a42 <UART_RxISR_16BIT_FIFOEN+0x10a>
 8005a2a:	687b      	ldr	r3, [r7, #4]
 8005a2c:	681b      	ldr	r3, [r3, #0]
 8005a2e:	2204      	movs	r2, #4
 8005a30:	621a      	str	r2, [r3, #32]
 8005a32:	687b      	ldr	r3, [r7, #4]
 8005a34:	f8d3 308c 	ldr.w	r3, [r3, #140]	; 0x8c
 8005a38:	f043 0202 	orr.w	r2, r3, #2
 8005a3c:	687b      	ldr	r3, [r7, #4]
 8005a3e:	f8c3 208c 	str.w	r2, [r3, #140]	; 0x8c
 8005a42:	687b      	ldr	r3, [r7, #4]
 8005a44:	f8d3 308c 	ldr.w	r3, [r3, #140]	; 0x8c
 8005a48:	2b00      	cmp	r3, #0
 8005a4a:	d006      	beq.n	8005a5a <UART_RxISR_16BIT_FIFOEN+0x122>
 8005a4c:	6878      	ldr	r0, [r7, #4]
 8005a4e:	f7ff f82b 	bl	8004aa8 <HAL_UART_ErrorCallback>
 8005a52:	687b      	ldr	r3, [r7, #4]
 8005a54:	2200      	movs	r2, #0
 8005a56:	f8c3 208c 	str.w	r2, [r3, #140]	; 0x8c
 8005a5a:	687b      	ldr	r3, [r7, #4]
 8005a5c:	f8b3 305e 	ldrh.w	r3, [r3, #94]	; 0x5e
 8005a60:	b29b      	uxth	r3, r3
 8005a62:	2b00      	cmp	r3, #0
 8005a64:	d132      	bne.n	8005acc <UART_RxISR_16BIT_FIFOEN+0x194>
 8005a66:	687b      	ldr	r3, [r7, #4]
 8005a68:	681b      	ldr	r3, [r3, #0]
 8005a6a:	681a      	ldr	r2, [r3, #0]
 8005a6c:	687b      	ldr	r3, [r7, #4]
 8005a6e:	681b      	ldr	r3, [r3, #0]
 8005a70:	f422 7280 	bic.w	r2, r2, #256	; 0x100
 8005a74:	601a      	str	r2, [r3, #0]
 8005a76:	687b      	ldr	r3, [r7, #4]
 8005a78:	681b      	ldr	r3, [r3, #0]
 8005a7a:	689b      	ldr	r3, [r3, #8]
 8005a7c:	687a      	ldr	r2, [r7, #4]
 8005a7e:	6812      	ldr	r2, [r2, #0]
 8005a80:	f023 5380 	bic.w	r3, r3, #268435456	; 0x10000000
 8005a84:	f023 0301 	bic.w	r3, r3, #1
 8005a88:	6093      	str	r3, [r2, #8]
 8005a8a:	687b      	ldr	r3, [r7, #4]
 8005a8c:	2220      	movs	r2, #32
 8005a8e:	f8c3 2088 	str.w	r2, [r3, #136]	; 0x88
 8005a92:	687b      	ldr	r3, [r7, #4]
 8005a94:	2200      	movs	r2, #0
 8005a96:	671a      	str	r2, [r3, #112]	; 0x70
 8005a98:	687b      	ldr	r3, [r7, #4]
 8005a9a:	6edb      	ldr	r3, [r3, #108]	; 0x6c
 8005a9c:	2b01      	cmp	r3, #1
 8005a9e:	d10f      	bne.n	8005ac0 <UART_RxISR_16BIT_FIFOEN+0x188>
 8005aa0:	687b      	ldr	r3, [r7, #4]
 8005aa2:	681b      	ldr	r3, [r3, #0]
 8005aa4:	681a      	ldr	r2, [r3, #0]
 8005aa6:	687b      	ldr	r3, [r7, #4]
 8005aa8:	681b      	ldr	r3, [r3, #0]
 8005aaa:	f022 0210 	bic.w	r2, r2, #16
 8005aae:	601a      	str	r2, [r3, #0]
 8005ab0:	687b      	ldr	r3, [r7, #4]
 8005ab2:	f8b3 305c 	ldrh.w	r3, [r3, #92]	; 0x5c
 8005ab6:	4619      	mov	r1, r3
 8005ab8:	6878      	ldr	r0, [r7, #4]
 8005aba:	f7fe ffff 	bl	8004abc <HAL_UARTEx_RxEventCallback>
 8005abe:	e002      	b.n	8005ac6 <UART_RxISR_16BIT_FIFOEN+0x18e>
 8005ac0:	6878      	ldr	r0, [r7, #4]
 8005ac2:	f7fa ffcf 	bl	8000a64 <HAL_UART_RxCpltCallback>
 8005ac6:	687b      	ldr	r3, [r7, #4]
 8005ac8:	2200      	movs	r2, #0
 8005aca:	66da      	str	r2, [r3, #108]	; 0x6c
 8005acc:	8afb      	ldrh	r3, [r7, #22]
 8005ace:	2b00      	cmp	r3, #0
 8005ad0:	d005      	beq.n	8005ade <UART_RxISR_16BIT_FIFOEN+0x1a6>
 8005ad2:	6a7b      	ldr	r3, [r7, #36]	; 0x24
 8005ad4:	f003 0320 	and.w	r3, r3, #32
 8005ad8:	2b00      	cmp	r3, #0
 8005ada:	f47f af4c 	bne.w	8005976 <UART_RxISR_16BIT_FIFOEN+0x3e>
 8005ade:	687b      	ldr	r3, [r7, #4]
 8005ae0:	f8b3 305e 	ldrh.w	r3, [r3, #94]	; 0x5e
 8005ae4:	81fb      	strh	r3, [r7, #14]
 8005ae6:	89fb      	ldrh	r3, [r7, #14]
 8005ae8:	2b00      	cmp	r3, #0
 8005aea:	d021      	beq.n	8005b30 <UART_RxISR_16BIT_FIFOEN+0x1f8>
 8005aec:	687b      	ldr	r3, [r7, #4]
 8005aee:	f8b3 3068 	ldrh.w	r3, [r3, #104]	; 0x68
 8005af2:	89fa      	ldrh	r2, [r7, #14]
 8005af4:	429a      	cmp	r2, r3
 8005af6:	d21b      	bcs.n	8005b30 <UART_RxISR_16BIT_FIFOEN+0x1f8>
 8005af8:	687b      	ldr	r3, [r7, #4]
 8005afa:	681b      	ldr	r3, [r3, #0]
 8005afc:	689a      	ldr	r2, [r3, #8]
 8005afe:	687b      	ldr	r3, [r7, #4]
 8005b00:	681b      	ldr	r3, [r3, #0]
 8005b02:	f022 5280 	bic.w	r2, r2, #268435456	; 0x10000000
 8005b06:	609a      	str	r2, [r3, #8]
 8005b08:	687b      	ldr	r3, [r7, #4]
 8005b0a:	4a0b      	ldr	r2, [pc, #44]	; (8005b38 <UART_RxISR_16BIT_FIFOEN+0x200>)
 8005b0c:	671a      	str	r2, [r3, #112]	; 0x70
 8005b0e:	687b      	ldr	r3, [r7, #4]
 8005b10:	681b      	ldr	r3, [r3, #0]
 8005b12:	681a      	ldr	r2, [r3, #0]
 8005b14:	687b      	ldr	r3, [r7, #4]
 8005b16:	681b      	ldr	r3, [r3, #0]
 8005b18:	f042 0220 	orr.w	r2, r2, #32
 8005b1c:	601a      	str	r2, [r3, #0]
 8005b1e:	e007      	b.n	8005b30 <UART_RxISR_16BIT_FIFOEN+0x1f8>
 8005b20:	687b      	ldr	r3, [r7, #4]
 8005b22:	681b      	ldr	r3, [r3, #0]
 8005b24:	699a      	ldr	r2, [r3, #24]
 8005b26:	687b      	ldr	r3, [r7, #4]
 8005b28:	681b      	ldr	r3, [r3, #0]
 8005b2a:	f042 0208 	orr.w	r2, r2, #8
 8005b2e:	619a      	str	r2, [r3, #24]
 8005b30:	bf00      	nop
 8005b32:	3728      	adds	r7, #40	; 0x28
 8005b34:	46bd      	mov	sp, r7
 8005b36:	bd80      	pop	{r7, pc}
 8005b38:	0800565d 	.word	0x0800565d

08005b3c <HAL_UARTEx_WakeupCallback>:
 8005b3c:	b480      	push	{r7}
 8005b3e:	b083      	sub	sp, #12
 8005b40:	af00      	add	r7, sp, #0
 8005b42:	6078      	str	r0, [r7, #4]
 8005b44:	bf00      	nop
 8005b46:	370c      	adds	r7, #12
 8005b48:	46bd      	mov	sp, r7
 8005b4a:	f85d 7b04 	ldr.w	r7, [sp], #4
 8005b4e:	4770      	bx	lr

08005b50 <HAL_UARTEx_RxFifoFullCallback>:
 8005b50:	b480      	push	{r7}
 8005b52:	b083      	sub	sp, #12
 8005b54:	af00      	add	r7, sp, #0
 8005b56:	6078      	str	r0, [r7, #4]
 8005b58:	bf00      	nop
 8005b5a:	370c      	adds	r7, #12
 8005b5c:	46bd      	mov	sp, r7
 8005b5e:	f85d 7b04 	ldr.w	r7, [sp], #4
 8005b62:	4770      	bx	lr

08005b64 <HAL_UARTEx_TxFifoEmptyCallback>:
 8005b64:	b480      	push	{r7}
 8005b66:	b083      	sub	sp, #12
 8005b68:	af00      	add	r7, sp, #0
 8005b6a:	6078      	str	r0, [r7, #4]
 8005b6c:	bf00      	nop
 8005b6e:	370c      	adds	r7, #12
 8005b70:	46bd      	mov	sp, r7
 8005b72:	f85d 7b04 	ldr.w	r7, [sp], #4
 8005b76:	4770      	bx	lr

08005b78 <HAL_UARTEx_DisableFifoMode>:
 8005b78:	b480      	push	{r7}
 8005b7a:	b085      	sub	sp, #20
 8005b7c:	af00      	add	r7, sp, #0
 8005b7e:	6078      	str	r0, [r7, #4]
 8005b80:	687b      	ldr	r3, [r7, #4]
 8005b82:	f893 3080 	ldrb.w	r3, [r3, #128]	; 0x80
 8005b86:	2b01      	cmp	r3, #1
 8005b88:	d101      	bne.n	8005b8e <HAL_UARTEx_DisableFifoMode+0x16>
 8005b8a:	2302      	movs	r3, #2
 8005b8c:	e027      	b.n	8005bde <HAL_UARTEx_DisableFifoMode+0x66>
 8005b8e:	687b      	ldr	r3, [r7, #4]
 8005b90:	2201      	movs	r2, #1
 8005b92:	f883 2080 	strb.w	r2, [r3, #128]	; 0x80
 8005b96:	687b      	ldr	r3, [r7, #4]
 8005b98:	2224      	movs	r2, #36	; 0x24
 8005b9a:	f8c3 2084 	str.w	r2, [r3, #132]	; 0x84
 8005b9e:	687b      	ldr	r3, [r7, #4]
 8005ba0:	681b      	ldr	r3, [r3, #0]
 8005ba2:	681b      	ldr	r3, [r3, #0]
 8005ba4:	60fb      	str	r3, [r7, #12]
 8005ba6:	687b      	ldr	r3, [r7, #4]
 8005ba8:	681b      	ldr	r3, [r3, #0]
 8005baa:	681a      	ldr	r2, [r3, #0]
 8005bac:	687b      	ldr	r3, [r7, #4]
 8005bae:	681b      	ldr	r3, [r3, #0]
 8005bb0:	f022 0201 	bic.w	r2, r2, #1
 8005bb4:	601a      	str	r2, [r3, #0]
 8005bb6:	68fb      	ldr	r3, [r7, #12]
 8005bb8:	f023 5300 	bic.w	r3, r3, #536870912	; 0x20000000
 8005bbc:	60fb      	str	r3, [r7, #12]
 8005bbe:	687b      	ldr	r3, [r7, #4]
 8005bc0:	2200      	movs	r2, #0
 8005bc2:	665a      	str	r2, [r3, #100]	; 0x64
 8005bc4:	687b      	ldr	r3, [r7, #4]
 8005bc6:	681b      	ldr	r3, [r3, #0]
 8005bc8:	68fa      	ldr	r2, [r7, #12]
 8005bca:	601a      	str	r2, [r3, #0]
 8005bcc:	687b      	ldr	r3, [r7, #4]
 8005bce:	2220      	movs	r2, #32
 8005bd0:	f8c3 2084 	str.w	r2, [r3, #132]	; 0x84
 8005bd4:	687b      	ldr	r3, [r7, #4]
 8005bd6:	2200      	movs	r2, #0
 8005bd8:	f883 2080 	strb.w	r2, [r3, #128]	; 0x80
 8005bdc:	2300      	movs	r3, #0
 8005bde:	4618      	mov	r0, r3
 8005be0:	3714      	adds	r7, #20
 8005be2:	46bd      	mov	sp, r7
 8005be4:	f85d 7b04 	ldr.w	r7, [sp], #4
 8005be8:	4770      	bx	lr

08005bea <HAL_UARTEx_SetTxFifoThreshold>:
 8005bea:	b580      	push	{r7, lr}
 8005bec:	b084      	sub	sp, #16
 8005bee:	af00      	add	r7, sp, #0
 8005bf0:	6078      	str	r0, [r7, #4]
 8005bf2:	6039      	str	r1, [r7, #0]
 8005bf4:	687b      	ldr	r3, [r7, #4]
 8005bf6:	f893 3080 	ldrb.w	r3, [r3, #128]	; 0x80
 8005bfa:	2b01      	cmp	r3, #1
 8005bfc:	d101      	bne.n	8005c02 <HAL_UARTEx_SetTxFifoThreshold+0x18>
 8005bfe:	2302      	movs	r3, #2
 8005c00:	e02d      	b.n	8005c5e <HAL_UARTEx_SetTxFifoThreshold+0x74>
 8005c02:	687b      	ldr	r3, [r7, #4]
 8005c04:	2201      	movs	r2, #1
 8005c06:	f883 2080 	strb.w	r2, [r3, #128]	; 0x80
 8005c0a:	687b      	ldr	r3, [r7, #4]
 8005c0c:	2224      	movs	r2, #36	; 0x24
 8005c0e:	f8c3 2084 	str.w	r2, [r3, #132]	; 0x84
 8005c12:	687b      	ldr	r3, [r7, #4]
 8005c14:	681b      	ldr	r3, [r3, #0]
 8005c16:	681b      	ldr	r3, [r3, #0]
 8005c18:	60fb      	str	r3, [r7, #12]
 8005c1a:	687b      	ldr	r3, [r7, #4]
 8005c1c:	681b      	ldr	r3, [r3, #0]
 8005c1e:	681a      	ldr	r2, [r3, #0]
 8005c20:	687b      	ldr	r3, [r7, #4]
 8005c22:	681b      	ldr	r3, [r3, #0]
 8005c24:	f022 0201 	bic.w	r2, r2, #1
 8005c28:	601a      	str	r2, [r3, #0]
 8005c2a:	687b      	ldr	r3, [r7, #4]
 8005c2c:	681b      	ldr	r3, [r3, #0]
 8005c2e:	689b      	ldr	r3, [r3, #8]
 8005c30:	f023 4160 	bic.w	r1, r3, #3758096384	; 0xe0000000
 8005c34:	687b      	ldr	r3, [r7, #4]
 8005c36:	681b      	ldr	r3, [r3, #0]
 8005c38:	683a      	ldr	r2, [r7, #0]
 8005c3a:	430a      	orrs	r2, r1
 8005c3c:	609a      	str	r2, [r3, #8]
 8005c3e:	6878      	ldr	r0, [r7, #4]
 8005c40:	f000 f850 	bl	8005ce4 <UARTEx_SetNbDataToProcess>
 8005c44:	687b      	ldr	r3, [r7, #4]
 8005c46:	681b      	ldr	r3, [r3, #0]
 8005c48:	68fa      	ldr	r2, [r7, #12]
 8005c4a:	601a      	str	r2, [r3, #0]
 8005c4c:	687b      	ldr	r3, [r7, #4]
 8005c4e:	2220      	movs	r2, #32
 8005c50:	f8c3 2084 	str.w	r2, [r3, #132]	; 0x84
 8005c54:	687b      	ldr	r3, [r7, #4]
 8005c56:	2200      	movs	r2, #0
 8005c58:	f883 2080 	strb.w	r2, [r3, #128]	; 0x80
 8005c5c:	2300      	movs	r3, #0
 8005c5e:	4618      	mov	r0, r3
 8005c60:	3710      	adds	r7, #16
 8005c62:	46bd      	mov	sp, r7
 8005c64:	bd80      	pop	{r7, pc}

08005c66 <HAL_UARTEx_SetRxFifoThreshold>:
 8005c66:	b580      	push	{r7, lr}
 8005c68:	b084      	sub	sp, #16
 8005c6a:	af00      	add	r7, sp, #0
 8005c6c:	6078      	str	r0, [r7, #4]
 8005c6e:	6039      	str	r1, [r7, #0]
 8005c70:	687b      	ldr	r3, [r7, #4]
 8005c72:	f893 3080 	ldrb.w	r3, [r3, #128]	; 0x80
 8005c76:	2b01      	cmp	r3, #1
 8005c78:	d101      	bne.n	8005c7e <HAL_UARTEx_SetRxFifoThreshold+0x18>
 8005c7a:	2302      	movs	r3, #2
 8005c7c:	e02d      	b.n	8005cda <HAL_UARTEx_SetRxFifoThreshold+0x74>
 8005c7e:	687b      	ldr	r3, [r7, #4]
 8005c80:	2201      	movs	r2, #1
 8005c82:	f883 2080 	strb.w	r2, [r3, #128]	; 0x80
 8005c86:	687b      	ldr	r3, [r7, #4]
 8005c88:	2224      	movs	r2, #36	; 0x24
 8005c8a:	f8c3 2084 	str.w	r2, [r3, #132]	; 0x84
 8005c8e:	687b      	ldr	r3, [r7, #4]
 8005c90:	681b      	ldr	r3, [r3, #0]
 8005c92:	681b      	ldr	r3, [r3, #0]
 8005c94:	60fb      	str	r3, [r7, #12]
 8005c96:	687b      	ldr	r3, [r7, #4]
 8005c98:	681b      	ldr	r3, [r3, #0]
 8005c9a:	681a      	ldr	r2, [r3, #0]
 8005c9c:	687b      	ldr	r3, [r7, #4]
 8005c9e:	681b      	ldr	r3, [r3, #0]
 8005ca0:	f022 0201 	bic.w	r2, r2, #1
 8005ca4:	601a      	str	r2, [r3, #0]
 8005ca6:	687b      	ldr	r3, [r7, #4]
 8005ca8:	681b      	ldr	r3, [r3, #0]
 8005caa:	689b      	ldr	r3, [r3, #8]
 8005cac:	f023 6160 	bic.w	r1, r3, #234881024	; 0xe000000
 8005cb0:	687b      	ldr	r3, [r7, #4]
 8005cb2:	681b      	ldr	r3, [r3, #0]
 8005cb4:	683a      	ldr	r2, [r7, #0]
 8005cb6:	430a      	orrs	r2, r1
 8005cb8:	609a      	str	r2, [r3, #8]
 8005cba:	6878      	ldr	r0, [r7, #4]
 8005cbc:	f000 f812 	bl	8005ce4 <UARTEx_SetNbDataToProcess>
 8005cc0:	687b      	ldr	r3, [r7, #4]
 8005cc2:	681b      	ldr	r3, [r3, #0]
 8005cc4:	68fa      	ldr	r2, [r7, #12]
 8005cc6:	601a      	str	r2, [r3, #0]
 8005cc8:	687b      	ldr	r3, [r7, #4]
 8005cca:	2220      	movs	r2, #32
 8005ccc:	f8c3 2084 	str.w	r2, [r3, #132]	; 0x84
 8005cd0:	687b      	ldr	r3, [r7, #4]
 8005cd2:	2200      	movs	r2, #0
 8005cd4:	f883 2080 	strb.w	r2, [r3, #128]	; 0x80
 8005cd8:	2300      	movs	r3, #0
 8005cda:	4618      	mov	r0, r3
 8005cdc:	3710      	adds	r7, #16
 8005cde:	46bd      	mov	sp, r7
 8005ce0:	bd80      	pop	{r7, pc}
	...

08005ce4 <UARTEx_SetNbDataToProcess>:
 8005ce4:	b480      	push	{r7}
 8005ce6:	b085      	sub	sp, #20
 8005ce8:	af00      	add	r7, sp, #0
 8005cea:	6078      	str	r0, [r7, #4]
 8005cec:	687b      	ldr	r3, [r7, #4]
 8005cee:	6e5b      	ldr	r3, [r3, #100]	; 0x64
 8005cf0:	2b00      	cmp	r3, #0
 8005cf2:	d108      	bne.n	8005d06 <UARTEx_SetNbDataToProcess+0x22>
 8005cf4:	687b      	ldr	r3, [r7, #4]
 8005cf6:	2201      	movs	r2, #1
 8005cf8:	f8a3 206a 	strh.w	r2, [r3, #106]	; 0x6a
 8005cfc:	687b      	ldr	r3, [r7, #4]
 8005cfe:	2201      	movs	r2, #1
 8005d00:	f8a3 2068 	strh.w	r2, [r3, #104]	; 0x68
 8005d04:	e031      	b.n	8005d6a <UARTEx_SetNbDataToProcess+0x86>
 8005d06:	2308      	movs	r3, #8
 8005d08:	73fb      	strb	r3, [r7, #15]
 8005d0a:	2308      	movs	r3, #8
 8005d0c:	73bb      	strb	r3, [r7, #14]
 8005d0e:	687b      	ldr	r3, [r7, #4]
 8005d10:	681b      	ldr	r3, [r3, #0]
 8005d12:	689b      	ldr	r3, [r3, #8]
 8005d14:	0e5b      	lsrs	r3, r3, #25
 8005d16:	b2db      	uxtb	r3, r3
 8005d18:	f003 0307 	and.w	r3, r3, #7
 8005d1c:	737b      	strb	r3, [r7, #13]
 8005d1e:	687b      	ldr	r3, [r7, #4]
 8005d20:	681b      	ldr	r3, [r3, #0]
 8005d22:	689b      	ldr	r3, [r3, #8]
 8005d24:	0f5b      	lsrs	r3, r3, #29
 8005d26:	b2db      	uxtb	r3, r3
 8005d28:	f003 0307 	and.w	r3, r3, #7
 8005d2c:	733b      	strb	r3, [r7, #12]
 8005d2e:	7bbb      	ldrb	r3, [r7, #14]
 8005d30:	7b3a      	ldrb	r2, [r7, #12]
 8005d32:	4911      	ldr	r1, [pc, #68]	; (8005d78 <UARTEx_SetNbDataToProcess+0x94>)
 8005d34:	5c8a      	ldrb	r2, [r1, r2]
 8005d36:	fb02 f303 	mul.w	r3, r2, r3
 8005d3a:	7b3a      	ldrb	r2, [r7, #12]
 8005d3c:	490f      	ldr	r1, [pc, #60]	; (8005d7c <UARTEx_SetNbDataToProcess+0x98>)
 8005d3e:	5c8a      	ldrb	r2, [r1, r2]
 8005d40:	fb93 f3f2 	sdiv	r3, r3, r2
 8005d44:	b29a      	uxth	r2, r3
 8005d46:	687b      	ldr	r3, [r7, #4]
 8005d48:	f8a3 206a 	strh.w	r2, [r3, #106]	; 0x6a
 8005d4c:	7bfb      	ldrb	r3, [r7, #15]
 8005d4e:	7b7a      	ldrb	r2, [r7, #13]
 8005d50:	4909      	ldr	r1, [pc, #36]	; (8005d78 <UARTEx_SetNbDataToProcess+0x94>)
 8005d52:	5c8a      	ldrb	r2, [r1, r2]
 8005d54:	fb02 f303 	mul.w	r3, r2, r3
 8005d58:	7b7a      	ldrb	r2, [r7, #13]
 8005d5a:	4908      	ldr	r1, [pc, #32]	; (8005d7c <UARTEx_SetNbDataToProcess+0x98>)
 8005d5c:	5c8a      	ldrb	r2, [r1, r2]
 8005d5e:	fb93 f3f2 	sdiv	r3, r3, r2
 8005d62:	b29a      	uxth	r2, r3
 8005d64:	687b      	ldr	r3, [r7, #4]
 8005d66:	f8a3 2068 	strh.w	r2, [r3, #104]	; 0x68
 8005d6a:	bf00      	nop
 8005d6c:	3714      	adds	r7, #20
 8005d6e:	46bd      	mov	sp, r7
 8005d70:	f85d 7b04 	ldr.w	r7, [sp], #4
 8005d74:	4770      	bx	lr
 8005d76:	bf00      	nop
 8005d78:	08006cec 	.word	0x08006cec
 8005d7c:	08006cf4 	.word	0x08006cf4

08005d80 <__errno>:
 8005d80:	4b01      	ldr	r3, [pc, #4]	; (8005d88 <__errno+0x8>)
 8005d82:	6818      	ldr	r0, [r3, #0]
 8005d84:	4770      	bx	lr
 8005d86:	bf00      	nop
 8005d88:	20000018 	.word	0x20000018

08005d8c <__libc_init_array>:
 8005d8c:	b570      	push	{r4, r5, r6, lr}
 8005d8e:	4d0d      	ldr	r5, [pc, #52]	; (8005dc4 <__libc_init_array+0x38>)
 8005d90:	4c0d      	ldr	r4, [pc, #52]	; (8005dc8 <__libc_init_array+0x3c>)
 8005d92:	1b64      	subs	r4, r4, r5
 8005d94:	10a4      	asrs	r4, r4, #2
 8005d96:	2600      	movs	r6, #0
 8005d98:	42a6      	cmp	r6, r4
 8005d9a:	d109      	bne.n	8005db0 <__libc_init_array+0x24>
 8005d9c:	4d0b      	ldr	r5, [pc, #44]	; (8005dcc <__libc_init_array+0x40>)
 8005d9e:	4c0c      	ldr	r4, [pc, #48]	; (8005dd0 <__libc_init_array+0x44>)
 8005da0:	f000 ff76 	bl	8006c90 <_init>
 8005da4:	1b64      	subs	r4, r4, r5
 8005da6:	10a4      	asrs	r4, r4, #2
 8005da8:	2600      	movs	r6, #0
 8005daa:	42a6      	cmp	r6, r4
 8005dac:	d105      	bne.n	8005dba <__libc_init_array+0x2e>
 8005dae:	bd70      	pop	{r4, r5, r6, pc}
 8005db0:	f855 3b04 	ldr.w	r3, [r5], #4
 8005db4:	4798      	blx	r3
 8005db6:	3601      	adds	r6, #1
 8005db8:	e7ee      	b.n	8005d98 <__libc_init_array+0xc>
 8005dba:	f855 3b04 	ldr.w	r3, [r5], #4
 8005dbe:	4798      	blx	r3
 8005dc0:	3601      	adds	r6, #1
 8005dc2:	e7f2      	b.n	8005daa <__libc_init_array+0x1e>
 8005dc4:	08006d9c 	.word	0x08006d9c
 8005dc8:	08006d9c 	.word	0x08006d9c
 8005dcc:	08006d9c 	.word	0x08006d9c
 8005dd0:	08006da0 	.word	0x08006da0

08005dd4 <memset>:
 8005dd4:	4402      	add	r2, r0
 8005dd6:	4603      	mov	r3, r0
 8005dd8:	4293      	cmp	r3, r2
 8005dda:	d100      	bne.n	8005dde <memset+0xa>
 8005ddc:	4770      	bx	lr
 8005dde:	f803 1b01 	strb.w	r1, [r3], #1
 8005de2:	e7f9      	b.n	8005dd8 <memset+0x4>

08005de4 <iprintf>:
 8005de4:	b40f      	push	{r0, r1, r2, r3}
 8005de6:	4b0a      	ldr	r3, [pc, #40]	; (8005e10 <iprintf+0x2c>)
 8005de8:	b513      	push	{r0, r1, r4, lr}
 8005dea:	681c      	ldr	r4, [r3, #0]
 8005dec:	b124      	cbz	r4, 8005df8 <iprintf+0x14>
 8005dee:	69a3      	ldr	r3, [r4, #24]
 8005df0:	b913      	cbnz	r3, 8005df8 <iprintf+0x14>
 8005df2:	4620      	mov	r0, r4
 8005df4:	f000 f866 	bl	8005ec4 <__sinit>
 8005df8:	ab05      	add	r3, sp, #20
 8005dfa:	9a04      	ldr	r2, [sp, #16]
 8005dfc:	68a1      	ldr	r1, [r4, #8]
 8005dfe:	9301      	str	r3, [sp, #4]
 8005e00:	4620      	mov	r0, r4
 8005e02:	f000 f983 	bl	800610c <_vfiprintf_r>
 8005e06:	b002      	add	sp, #8
 8005e08:	e8bd 4010 	ldmia.w	sp!, {r4, lr}
 8005e0c:	b004      	add	sp, #16
 8005e0e:	4770      	bx	lr
 8005e10:	20000018 	.word	0x20000018

08005e14 <std>:
 8005e14:	2300      	movs	r3, #0
 8005e16:	b510      	push	{r4, lr}
 8005e18:	4604      	mov	r4, r0
 8005e1a:	e9c0 3300 	strd	r3, r3, [r0]
 8005e1e:	e9c0 3304 	strd	r3, r3, [r0, #16]
 8005e22:	6083      	str	r3, [r0, #8]
 8005e24:	8181      	strh	r1, [r0, #12]
 8005e26:	6643      	str	r3, [r0, #100]	; 0x64
 8005e28:	81c2      	strh	r2, [r0, #14]
 8005e2a:	6183      	str	r3, [r0, #24]
 8005e2c:	4619      	mov	r1, r3
 8005e2e:	2208      	movs	r2, #8
 8005e30:	305c      	adds	r0, #92	; 0x5c
 8005e32:	f7ff ffcf 	bl	8005dd4 <memset>
 8005e36:	4b05      	ldr	r3, [pc, #20]	; (8005e4c <std+0x38>)
 8005e38:	6263      	str	r3, [r4, #36]	; 0x24
 8005e3a:	4b05      	ldr	r3, [pc, #20]	; (8005e50 <std+0x3c>)
 8005e3c:	62a3      	str	r3, [r4, #40]	; 0x28
 8005e3e:	4b05      	ldr	r3, [pc, #20]	; (8005e54 <std+0x40>)
 8005e40:	62e3      	str	r3, [r4, #44]	; 0x2c
 8005e42:	4b05      	ldr	r3, [pc, #20]	; (8005e58 <std+0x44>)
 8005e44:	6224      	str	r4, [r4, #32]
 8005e46:	6323      	str	r3, [r4, #48]	; 0x30
 8005e48:	bd10      	pop	{r4, pc}
 8005e4a:	bf00      	nop
 8005e4c:	080066b5 	.word	0x080066b5
 8005e50:	080066d7 	.word	0x080066d7
 8005e54:	0800670f 	.word	0x0800670f
 8005e58:	08006733 	.word	0x08006733

08005e5c <_cleanup_r>:
 8005e5c:	4901      	ldr	r1, [pc, #4]	; (8005e64 <_cleanup_r+0x8>)
 8005e5e:	f000 b8af 	b.w	8005fc0 <_fwalk_reent>
 8005e62:	bf00      	nop
 8005e64:	08006a0d 	.word	0x08006a0d

08005e68 <__sfmoreglue>:
 8005e68:	b570      	push	{r4, r5, r6, lr}
 8005e6a:	1e4a      	subs	r2, r1, #1
 8005e6c:	2568      	movs	r5, #104	; 0x68
 8005e6e:	4355      	muls	r5, r2
 8005e70:	460e      	mov	r6, r1
 8005e72:	f105 0174 	add.w	r1, r5, #116	; 0x74
 8005e76:	f000 f8c5 	bl	8006004 <_malloc_r>
 8005e7a:	4604      	mov	r4, r0
 8005e7c:	b140      	cbz	r0, 8005e90 <__sfmoreglue+0x28>
 8005e7e:	2100      	movs	r1, #0
 8005e80:	e9c0 1600 	strd	r1, r6, [r0]
 8005e84:	300c      	adds	r0, #12
 8005e86:	60a0      	str	r0, [r4, #8]
 8005e88:	f105 0268 	add.w	r2, r5, #104	; 0x68
 8005e8c:	f7ff ffa2 	bl	8005dd4 <memset>
 8005e90:	4620      	mov	r0, r4
 8005e92:	bd70      	pop	{r4, r5, r6, pc}

08005e94 <__sfp_lock_acquire>:
 8005e94:	4801      	ldr	r0, [pc, #4]	; (8005e9c <__sfp_lock_acquire+0x8>)
 8005e96:	f000 b8b3 	b.w	8006000 <__retarget_lock_acquire_recursive>
 8005e9a:	bf00      	nop
 8005e9c:	200002a8 	.word	0x200002a8

08005ea0 <__sfp_lock_release>:
 8005ea0:	4801      	ldr	r0, [pc, #4]	; (8005ea8 <__sfp_lock_release+0x8>)
 8005ea2:	f000 b8ae 	b.w	8006002 <__retarget_lock_release_recursive>
 8005ea6:	bf00      	nop
 8005ea8:	200002a8 	.word	0x200002a8

08005eac <__sinit_lock_acquire>:
 8005eac:	4801      	ldr	r0, [pc, #4]	; (8005eb4 <__sinit_lock_acquire+0x8>)
 8005eae:	f000 b8a7 	b.w	8006000 <__retarget_lock_acquire_recursive>
 8005eb2:	bf00      	nop
 8005eb4:	200002a3 	.word	0x200002a3

08005eb8 <__sinit_lock_release>:
 8005eb8:	4801      	ldr	r0, [pc, #4]	; (8005ec0 <__sinit_lock_release+0x8>)
 8005eba:	f000 b8a2 	b.w	8006002 <__retarget_lock_release_recursive>
 8005ebe:	bf00      	nop
 8005ec0:	200002a3 	.word	0x200002a3

08005ec4 <__sinit>:
 8005ec4:	b510      	push	{r4, lr}
 8005ec6:	4604      	mov	r4, r0
 8005ec8:	f7ff fff0 	bl	8005eac <__sinit_lock_acquire>
 8005ecc:	69a3      	ldr	r3, [r4, #24]
 8005ece:	b11b      	cbz	r3, 8005ed8 <__sinit+0x14>
 8005ed0:	e8bd 4010 	ldmia.w	sp!, {r4, lr}
 8005ed4:	f7ff bff0 	b.w	8005eb8 <__sinit_lock_release>
 8005ed8:	e9c4 3312 	strd	r3, r3, [r4, #72]	; 0x48
 8005edc:	6523      	str	r3, [r4, #80]	; 0x50
 8005ede:	4b13      	ldr	r3, [pc, #76]	; (8005f2c <__sinit+0x68>)
 8005ee0:	4a13      	ldr	r2, [pc, #76]	; (8005f30 <__sinit+0x6c>)
 8005ee2:	681b      	ldr	r3, [r3, #0]
 8005ee4:	62a2      	str	r2, [r4, #40]	; 0x28
 8005ee6:	42a3      	cmp	r3, r4
 8005ee8:	bf04      	itt	eq
 8005eea:	2301      	moveq	r3, #1
 8005eec:	61a3      	streq	r3, [r4, #24]
 8005eee:	4620      	mov	r0, r4
 8005ef0:	f000 f820 	bl	8005f34 <__sfp>
 8005ef4:	6060      	str	r0, [r4, #4]
 8005ef6:	4620      	mov	r0, r4
 8005ef8:	f000 f81c 	bl	8005f34 <__sfp>
 8005efc:	60a0      	str	r0, [r4, #8]
 8005efe:	4620      	mov	r0, r4
 8005f00:	f000 f818 	bl	8005f34 <__sfp>
 8005f04:	2200      	movs	r2, #0
 8005f06:	60e0      	str	r0, [r4, #12]
 8005f08:	2104      	movs	r1, #4
 8005f0a:	6860      	ldr	r0, [r4, #4]
 8005f0c:	f7ff ff82 	bl	8005e14 <std>
 8005f10:	68a0      	ldr	r0, [r4, #8]
 8005f12:	2201      	movs	r2, #1
 8005f14:	2109      	movs	r1, #9
 8005f16:	f7ff ff7d 	bl	8005e14 <std>
 8005f1a:	68e0      	ldr	r0, [r4, #12]
 8005f1c:	2202      	movs	r2, #2
 8005f1e:	2112      	movs	r1, #18
 8005f20:	f7ff ff78 	bl	8005e14 <std>
 8005f24:	2301      	movs	r3, #1
 8005f26:	61a3      	str	r3, [r4, #24]
 8005f28:	e7d2      	b.n	8005ed0 <__sinit+0xc>
 8005f2a:	bf00      	nop
 8005f2c:	08006cfc 	.word	0x08006cfc
 8005f30:	08005e5d 	.word	0x08005e5d

08005f34 <__sfp>:
 8005f34:	b5f8      	push	{r3, r4, r5, r6, r7, lr}
 8005f36:	4607      	mov	r7, r0
 8005f38:	f7ff ffac 	bl	8005e94 <__sfp_lock_acquire>
 8005f3c:	4b1e      	ldr	r3, [pc, #120]	; (8005fb8 <__sfp+0x84>)
 8005f3e:	681e      	ldr	r6, [r3, #0]
 8005f40:	69b3      	ldr	r3, [r6, #24]
 8005f42:	b913      	cbnz	r3, 8005f4a <__sfp+0x16>
 8005f44:	4630      	mov	r0, r6
 8005f46:	f7ff ffbd 	bl	8005ec4 <__sinit>
 8005f4a:	3648      	adds	r6, #72	; 0x48
 8005f4c:	e9d6 3401 	ldrd	r3, r4, [r6, #4]
 8005f50:	3b01      	subs	r3, #1
 8005f52:	d503      	bpl.n	8005f5c <__sfp+0x28>
 8005f54:	6833      	ldr	r3, [r6, #0]
 8005f56:	b30b      	cbz	r3, 8005f9c <__sfp+0x68>
 8005f58:	6836      	ldr	r6, [r6, #0]
 8005f5a:	e7f7      	b.n	8005f4c <__sfp+0x18>
 8005f5c:	f9b4 500c 	ldrsh.w	r5, [r4, #12]
 8005f60:	b9d5      	cbnz	r5, 8005f98 <__sfp+0x64>
 8005f62:	4b16      	ldr	r3, [pc, #88]	; (8005fbc <__sfp+0x88>)
 8005f64:	60e3      	str	r3, [r4, #12]
 8005f66:	f104 0058 	add.w	r0, r4, #88	; 0x58
 8005f6a:	6665      	str	r5, [r4, #100]	; 0x64
 8005f6c:	f000 f847 	bl	8005ffe <__retarget_lock_init_recursive>
 8005f70:	f7ff ff96 	bl	8005ea0 <__sfp_lock_release>
 8005f74:	e9c4 5501 	strd	r5, r5, [r4, #4]
 8005f78:	e9c4 5504 	strd	r5, r5, [r4, #16]
 8005f7c:	6025      	str	r5, [r4, #0]
 8005f7e:	61a5      	str	r5, [r4, #24]
 8005f80:	2208      	movs	r2, #8
 8005f82:	4629      	mov	r1, r5
 8005f84:	f104 005c 	add.w	r0, r4, #92	; 0x5c
 8005f88:	f7ff ff24 	bl	8005dd4 <memset>
 8005f8c:	e9c4 550d 	strd	r5, r5, [r4, #52]	; 0x34
 8005f90:	e9c4 5512 	strd	r5, r5, [r4, #72]	; 0x48
 8005f94:	4620      	mov	r0, r4
 8005f96:	bdf8      	pop	{r3, r4, r5, r6, r7, pc}
 8005f98:	3468      	adds	r4, #104	; 0x68
 8005f9a:	e7d9      	b.n	8005f50 <__sfp+0x1c>
 8005f9c:	2104      	movs	r1, #4
 8005f9e:	4638      	mov	r0, r7
 8005fa0:	f7ff ff62 	bl	8005e68 <__sfmoreglue>
 8005fa4:	4604      	mov	r4, r0
 8005fa6:	6030      	str	r0, [r6, #0]
 8005fa8:	2800      	cmp	r0, #0
 8005faa:	d1d5      	bne.n	8005f58 <__sfp+0x24>
 8005fac:	f7ff ff78 	bl	8005ea0 <__sfp_lock_release>
 8005fb0:	230c      	movs	r3, #12
 8005fb2:	603b      	str	r3, [r7, #0]
 8005fb4:	e7ee      	b.n	8005f94 <__sfp+0x60>
 8005fb6:	bf00      	nop
 8005fb8:	08006cfc 	.word	0x08006cfc
 8005fbc:	ffff0001 	.word	0xffff0001

08005fc0 <_fwalk_reent>:
 8005fc0:	e92d 43f8 	stmdb	sp!, {r3, r4, r5, r6, r7, r8, r9, lr}
 8005fc4:	4606      	mov	r6, r0
 8005fc6:	4688      	mov	r8, r1
 8005fc8:	f100 0448 	add.w	r4, r0, #72	; 0x48
 8005fcc:	2700      	movs	r7, #0
 8005fce:	e9d4 9501 	ldrd	r9, r5, [r4, #4]
 8005fd2:	f1b9 0901 	subs.w	r9, r9, #1
 8005fd6:	d505      	bpl.n	8005fe4 <_fwalk_reent+0x24>
 8005fd8:	6824      	ldr	r4, [r4, #0]
 8005fda:	2c00      	cmp	r4, #0
 8005fdc:	d1f7      	bne.n	8005fce <_fwalk_reent+0xe>
 8005fde:	4638      	mov	r0, r7
 8005fe0:	e8bd 83f8 	ldmia.w	sp!, {r3, r4, r5, r6, r7, r8, r9, pc}
 8005fe4:	89ab      	ldrh	r3, [r5, #12]
 8005fe6:	2b01      	cmp	r3, #1
 8005fe8:	d907      	bls.n	8005ffa <_fwalk_reent+0x3a>
 8005fea:	f9b5 300e 	ldrsh.w	r3, [r5, #14]
 8005fee:	3301      	adds	r3, #1
 8005ff0:	d003      	beq.n	8005ffa <_fwalk_reent+0x3a>
 8005ff2:	4629      	mov	r1, r5
 8005ff4:	4630      	mov	r0, r6
 8005ff6:	47c0      	blx	r8
 8005ff8:	4307      	orrs	r7, r0
 8005ffa:	3568      	adds	r5, #104	; 0x68
 8005ffc:	e7e9      	b.n	8005fd2 <_fwalk_reent+0x12>

08005ffe <__retarget_lock_init_recursive>:
 8005ffe:	4770      	bx	lr

08006000 <__retarget_lock_acquire_recursive>:
 8006000:	4770      	bx	lr

08006002 <__retarget_lock_release_recursive>:
 8006002:	4770      	bx	lr

08006004 <_malloc_r>:
 8006004:	b5f8      	push	{r3, r4, r5, r6, r7, lr}
 8006006:	1ccd      	adds	r5, r1, #3
 8006008:	f025 0503 	bic.w	r5, r5, #3
 800600c:	3508      	adds	r5, #8
 800600e:	2d0c      	cmp	r5, #12
 8006010:	bf38      	it	cc
 8006012:	250c      	movcc	r5, #12
 8006014:	2d00      	cmp	r5, #0
 8006016:	4606      	mov	r6, r0
 8006018:	db01      	blt.n	800601e <_malloc_r+0x1a>
 800601a:	42a9      	cmp	r1, r5
 800601c:	d903      	bls.n	8006026 <_malloc_r+0x22>
 800601e:	230c      	movs	r3, #12
 8006020:	6033      	str	r3, [r6, #0]
 8006022:	2000      	movs	r0, #0
 8006024:	bdf8      	pop	{r3, r4, r5, r6, r7, pc}
 8006026:	f000 fda3 	bl	8006b70 <__malloc_lock>
 800602a:	4921      	ldr	r1, [pc, #132]	; (80060b0 <_malloc_r+0xac>)
 800602c:	680a      	ldr	r2, [r1, #0]
 800602e:	4614      	mov	r4, r2
 8006030:	b99c      	cbnz	r4, 800605a <_malloc_r+0x56>
 8006032:	4f20      	ldr	r7, [pc, #128]	; (80060b4 <_malloc_r+0xb0>)
 8006034:	683b      	ldr	r3, [r7, #0]
 8006036:	b923      	cbnz	r3, 8006042 <_malloc_r+0x3e>
 8006038:	4621      	mov	r1, r4
 800603a:	4630      	mov	r0, r6
 800603c:	f000 fb2a 	bl	8006694 <_sbrk_r>
 8006040:	6038      	str	r0, [r7, #0]
 8006042:	4629      	mov	r1, r5
 8006044:	4630      	mov	r0, r6
 8006046:	f000 fb25 	bl	8006694 <_sbrk_r>
 800604a:	1c43      	adds	r3, r0, #1
 800604c:	d123      	bne.n	8006096 <_malloc_r+0x92>
 800604e:	230c      	movs	r3, #12
 8006050:	6033      	str	r3, [r6, #0]
 8006052:	4630      	mov	r0, r6
 8006054:	f000 fd92 	bl	8006b7c <__malloc_unlock>
 8006058:	e7e3      	b.n	8006022 <_malloc_r+0x1e>
 800605a:	6823      	ldr	r3, [r4, #0]
 800605c:	1b5b      	subs	r3, r3, r5
 800605e:	d417      	bmi.n	8006090 <_malloc_r+0x8c>
 8006060:	2b0b      	cmp	r3, #11
 8006062:	d903      	bls.n	800606c <_malloc_r+0x68>
 8006064:	6023      	str	r3, [r4, #0]
 8006066:	441c      	add	r4, r3
 8006068:	6025      	str	r5, [r4, #0]
 800606a:	e004      	b.n	8006076 <_malloc_r+0x72>
 800606c:	6863      	ldr	r3, [r4, #4]
 800606e:	42a2      	cmp	r2, r4
 8006070:	bf0c      	ite	eq
 8006072:	600b      	streq	r3, [r1, #0]
 8006074:	6053      	strne	r3, [r2, #4]
 8006076:	4630      	mov	r0, r6
 8006078:	f000 fd80 	bl	8006b7c <__malloc_unlock>
 800607c:	f104 000b 	add.w	r0, r4, #11
 8006080:	1d23      	adds	r3, r4, #4
 8006082:	f020 0007 	bic.w	r0, r0, #7
 8006086:	1ac2      	subs	r2, r0, r3
 8006088:	d0cc      	beq.n	8006024 <_malloc_r+0x20>
 800608a:	1a1b      	subs	r3, r3, r0
 800608c:	50a3      	str	r3, [r4, r2]
 800608e:	e7c9      	b.n	8006024 <_malloc_r+0x20>
 8006090:	4622      	mov	r2, r4
 8006092:	6864      	ldr	r4, [r4, #4]
 8006094:	e7cc      	b.n	8006030 <_malloc_r+0x2c>
 8006096:	1cc4      	adds	r4, r0, #3
 8006098:	f024 0403 	bic.w	r4, r4, #3
 800609c:	42a0      	cmp	r0, r4
 800609e:	d0e3      	beq.n	8006068 <_malloc_r+0x64>
 80060a0:	1a21      	subs	r1, r4, r0
 80060a2:	4630      	mov	r0, r6
 80060a4:	f000 faf6 	bl	8006694 <_sbrk_r>
 80060a8:	3001      	adds	r0, #1
 80060aa:	d1dd      	bne.n	8006068 <_malloc_r+0x64>
 80060ac:	e7cf      	b.n	800604e <_malloc_r+0x4a>
 80060ae:	bf00      	nop
 80060b0:	200000a0 	.word	0x200000a0
 80060b4:	200000a4 	.word	0x200000a4

080060b8 <__sfputc_r>:
 80060b8:	6893      	ldr	r3, [r2, #8]
 80060ba:	3b01      	subs	r3, #1
 80060bc:	2b00      	cmp	r3, #0
 80060be:	b410      	push	{r4}
 80060c0:	6093      	str	r3, [r2, #8]
 80060c2:	da08      	bge.n	80060d6 <__sfputc_r+0x1e>
 80060c4:	6994      	ldr	r4, [r2, #24]
 80060c6:	42a3      	cmp	r3, r4
 80060c8:	db01      	blt.n	80060ce <__sfputc_r+0x16>
 80060ca:	290a      	cmp	r1, #10
 80060cc:	d103      	bne.n	80060d6 <__sfputc_r+0x1e>
 80060ce:	f85d 4b04 	ldr.w	r4, [sp], #4
 80060d2:	f000 bb33 	b.w	800673c <__swbuf_r>
 80060d6:	6813      	ldr	r3, [r2, #0]
 80060d8:	1c58      	adds	r0, r3, #1
 80060da:	6010      	str	r0, [r2, #0]
 80060dc:	7019      	strb	r1, [r3, #0]
 80060de:	4608      	mov	r0, r1
 80060e0:	f85d 4b04 	ldr.w	r4, [sp], #4
 80060e4:	4770      	bx	lr

080060e6 <__sfputs_r>:
 80060e6:	b5f8      	push	{r3, r4, r5, r6, r7, lr}
 80060e8:	4606      	mov	r6, r0
 80060ea:	460f      	mov	r7, r1
 80060ec:	4614      	mov	r4, r2
 80060ee:	18d5      	adds	r5, r2, r3
 80060f0:	42ac      	cmp	r4, r5
 80060f2:	d101      	bne.n	80060f8 <__sfputs_r+0x12>
 80060f4:	2000      	movs	r0, #0
 80060f6:	e007      	b.n	8006108 <__sfputs_r+0x22>
 80060f8:	f814 1b01 	ldrb.w	r1, [r4], #1
 80060fc:	463a      	mov	r2, r7
 80060fe:	4630      	mov	r0, r6
 8006100:	f7ff ffda 	bl	80060b8 <__sfputc_r>
 8006104:	1c43      	adds	r3, r0, #1
 8006106:	d1f3      	bne.n	80060f0 <__sfputs_r+0xa>
 8006108:	bdf8      	pop	{r3, r4, r5, r6, r7, pc}
	...

0800610c <_vfiprintf_r>:
 800610c:	e92d 4ff0 	stmdb	sp!, {r4, r5, r6, r7, r8, r9, sl, fp, lr}
 8006110:	460d      	mov	r5, r1
 8006112:	b09d      	sub	sp, #116	; 0x74
 8006114:	4614      	mov	r4, r2
 8006116:	4698      	mov	r8, r3
 8006118:	4606      	mov	r6, r0
 800611a:	b118      	cbz	r0, 8006124 <_vfiprintf_r+0x18>
 800611c:	6983      	ldr	r3, [r0, #24]
 800611e:	b90b      	cbnz	r3, 8006124 <_vfiprintf_r+0x18>
 8006120:	f7ff fed0 	bl	8005ec4 <__sinit>
 8006124:	4b89      	ldr	r3, [pc, #548]	; (800634c <_vfiprintf_r+0x240>)
 8006126:	429d      	cmp	r5, r3
 8006128:	d11b      	bne.n	8006162 <_vfiprintf_r+0x56>
 800612a:	6875      	ldr	r5, [r6, #4]
 800612c:	6e6b      	ldr	r3, [r5, #100]	; 0x64
 800612e:	07d9      	lsls	r1, r3, #31
 8006130:	d405      	bmi.n	800613e <_vfiprintf_r+0x32>
 8006132:	89ab      	ldrh	r3, [r5, #12]
 8006134:	059a      	lsls	r2, r3, #22
 8006136:	d402      	bmi.n	800613e <_vfiprintf_r+0x32>
 8006138:	6da8      	ldr	r0, [r5, #88]	; 0x58
 800613a:	f7ff ff61 	bl	8006000 <__retarget_lock_acquire_recursive>
 800613e:	89ab      	ldrh	r3, [r5, #12]
 8006140:	071b      	lsls	r3, r3, #28
 8006142:	d501      	bpl.n	8006148 <_vfiprintf_r+0x3c>
 8006144:	692b      	ldr	r3, [r5, #16]
 8006146:	b9eb      	cbnz	r3, 8006184 <_vfiprintf_r+0x78>
 8006148:	4629      	mov	r1, r5
 800614a:	4630      	mov	r0, r6
 800614c:	f000 fb5a 	bl	8006804 <__swsetup_r>
 8006150:	b1c0      	cbz	r0, 8006184 <_vfiprintf_r+0x78>
 8006152:	6e6b      	ldr	r3, [r5, #100]	; 0x64
 8006154:	07dc      	lsls	r4, r3, #31
 8006156:	d50e      	bpl.n	8006176 <_vfiprintf_r+0x6a>
 8006158:	f04f 30ff 	mov.w	r0, #4294967295
 800615c:	b01d      	add	sp, #116	; 0x74
 800615e:	e8bd 8ff0 	ldmia.w	sp!, {r4, r5, r6, r7, r8, r9, sl, fp, pc}
 8006162:	4b7b      	ldr	r3, [pc, #492]	; (8006350 <_vfiprintf_r+0x244>)
 8006164:	429d      	cmp	r5, r3
 8006166:	d101      	bne.n	800616c <_vfiprintf_r+0x60>
 8006168:	68b5      	ldr	r5, [r6, #8]
 800616a:	e7df      	b.n	800612c <_vfiprintf_r+0x20>
 800616c:	4b79      	ldr	r3, [pc, #484]	; (8006354 <_vfiprintf_r+0x248>)
 800616e:	429d      	cmp	r5, r3
 8006170:	bf08      	it	eq
 8006172:	68f5      	ldreq	r5, [r6, #12]
 8006174:	e7da      	b.n	800612c <_vfiprintf_r+0x20>
 8006176:	89ab      	ldrh	r3, [r5, #12]
 8006178:	0598      	lsls	r0, r3, #22
 800617a:	d4ed      	bmi.n	8006158 <_vfiprintf_r+0x4c>
 800617c:	6da8      	ldr	r0, [r5, #88]	; 0x58
 800617e:	f7ff ff40 	bl	8006002 <__retarget_lock_release_recursive>
 8006182:	e7e9      	b.n	8006158 <_vfiprintf_r+0x4c>
 8006184:	2300      	movs	r3, #0
 8006186:	9309      	str	r3, [sp, #36]	; 0x24
 8006188:	2320      	movs	r3, #32
 800618a:	f88d 3029 	strb.w	r3, [sp, #41]	; 0x29
 800618e:	f8cd 800c 	str.w	r8, [sp, #12]
 8006192:	2330      	movs	r3, #48	; 0x30
 8006194:	f8df 81c0 	ldr.w	r8, [pc, #448]	; 8006358 <_vfiprintf_r+0x24c>
 8006198:	f88d 302a 	strb.w	r3, [sp, #42]	; 0x2a
 800619c:	f04f 0901 	mov.w	r9, #1
 80061a0:	4623      	mov	r3, r4
 80061a2:	469a      	mov	sl, r3
 80061a4:	f813 2b01 	ldrb.w	r2, [r3], #1
 80061a8:	b10a      	cbz	r2, 80061ae <_vfiprintf_r+0xa2>
 80061aa:	2a25      	cmp	r2, #37	; 0x25
 80061ac:	d1f9      	bne.n	80061a2 <_vfiprintf_r+0x96>
 80061ae:	ebba 0b04 	subs.w	fp, sl, r4
 80061b2:	d00b      	beq.n	80061cc <_vfiprintf_r+0xc0>
 80061b4:	465b      	mov	r3, fp
 80061b6:	4622      	mov	r2, r4
 80061b8:	4629      	mov	r1, r5
 80061ba:	4630      	mov	r0, r6
 80061bc:	f7ff ff93 	bl	80060e6 <__sfputs_r>
 80061c0:	3001      	adds	r0, #1
 80061c2:	f000 80aa 	beq.w	800631a <_vfiprintf_r+0x20e>
 80061c6:	9a09      	ldr	r2, [sp, #36]	; 0x24
 80061c8:	445a      	add	r2, fp
 80061ca:	9209      	str	r2, [sp, #36]	; 0x24
 80061cc:	f89a 3000 	ldrb.w	r3, [sl]
 80061d0:	2b00      	cmp	r3, #0
 80061d2:	f000 80a2 	beq.w	800631a <_vfiprintf_r+0x20e>
 80061d6:	2300      	movs	r3, #0
 80061d8:	f04f 32ff 	mov.w	r2, #4294967295
 80061dc:	e9cd 2305 	strd	r2, r3, [sp, #20]
 80061e0:	f10a 0a01 	add.w	sl, sl, #1
 80061e4:	9304      	str	r3, [sp, #16]
 80061e6:	9307      	str	r3, [sp, #28]
 80061e8:	f88d 3053 	strb.w	r3, [sp, #83]	; 0x53
 80061ec:	931a      	str	r3, [sp, #104]	; 0x68
 80061ee:	4654      	mov	r4, sl
 80061f0:	2205      	movs	r2, #5
 80061f2:	f814 1b01 	ldrb.w	r1, [r4], #1
 80061f6:	4858      	ldr	r0, [pc, #352]	; (8006358 <_vfiprintf_r+0x24c>)
 80061f8:	f7fa f812 	bl	8000220 <memchr>
 80061fc:	9a04      	ldr	r2, [sp, #16]
 80061fe:	b9d8      	cbnz	r0, 8006238 <_vfiprintf_r+0x12c>
 8006200:	06d1      	lsls	r1, r2, #27
 8006202:	bf44      	itt	mi
 8006204:	2320      	movmi	r3, #32
 8006206:	f88d 3053 	strbmi.w	r3, [sp, #83]	; 0x53
 800620a:	0713      	lsls	r3, r2, #28
 800620c:	bf44      	itt	mi
 800620e:	232b      	movmi	r3, #43	; 0x2b
 8006210:	f88d 3053 	strbmi.w	r3, [sp, #83]	; 0x53
 8006214:	f89a 3000 	ldrb.w	r3, [sl]
 8006218:	2b2a      	cmp	r3, #42	; 0x2a
 800621a:	d015      	beq.n	8006248 <_vfiprintf_r+0x13c>
 800621c:	9a07      	ldr	r2, [sp, #28]
 800621e:	4654      	mov	r4, sl
 8006220:	2000      	movs	r0, #0
 8006222:	f04f 0c0a 	mov.w	ip, #10
 8006226:	4621      	mov	r1, r4
 8006228:	f811 3b01 	ldrb.w	r3, [r1], #1
 800622c:	3b30      	subs	r3, #48	; 0x30
 800622e:	2b09      	cmp	r3, #9
 8006230:	d94e      	bls.n	80062d0 <_vfiprintf_r+0x1c4>
 8006232:	b1b0      	cbz	r0, 8006262 <_vfiprintf_r+0x156>
 8006234:	9207      	str	r2, [sp, #28]
 8006236:	e014      	b.n	8006262 <_vfiprintf_r+0x156>
 8006238:	eba0 0308 	sub.w	r3, r0, r8
 800623c:	fa09 f303 	lsl.w	r3, r9, r3
 8006240:	4313      	orrs	r3, r2
 8006242:	9304      	str	r3, [sp, #16]
 8006244:	46a2      	mov	sl, r4
 8006246:	e7d2      	b.n	80061ee <_vfiprintf_r+0xe2>
 8006248:	9b03      	ldr	r3, [sp, #12]
 800624a:	1d19      	adds	r1, r3, #4
 800624c:	681b      	ldr	r3, [r3, #0]
 800624e:	9103      	str	r1, [sp, #12]
 8006250:	2b00      	cmp	r3, #0
 8006252:	bfbb      	ittet	lt
 8006254:	425b      	neglt	r3, r3
 8006256:	f042 0202 	orrlt.w	r2, r2, #2
 800625a:	9307      	strge	r3, [sp, #28]
 800625c:	9307      	strlt	r3, [sp, #28]
 800625e:	bfb8      	it	lt
 8006260:	9204      	strlt	r2, [sp, #16]
 8006262:	7823      	ldrb	r3, [r4, #0]
 8006264:	2b2e      	cmp	r3, #46	; 0x2e
 8006266:	d10c      	bne.n	8006282 <_vfiprintf_r+0x176>
 8006268:	7863      	ldrb	r3, [r4, #1]
 800626a:	2b2a      	cmp	r3, #42	; 0x2a
 800626c:	d135      	bne.n	80062da <_vfiprintf_r+0x1ce>
 800626e:	9b03      	ldr	r3, [sp, #12]
 8006270:	1d1a      	adds	r2, r3, #4
 8006272:	681b      	ldr	r3, [r3, #0]
 8006274:	9203      	str	r2, [sp, #12]
 8006276:	2b00      	cmp	r3, #0
 8006278:	bfb8      	it	lt
 800627a:	f04f 33ff 	movlt.w	r3, #4294967295
 800627e:	3402      	adds	r4, #2
 8006280:	9305      	str	r3, [sp, #20]
 8006282:	f8df a0e4 	ldr.w	sl, [pc, #228]	; 8006368 <_vfiprintf_r+0x25c>
 8006286:	7821      	ldrb	r1, [r4, #0]
 8006288:	2203      	movs	r2, #3
 800628a:	4650      	mov	r0, sl
 800628c:	f7f9 ffc8 	bl	8000220 <memchr>
 8006290:	b140      	cbz	r0, 80062a4 <_vfiprintf_r+0x198>
 8006292:	2340      	movs	r3, #64	; 0x40
 8006294:	eba0 000a 	sub.w	r0, r0, sl
 8006298:	fa03 f000 	lsl.w	r0, r3, r0
 800629c:	9b04      	ldr	r3, [sp, #16]
 800629e:	4303      	orrs	r3, r0
 80062a0:	3401      	adds	r4, #1
 80062a2:	9304      	str	r3, [sp, #16]
 80062a4:	f814 1b01 	ldrb.w	r1, [r4], #1
 80062a8:	482c      	ldr	r0, [pc, #176]	; (800635c <_vfiprintf_r+0x250>)
 80062aa:	f88d 1028 	strb.w	r1, [sp, #40]	; 0x28
 80062ae:	2206      	movs	r2, #6
 80062b0:	f7f9 ffb6 	bl	8000220 <memchr>
 80062b4:	2800      	cmp	r0, #0
 80062b6:	d03f      	beq.n	8006338 <_vfiprintf_r+0x22c>
 80062b8:	4b29      	ldr	r3, [pc, #164]	; (8006360 <_vfiprintf_r+0x254>)
 80062ba:	bb1b      	cbnz	r3, 8006304 <_vfiprintf_r+0x1f8>
 80062bc:	9b03      	ldr	r3, [sp, #12]
 80062be:	3307      	adds	r3, #7
 80062c0:	f023 0307 	bic.w	r3, r3, #7
 80062c4:	3308      	adds	r3, #8
 80062c6:	9303      	str	r3, [sp, #12]
 80062c8:	9b09      	ldr	r3, [sp, #36]	; 0x24
 80062ca:	443b      	add	r3, r7
 80062cc:	9309      	str	r3, [sp, #36]	; 0x24
 80062ce:	e767      	b.n	80061a0 <_vfiprintf_r+0x94>
 80062d0:	fb0c 3202 	mla	r2, ip, r2, r3
 80062d4:	460c      	mov	r4, r1
 80062d6:	2001      	movs	r0, #1
 80062d8:	e7a5      	b.n	8006226 <_vfiprintf_r+0x11a>
 80062da:	2300      	movs	r3, #0
 80062dc:	3401      	adds	r4, #1
 80062de:	9305      	str	r3, [sp, #20]
 80062e0:	4619      	mov	r1, r3
 80062e2:	f04f 0c0a 	mov.w	ip, #10
 80062e6:	4620      	mov	r0, r4
 80062e8:	f810 2b01 	ldrb.w	r2, [r0], #1
 80062ec:	3a30      	subs	r2, #48	; 0x30
 80062ee:	2a09      	cmp	r2, #9
 80062f0:	d903      	bls.n	80062fa <_vfiprintf_r+0x1ee>
 80062f2:	2b00      	cmp	r3, #0
 80062f4:	d0c5      	beq.n	8006282 <_vfiprintf_r+0x176>
 80062f6:	9105      	str	r1, [sp, #20]
 80062f8:	e7c3      	b.n	8006282 <_vfiprintf_r+0x176>
 80062fa:	fb0c 2101 	mla	r1, ip, r1, r2
 80062fe:	4604      	mov	r4, r0
 8006300:	2301      	movs	r3, #1
 8006302:	e7f0      	b.n	80062e6 <_vfiprintf_r+0x1da>
 8006304:	ab03      	add	r3, sp, #12
 8006306:	9300      	str	r3, [sp, #0]
 8006308:	462a      	mov	r2, r5
 800630a:	4b16      	ldr	r3, [pc, #88]	; (8006364 <_vfiprintf_r+0x258>)
 800630c:	a904      	add	r1, sp, #16
 800630e:	4630      	mov	r0, r6
 8006310:	f3af 8000 	nop.w
 8006314:	4607      	mov	r7, r0
 8006316:	1c78      	adds	r0, r7, #1
 8006318:	d1d6      	bne.n	80062c8 <_vfiprintf_r+0x1bc>
 800631a:	6e6b      	ldr	r3, [r5, #100]	; 0x64
 800631c:	07d9      	lsls	r1, r3, #31
 800631e:	d405      	bmi.n	800632c <_vfiprintf_r+0x220>
 8006320:	89ab      	ldrh	r3, [r5, #12]
 8006322:	059a      	lsls	r2, r3, #22
 8006324:	d402      	bmi.n	800632c <_vfiprintf_r+0x220>
 8006326:	6da8      	ldr	r0, [r5, #88]	; 0x58
 8006328:	f7ff fe6b 	bl	8006002 <__retarget_lock_release_recursive>
 800632c:	89ab      	ldrh	r3, [r5, #12]
 800632e:	065b      	lsls	r3, r3, #25
 8006330:	f53f af12 	bmi.w	8006158 <_vfiprintf_r+0x4c>
 8006334:	9809      	ldr	r0, [sp, #36]	; 0x24
 8006336:	e711      	b.n	800615c <_vfiprintf_r+0x50>
 8006338:	ab03      	add	r3, sp, #12
 800633a:	9300      	str	r3, [sp, #0]
 800633c:	462a      	mov	r2, r5
 800633e:	4b09      	ldr	r3, [pc, #36]	; (8006364 <_vfiprintf_r+0x258>)
 8006340:	a904      	add	r1, sp, #16
 8006342:	4630      	mov	r0, r6
 8006344:	f000 f880 	bl	8006448 <_printf_i>
 8006348:	e7e4      	b.n	8006314 <_vfiprintf_r+0x208>
 800634a:	bf00      	nop
 800634c:	08006d20 	.word	0x08006d20
 8006350:	08006d40 	.word	0x08006d40
 8006354:	08006d00 	.word	0x08006d00
 8006358:	08006d60 	.word	0x08006d60
 800635c:	08006d6a 	.word	0x08006d6a
 8006360:	00000000 	.word	0x00000000
 8006364:	080060e7 	.word	0x080060e7
 8006368:	08006d66 	.word	0x08006d66

0800636c <_printf_common>:
 800636c:	e92d 47f0 	stmdb	sp!, {r4, r5, r6, r7, r8, r9, sl, lr}
 8006370:	4616      	mov	r6, r2
 8006372:	4699      	mov	r9, r3
 8006374:	688a      	ldr	r2, [r1, #8]
 8006376:	690b      	ldr	r3, [r1, #16]
 8006378:	f8dd 8020 	ldr.w	r8, [sp, #32]
 800637c:	4293      	cmp	r3, r2
 800637e:	bfb8      	it	lt
 8006380:	4613      	movlt	r3, r2
 8006382:	6033      	str	r3, [r6, #0]
 8006384:	f891 2043 	ldrb.w	r2, [r1, #67]	; 0x43
 8006388:	4607      	mov	r7, r0
 800638a:	460c      	mov	r4, r1
 800638c:	b10a      	cbz	r2, 8006392 <_printf_common+0x26>
 800638e:	3301      	adds	r3, #1
 8006390:	6033      	str	r3, [r6, #0]
 8006392:	6823      	ldr	r3, [r4, #0]
 8006394:	0699      	lsls	r1, r3, #26
 8006396:	bf42      	ittt	mi
 8006398:	6833      	ldrmi	r3, [r6, #0]
 800639a:	3302      	addmi	r3, #2
 800639c:	6033      	strmi	r3, [r6, #0]
 800639e:	6825      	ldr	r5, [r4, #0]
 80063a0:	f015 0506 	ands.w	r5, r5, #6
 80063a4:	d106      	bne.n	80063b4 <_printf_common+0x48>
 80063a6:	f104 0a19 	add.w	sl, r4, #25
 80063aa:	68e3      	ldr	r3, [r4, #12]
 80063ac:	6832      	ldr	r2, [r6, #0]
 80063ae:	1a9b      	subs	r3, r3, r2
 80063b0:	42ab      	cmp	r3, r5
 80063b2:	dc26      	bgt.n	8006402 <_printf_common+0x96>
 80063b4:	f894 2043 	ldrb.w	r2, [r4, #67]	; 0x43
 80063b8:	1e13      	subs	r3, r2, #0
 80063ba:	6822      	ldr	r2, [r4, #0]
 80063bc:	bf18      	it	ne
 80063be:	2301      	movne	r3, #1
 80063c0:	0692      	lsls	r2, r2, #26
 80063c2:	d42b      	bmi.n	800641c <_printf_common+0xb0>
 80063c4:	f104 0243 	add.w	r2, r4, #67	; 0x43
 80063c8:	4649      	mov	r1, r9
 80063ca:	4638      	mov	r0, r7
 80063cc:	47c0      	blx	r8
 80063ce:	3001      	adds	r0, #1
 80063d0:	d01e      	beq.n	8006410 <_printf_common+0xa4>
 80063d2:	6823      	ldr	r3, [r4, #0]
 80063d4:	68e5      	ldr	r5, [r4, #12]
 80063d6:	6832      	ldr	r2, [r6, #0]
 80063d8:	f003 0306 	and.w	r3, r3, #6
 80063dc:	2b04      	cmp	r3, #4
 80063de:	bf08      	it	eq
 80063e0:	1aad      	subeq	r5, r5, r2
 80063e2:	68a3      	ldr	r3, [r4, #8]
 80063e4:	6922      	ldr	r2, [r4, #16]
 80063e6:	bf0c      	ite	eq
 80063e8:	ea25 75e5 	biceq.w	r5, r5, r5, asr #31
 80063ec:	2500      	movne	r5, #0
 80063ee:	4293      	cmp	r3, r2
 80063f0:	bfc4      	itt	gt
 80063f2:	1a9b      	subgt	r3, r3, r2
 80063f4:	18ed      	addgt	r5, r5, r3
 80063f6:	2600      	movs	r6, #0
 80063f8:	341a      	adds	r4, #26
 80063fa:	42b5      	cmp	r5, r6
 80063fc:	d11a      	bne.n	8006434 <_printf_common+0xc8>
 80063fe:	2000      	movs	r0, #0
 8006400:	e008      	b.n	8006414 <_printf_common+0xa8>
 8006402:	2301      	movs	r3, #1
 8006404:	4652      	mov	r2, sl
 8006406:	4649      	mov	r1, r9
 8006408:	4638      	mov	r0, r7
 800640a:	47c0      	blx	r8
 800640c:	3001      	adds	r0, #1
 800640e:	d103      	bne.n	8006418 <_printf_common+0xac>
 8006410:	f04f 30ff 	mov.w	r0, #4294967295
 8006414:	e8bd 87f0 	ldmia.w	sp!, {r4, r5, r6, r7, r8, r9, sl, pc}
 8006418:	3501      	adds	r5, #1
 800641a:	e7c6      	b.n	80063aa <_printf_common+0x3e>
 800641c:	18e1      	adds	r1, r4, r3
 800641e:	1c5a      	adds	r2, r3, #1
 8006420:	2030      	movs	r0, #48	; 0x30
 8006422:	f881 0043 	strb.w	r0, [r1, #67]	; 0x43
 8006426:	4422      	add	r2, r4
 8006428:	f894 1045 	ldrb.w	r1, [r4, #69]	; 0x45
 800642c:	f882 1043 	strb.w	r1, [r2, #67]	; 0x43
 8006430:	3302      	adds	r3, #2
 8006432:	e7c7      	b.n	80063c4 <_printf_common+0x58>
 8006434:	2301      	movs	r3, #1
 8006436:	4622      	mov	r2, r4
 8006438:	4649      	mov	r1, r9
 800643a:	4638      	mov	r0, r7
 800643c:	47c0      	blx	r8
 800643e:	3001      	adds	r0, #1
 8006440:	d0e6      	beq.n	8006410 <_printf_common+0xa4>
 8006442:	3601      	adds	r6, #1
 8006444:	e7d9      	b.n	80063fa <_printf_common+0x8e>
	...

08006448 <_printf_i>:
 8006448:	e92d 47ff 	stmdb	sp!, {r0, r1, r2, r3, r4, r5, r6, r7, r8, r9, sl, lr}
 800644c:	460c      	mov	r4, r1
 800644e:	4691      	mov	r9, r2
 8006450:	7e27      	ldrb	r7, [r4, #24]
 8006452:	990c      	ldr	r1, [sp, #48]	; 0x30
 8006454:	2f78      	cmp	r7, #120	; 0x78
 8006456:	4680      	mov	r8, r0
 8006458:	469a      	mov	sl, r3
 800645a:	f104 0243 	add.w	r2, r4, #67	; 0x43
 800645e:	d807      	bhi.n	8006470 <_printf_i+0x28>
 8006460:	2f62      	cmp	r7, #98	; 0x62
 8006462:	d80a      	bhi.n	800647a <_printf_i+0x32>
 8006464:	2f00      	cmp	r7, #0
 8006466:	f000 80d8 	beq.w	800661a <_printf_i+0x1d2>
 800646a:	2f58      	cmp	r7, #88	; 0x58
 800646c:	f000 80a3 	beq.w	80065b6 <_printf_i+0x16e>
 8006470:	f104 0642 	add.w	r6, r4, #66	; 0x42
 8006474:	f884 7042 	strb.w	r7, [r4, #66]	; 0x42
 8006478:	e03a      	b.n	80064f0 <_printf_i+0xa8>
 800647a:	f1a7 0363 	sub.w	r3, r7, #99	; 0x63
 800647e:	2b15      	cmp	r3, #21
 8006480:	d8f6      	bhi.n	8006470 <_printf_i+0x28>
 8006482:	a001      	add	r0, pc, #4	; (adr r0, 8006488 <_printf_i+0x40>)
 8006484:	f850 f023 	ldr.w	pc, [r0, r3, lsl #2]
 8006488:	080064e1 	.word	0x080064e1
 800648c:	080064f5 	.word	0x080064f5
 8006490:	08006471 	.word	0x08006471
 8006494:	08006471 	.word	0x08006471
 8006498:	08006471 	.word	0x08006471
 800649c:	08006471 	.word	0x08006471
 80064a0:	080064f5 	.word	0x080064f5
 80064a4:	08006471 	.word	0x08006471
 80064a8:	08006471 	.word	0x08006471
 80064ac:	08006471 	.word	0x08006471
 80064b0:	08006471 	.word	0x08006471
 80064b4:	08006601 	.word	0x08006601
 80064b8:	08006525 	.word	0x08006525
 80064bc:	080065e3 	.word	0x080065e3
 80064c0:	08006471 	.word	0x08006471
 80064c4:	08006471 	.word	0x08006471
 80064c8:	08006623 	.word	0x08006623
 80064cc:	08006471 	.word	0x08006471
 80064d0:	08006525 	.word	0x08006525
 80064d4:	08006471 	.word	0x08006471
 80064d8:	08006471 	.word	0x08006471
 80064dc:	080065eb 	.word	0x080065eb
 80064e0:	680b      	ldr	r3, [r1, #0]
 80064e2:	1d1a      	adds	r2, r3, #4
 80064e4:	681b      	ldr	r3, [r3, #0]
 80064e6:	600a      	str	r2, [r1, #0]
 80064e8:	f104 0642 	add.w	r6, r4, #66	; 0x42
 80064ec:	f884 3042 	strb.w	r3, [r4, #66]	; 0x42
 80064f0:	2301      	movs	r3, #1
 80064f2:	e0a3      	b.n	800663c <_printf_i+0x1f4>
 80064f4:	6825      	ldr	r5, [r4, #0]
 80064f6:	6808      	ldr	r0, [r1, #0]
 80064f8:	062e      	lsls	r6, r5, #24
 80064fa:	f100 0304 	add.w	r3, r0, #4
 80064fe:	d50a      	bpl.n	8006516 <_printf_i+0xce>
 8006500:	6805      	ldr	r5, [r0, #0]
 8006502:	600b      	str	r3, [r1, #0]
 8006504:	2d00      	cmp	r5, #0
 8006506:	da03      	bge.n	8006510 <_printf_i+0xc8>
 8006508:	232d      	movs	r3, #45	; 0x2d
 800650a:	426d      	negs	r5, r5
 800650c:	f884 3043 	strb.w	r3, [r4, #67]	; 0x43
 8006510:	485e      	ldr	r0, [pc, #376]	; (800668c <_printf_i+0x244>)
 8006512:	230a      	movs	r3, #10
 8006514:	e019      	b.n	800654a <_printf_i+0x102>
 8006516:	f015 0f40 	tst.w	r5, #64	; 0x40
 800651a:	6805      	ldr	r5, [r0, #0]
 800651c:	600b      	str	r3, [r1, #0]
 800651e:	bf18      	it	ne
 8006520:	b22d      	sxthne	r5, r5
 8006522:	e7ef      	b.n	8006504 <_printf_i+0xbc>
 8006524:	680b      	ldr	r3, [r1, #0]
 8006526:	6825      	ldr	r5, [r4, #0]
 8006528:	1d18      	adds	r0, r3, #4
 800652a:	6008      	str	r0, [r1, #0]
 800652c:	0628      	lsls	r0, r5, #24
 800652e:	d501      	bpl.n	8006534 <_printf_i+0xec>
 8006530:	681d      	ldr	r5, [r3, #0]
 8006532:	e002      	b.n	800653a <_printf_i+0xf2>
 8006534:	0669      	lsls	r1, r5, #25
 8006536:	d5fb      	bpl.n	8006530 <_printf_i+0xe8>
 8006538:	881d      	ldrh	r5, [r3, #0]
 800653a:	4854      	ldr	r0, [pc, #336]	; (800668c <_printf_i+0x244>)
 800653c:	2f6f      	cmp	r7, #111	; 0x6f
 800653e:	bf0c      	ite	eq
 8006540:	2308      	moveq	r3, #8
 8006542:	230a      	movne	r3, #10
 8006544:	2100      	movs	r1, #0
 8006546:	f884 1043 	strb.w	r1, [r4, #67]	; 0x43
 800654a:	6866      	ldr	r6, [r4, #4]
 800654c:	60a6      	str	r6, [r4, #8]
 800654e:	2e00      	cmp	r6, #0
 8006550:	bfa2      	ittt	ge
 8006552:	6821      	ldrge	r1, [r4, #0]
 8006554:	f021 0104 	bicge.w	r1, r1, #4
 8006558:	6021      	strge	r1, [r4, #0]
 800655a:	b90d      	cbnz	r5, 8006560 <_printf_i+0x118>
 800655c:	2e00      	cmp	r6, #0
 800655e:	d04d      	beq.n	80065fc <_printf_i+0x1b4>
 8006560:	4616      	mov	r6, r2
 8006562:	fbb5 f1f3 	udiv	r1, r5, r3
 8006566:	fb03 5711 	mls	r7, r3, r1, r5
 800656a:	5dc7      	ldrb	r7, [r0, r7]
 800656c:	f806 7d01 	strb.w	r7, [r6, #-1]!
 8006570:	462f      	mov	r7, r5
 8006572:	42bb      	cmp	r3, r7
 8006574:	460d      	mov	r5, r1
 8006576:	d9f4      	bls.n	8006562 <_printf_i+0x11a>
 8006578:	2b08      	cmp	r3, #8
 800657a:	d10b      	bne.n	8006594 <_printf_i+0x14c>
 800657c:	6823      	ldr	r3, [r4, #0]
 800657e:	07df      	lsls	r7, r3, #31
 8006580:	d508      	bpl.n	8006594 <_printf_i+0x14c>
 8006582:	6923      	ldr	r3, [r4, #16]
 8006584:	6861      	ldr	r1, [r4, #4]
 8006586:	4299      	cmp	r1, r3
 8006588:	bfde      	ittt	le
 800658a:	2330      	movle	r3, #48	; 0x30
 800658c:	f806 3c01 	strble.w	r3, [r6, #-1]
 8006590:	f106 36ff 	addle.w	r6, r6, #4294967295
 8006594:	1b92      	subs	r2, r2, r6
 8006596:	6122      	str	r2, [r4, #16]
 8006598:	f8cd a000 	str.w	sl, [sp]
 800659c:	464b      	mov	r3, r9
 800659e:	aa03      	add	r2, sp, #12
 80065a0:	4621      	mov	r1, r4
 80065a2:	4640      	mov	r0, r8
 80065a4:	f7ff fee2 	bl	800636c <_printf_common>
 80065a8:	3001      	adds	r0, #1
 80065aa:	d14c      	bne.n	8006646 <_printf_i+0x1fe>
 80065ac:	f04f 30ff 	mov.w	r0, #4294967295
 80065b0:	b004      	add	sp, #16
 80065b2:	e8bd 87f0 	ldmia.w	sp!, {r4, r5, r6, r7, r8, r9, sl, pc}
 80065b6:	4835      	ldr	r0, [pc, #212]	; (800668c <_printf_i+0x244>)
 80065b8:	f884 7045 	strb.w	r7, [r4, #69]	; 0x45
 80065bc:	6823      	ldr	r3, [r4, #0]
 80065be:	680e      	ldr	r6, [r1, #0]
 80065c0:	061f      	lsls	r7, r3, #24
 80065c2:	f856 5b04 	ldr.w	r5, [r6], #4
 80065c6:	600e      	str	r6, [r1, #0]
 80065c8:	d514      	bpl.n	80065f4 <_printf_i+0x1ac>
 80065ca:	07d9      	lsls	r1, r3, #31
 80065cc:	bf44      	itt	mi
 80065ce:	f043 0320 	orrmi.w	r3, r3, #32
 80065d2:	6023      	strmi	r3, [r4, #0]
 80065d4:	b91d      	cbnz	r5, 80065de <_printf_i+0x196>
 80065d6:	6823      	ldr	r3, [r4, #0]
 80065d8:	f023 0320 	bic.w	r3, r3, #32
 80065dc:	6023      	str	r3, [r4, #0]
 80065de:	2310      	movs	r3, #16
 80065e0:	e7b0      	b.n	8006544 <_printf_i+0xfc>
 80065e2:	6823      	ldr	r3, [r4, #0]
 80065e4:	f043 0320 	orr.w	r3, r3, #32
 80065e8:	6023      	str	r3, [r4, #0]
 80065ea:	2378      	movs	r3, #120	; 0x78
 80065ec:	4828      	ldr	r0, [pc, #160]	; (8006690 <_printf_i+0x248>)
 80065ee:	f884 3045 	strb.w	r3, [r4, #69]	; 0x45
 80065f2:	e7e3      	b.n	80065bc <_printf_i+0x174>
 80065f4:	065e      	lsls	r6, r3, #25
 80065f6:	bf48      	it	mi
 80065f8:	b2ad      	uxthmi	r5, r5
 80065fa:	e7e6      	b.n	80065ca <_printf_i+0x182>
 80065fc:	4616      	mov	r6, r2
 80065fe:	e7bb      	b.n	8006578 <_printf_i+0x130>
 8006600:	680b      	ldr	r3, [r1, #0]
 8006602:	6826      	ldr	r6, [r4, #0]
 8006604:	6960      	ldr	r0, [r4, #20]
 8006606:	1d1d      	adds	r5, r3, #4
 8006608:	600d      	str	r5, [r1, #0]
 800660a:	0635      	lsls	r5, r6, #24
 800660c:	681b      	ldr	r3, [r3, #0]
 800660e:	d501      	bpl.n	8006614 <_printf_i+0x1cc>
 8006610:	6018      	str	r0, [r3, #0]
 8006612:	e002      	b.n	800661a <_printf_i+0x1d2>
 8006614:	0671      	lsls	r1, r6, #25
 8006616:	d5fb      	bpl.n	8006610 <_printf_i+0x1c8>
 8006618:	8018      	strh	r0, [r3, #0]
 800661a:	2300      	movs	r3, #0
 800661c:	6123      	str	r3, [r4, #16]
 800661e:	4616      	mov	r6, r2
 8006620:	e7ba      	b.n	8006598 <_printf_i+0x150>
 8006622:	680b      	ldr	r3, [r1, #0]
 8006624:	1d1a      	adds	r2, r3, #4
 8006626:	600a      	str	r2, [r1, #0]
 8006628:	681e      	ldr	r6, [r3, #0]
 800662a:	6862      	ldr	r2, [r4, #4]
 800662c:	2100      	movs	r1, #0
 800662e:	4630      	mov	r0, r6
 8006630:	f7f9 fdf6 	bl	8000220 <memchr>
 8006634:	b108      	cbz	r0, 800663a <_printf_i+0x1f2>
 8006636:	1b80      	subs	r0, r0, r6
 8006638:	6060      	str	r0, [r4, #4]
 800663a:	6863      	ldr	r3, [r4, #4]
 800663c:	6123      	str	r3, [r4, #16]
 800663e:	2300      	movs	r3, #0
 8006640:	f884 3043 	strb.w	r3, [r4, #67]	; 0x43
 8006644:	e7a8      	b.n	8006598 <_printf_i+0x150>
 8006646:	6923      	ldr	r3, [r4, #16]
 8006648:	4632      	mov	r2, r6
 800664a:	4649      	mov	r1, r9
 800664c:	4640      	mov	r0, r8
 800664e:	47d0      	blx	sl
 8006650:	3001      	adds	r0, #1
 8006652:	d0ab      	beq.n	80065ac <_printf_i+0x164>
 8006654:	6823      	ldr	r3, [r4, #0]
 8006656:	079b      	lsls	r3, r3, #30
 8006658:	d413      	bmi.n	8006682 <_printf_i+0x23a>
 800665a:	68e0      	ldr	r0, [r4, #12]
 800665c:	9b03      	ldr	r3, [sp, #12]
 800665e:	4298      	cmp	r0, r3
 8006660:	bfb8      	it	lt
 8006662:	4618      	movlt	r0, r3
 8006664:	e7a4      	b.n	80065b0 <_printf_i+0x168>
 8006666:	2301      	movs	r3, #1
 8006668:	4632      	mov	r2, r6
 800666a:	4649      	mov	r1, r9
 800666c:	4640      	mov	r0, r8
 800666e:	47d0      	blx	sl
 8006670:	3001      	adds	r0, #1
 8006672:	d09b      	beq.n	80065ac <_printf_i+0x164>
 8006674:	3501      	adds	r5, #1
 8006676:	68e3      	ldr	r3, [r4, #12]
 8006678:	9903      	ldr	r1, [sp, #12]
 800667a:	1a5b      	subs	r3, r3, r1
 800667c:	42ab      	cmp	r3, r5
 800667e:	dcf2      	bgt.n	8006666 <_printf_i+0x21e>
 8006680:	e7eb      	b.n	800665a <_printf_i+0x212>
 8006682:	2500      	movs	r5, #0
 8006684:	f104 0619 	add.w	r6, r4, #25
 8006688:	e7f5      	b.n	8006676 <_printf_i+0x22e>
 800668a:	bf00      	nop
 800668c:	08006d71 	.word	0x08006d71
 8006690:	08006d82 	.word	0x08006d82

08006694 <_sbrk_r>:
 8006694:	b538      	push	{r3, r4, r5, lr}
 8006696:	4d06      	ldr	r5, [pc, #24]	; (80066b0 <_sbrk_r+0x1c>)
 8006698:	2300      	movs	r3, #0
 800669a:	4604      	mov	r4, r0
 800669c:	4608      	mov	r0, r1
 800669e:	602b      	str	r3, [r5, #0]
 80066a0:	f7fa fafc 	bl	8000c9c <_sbrk>
 80066a4:	1c43      	adds	r3, r0, #1
 80066a6:	d102      	bne.n	80066ae <_sbrk_r+0x1a>
 80066a8:	682b      	ldr	r3, [r5, #0]
 80066aa:	b103      	cbz	r3, 80066ae <_sbrk_r+0x1a>
 80066ac:	6023      	str	r3, [r4, #0]
 80066ae:	bd38      	pop	{r3, r4, r5, pc}
 80066b0:	200002ac 	.word	0x200002ac

080066b4 <__sread>:
 80066b4:	b510      	push	{r4, lr}
 80066b6:	460c      	mov	r4, r1
 80066b8:	f9b1 100e 	ldrsh.w	r1, [r1, #14]
 80066bc:	f000 fab4 	bl	8006c28 <_read_r>
 80066c0:	2800      	cmp	r0, #0
 80066c2:	bfab      	itete	ge
 80066c4:	6d63      	ldrge	r3, [r4, #84]	; 0x54
 80066c6:	89a3      	ldrhlt	r3, [r4, #12]
 80066c8:	181b      	addge	r3, r3, r0
 80066ca:	f423 5380 	biclt.w	r3, r3, #4096	; 0x1000
 80066ce:	bfac      	ite	ge
 80066d0:	6563      	strge	r3, [r4, #84]	; 0x54
 80066d2:	81a3      	strhlt	r3, [r4, #12]
 80066d4:	bd10      	pop	{r4, pc}

080066d6 <__swrite>:
 80066d6:	e92d 41f0 	stmdb	sp!, {r4, r5, r6, r7, r8, lr}
 80066da:	461f      	mov	r7, r3
 80066dc:	898b      	ldrh	r3, [r1, #12]
 80066de:	05db      	lsls	r3, r3, #23
 80066e0:	4605      	mov	r5, r0
 80066e2:	460c      	mov	r4, r1
 80066e4:	4616      	mov	r6, r2
 80066e6:	d505      	bpl.n	80066f4 <__swrite+0x1e>
 80066e8:	f9b1 100e 	ldrsh.w	r1, [r1, #14]
 80066ec:	2302      	movs	r3, #2
 80066ee:	2200      	movs	r2, #0
 80066f0:	f000 f9c8 	bl	8006a84 <_lseek_r>
 80066f4:	89a3      	ldrh	r3, [r4, #12]
 80066f6:	f9b4 100e 	ldrsh.w	r1, [r4, #14]
 80066fa:	f423 5380 	bic.w	r3, r3, #4096	; 0x1000
 80066fe:	81a3      	strh	r3, [r4, #12]
 8006700:	4632      	mov	r2, r6
 8006702:	463b      	mov	r3, r7
 8006704:	4628      	mov	r0, r5
 8006706:	e8bd 41f0 	ldmia.w	sp!, {r4, r5, r6, r7, r8, lr}
 800670a:	f000 b869 	b.w	80067e0 <_write_r>

0800670e <__sseek>:
 800670e:	b510      	push	{r4, lr}
 8006710:	460c      	mov	r4, r1
 8006712:	f9b1 100e 	ldrsh.w	r1, [r1, #14]
 8006716:	f000 f9b5 	bl	8006a84 <_lseek_r>
 800671a:	1c43      	adds	r3, r0, #1
 800671c:	89a3      	ldrh	r3, [r4, #12]
 800671e:	bf15      	itete	ne
 8006720:	6560      	strne	r0, [r4, #84]	; 0x54
 8006722:	f423 5380 	biceq.w	r3, r3, #4096	; 0x1000
 8006726:	f443 5380 	orrne.w	r3, r3, #4096	; 0x1000
 800672a:	81a3      	strheq	r3, [r4, #12]
 800672c:	bf18      	it	ne
 800672e:	81a3      	strhne	r3, [r4, #12]
 8006730:	bd10      	pop	{r4, pc}

08006732 <__sclose>:
 8006732:	f9b1 100e 	ldrsh.w	r1, [r1, #14]
 8006736:	f000 b8d3 	b.w	80068e0 <_close_r>
	...

0800673c <__swbuf_r>:
 800673c:	b5f8      	push	{r3, r4, r5, r6, r7, lr}
 800673e:	460e      	mov	r6, r1
 8006740:	4614      	mov	r4, r2
 8006742:	4605      	mov	r5, r0
 8006744:	b118      	cbz	r0, 800674e <__swbuf_r+0x12>
 8006746:	6983      	ldr	r3, [r0, #24]
 8006748:	b90b      	cbnz	r3, 800674e <__swbuf_r+0x12>
 800674a:	f7ff fbbb 	bl	8005ec4 <__sinit>
 800674e:	4b21      	ldr	r3, [pc, #132]	; (80067d4 <__swbuf_r+0x98>)
 8006750:	429c      	cmp	r4, r3
 8006752:	d12b      	bne.n	80067ac <__swbuf_r+0x70>
 8006754:	686c      	ldr	r4, [r5, #4]
 8006756:	69a3      	ldr	r3, [r4, #24]
 8006758:	60a3      	str	r3, [r4, #8]
 800675a:	89a3      	ldrh	r3, [r4, #12]
 800675c:	071a      	lsls	r2, r3, #28
 800675e:	d52f      	bpl.n	80067c0 <__swbuf_r+0x84>
 8006760:	6923      	ldr	r3, [r4, #16]
 8006762:	b36b      	cbz	r3, 80067c0 <__swbuf_r+0x84>
 8006764:	6923      	ldr	r3, [r4, #16]
 8006766:	6820      	ldr	r0, [r4, #0]
 8006768:	1ac0      	subs	r0, r0, r3
 800676a:	6963      	ldr	r3, [r4, #20]
 800676c:	b2f6      	uxtb	r6, r6
 800676e:	4283      	cmp	r3, r0
 8006770:	4637      	mov	r7, r6
 8006772:	dc04      	bgt.n	800677e <__swbuf_r+0x42>
 8006774:	4621      	mov	r1, r4
 8006776:	4628      	mov	r0, r5
 8006778:	f000 f948 	bl	8006a0c <_fflush_r>
 800677c:	bb30      	cbnz	r0, 80067cc <__swbuf_r+0x90>
 800677e:	68a3      	ldr	r3, [r4, #8]
 8006780:	3b01      	subs	r3, #1
 8006782:	60a3      	str	r3, [r4, #8]
 8006784:	6823      	ldr	r3, [r4, #0]
 8006786:	1c5a      	adds	r2, r3, #1
 8006788:	6022      	str	r2, [r4, #0]
 800678a:	701e      	strb	r6, [r3, #0]
 800678c:	6963      	ldr	r3, [r4, #20]
 800678e:	3001      	adds	r0, #1
 8006790:	4283      	cmp	r3, r0
 8006792:	d004      	beq.n	800679e <__swbuf_r+0x62>
 8006794:	89a3      	ldrh	r3, [r4, #12]
 8006796:	07db      	lsls	r3, r3, #31
 8006798:	d506      	bpl.n	80067a8 <__swbuf_r+0x6c>
 800679a:	2e0a      	cmp	r6, #10
 800679c:	d104      	bne.n	80067a8 <__swbuf_r+0x6c>
 800679e:	4621      	mov	r1, r4
 80067a0:	4628      	mov	r0, r5
 80067a2:	f000 f933 	bl	8006a0c <_fflush_r>
 80067a6:	b988      	cbnz	r0, 80067cc <__swbuf_r+0x90>
 80067a8:	4638      	mov	r0, r7
 80067aa:	bdf8      	pop	{r3, r4, r5, r6, r7, pc}
 80067ac:	4b0a      	ldr	r3, [pc, #40]	; (80067d8 <__swbuf_r+0x9c>)
 80067ae:	429c      	cmp	r4, r3
 80067b0:	d101      	bne.n	80067b6 <__swbuf_r+0x7a>
 80067b2:	68ac      	ldr	r4, [r5, #8]
 80067b4:	e7cf      	b.n	8006756 <__swbuf_r+0x1a>
 80067b6:	4b09      	ldr	r3, [pc, #36]	; (80067dc <__swbuf_r+0xa0>)
 80067b8:	429c      	cmp	r4, r3
 80067ba:	bf08      	it	eq
 80067bc:	68ec      	ldreq	r4, [r5, #12]
 80067be:	e7ca      	b.n	8006756 <__swbuf_r+0x1a>
 80067c0:	4621      	mov	r1, r4
 80067c2:	4628      	mov	r0, r5
 80067c4:	f000 f81e 	bl	8006804 <__swsetup_r>
 80067c8:	2800      	cmp	r0, #0
 80067ca:	d0cb      	beq.n	8006764 <__swbuf_r+0x28>
 80067cc:	f04f 37ff 	mov.w	r7, #4294967295
 80067d0:	e7ea      	b.n	80067a8 <__swbuf_r+0x6c>
 80067d2:	bf00      	nop
 80067d4:	08006d20 	.word	0x08006d20
 80067d8:	08006d40 	.word	0x08006d40
 80067dc:	08006d00 	.word	0x08006d00

080067e0 <_write_r>:
 80067e0:	b538      	push	{r3, r4, r5, lr}
 80067e2:	4d07      	ldr	r5, [pc, #28]	; (8006800 <_write_r+0x20>)
 80067e4:	4604      	mov	r4, r0
 80067e6:	4608      	mov	r0, r1
 80067e8:	4611      	mov	r1, r2
 80067ea:	2200      	movs	r2, #0
 80067ec:	602a      	str	r2, [r5, #0]
 80067ee:	461a      	mov	r2, r3
 80067f0:	f7fa fa03 	bl	8000bfa <_write>
 80067f4:	1c43      	adds	r3, r0, #1
 80067f6:	d102      	bne.n	80067fe <_write_r+0x1e>
 80067f8:	682b      	ldr	r3, [r5, #0]
 80067fa:	b103      	cbz	r3, 80067fe <_write_r+0x1e>
 80067fc:	6023      	str	r3, [r4, #0]
 80067fe:	bd38      	pop	{r3, r4, r5, pc}
 8006800:	200002ac 	.word	0x200002ac

08006804 <__swsetup_r>:
 8006804:	4b32      	ldr	r3, [pc, #200]	; (80068d0 <__swsetup_r+0xcc>)
 8006806:	b570      	push	{r4, r5, r6, lr}
 8006808:	681d      	ldr	r5, [r3, #0]
 800680a:	4606      	mov	r6, r0
 800680c:	460c      	mov	r4, r1
 800680e:	b125      	cbz	r5, 800681a <__swsetup_r+0x16>
 8006810:	69ab      	ldr	r3, [r5, #24]
 8006812:	b913      	cbnz	r3, 800681a <__swsetup_r+0x16>
 8006814:	4628      	mov	r0, r5
 8006816:	f7ff fb55 	bl	8005ec4 <__sinit>
 800681a:	4b2e      	ldr	r3, [pc, #184]	; (80068d4 <__swsetup_r+0xd0>)
 800681c:	429c      	cmp	r4, r3
 800681e:	d10f      	bne.n	8006840 <__swsetup_r+0x3c>
 8006820:	686c      	ldr	r4, [r5, #4]
 8006822:	89a3      	ldrh	r3, [r4, #12]
 8006824:	f9b4 200c 	ldrsh.w	r2, [r4, #12]
 8006828:	0719      	lsls	r1, r3, #28
 800682a:	d42c      	bmi.n	8006886 <__swsetup_r+0x82>
 800682c:	06dd      	lsls	r5, r3, #27
 800682e:	d411      	bmi.n	8006854 <__swsetup_r+0x50>
 8006830:	2309      	movs	r3, #9
 8006832:	6033      	str	r3, [r6, #0]
 8006834:	f042 0340 	orr.w	r3, r2, #64	; 0x40
 8006838:	81a3      	strh	r3, [r4, #12]
 800683a:	f04f 30ff 	mov.w	r0, #4294967295
 800683e:	e03e      	b.n	80068be <__swsetup_r+0xba>
 8006840:	4b25      	ldr	r3, [pc, #148]	; (80068d8 <__swsetup_r+0xd4>)
 8006842:	429c      	cmp	r4, r3
 8006844:	d101      	bne.n	800684a <__swsetup_r+0x46>
 8006846:	68ac      	ldr	r4, [r5, #8]
 8006848:	e7eb      	b.n	8006822 <__swsetup_r+0x1e>
 800684a:	4b24      	ldr	r3, [pc, #144]	; (80068dc <__swsetup_r+0xd8>)
 800684c:	429c      	cmp	r4, r3
 800684e:	bf08      	it	eq
 8006850:	68ec      	ldreq	r4, [r5, #12]
 8006852:	e7e6      	b.n	8006822 <__swsetup_r+0x1e>
 8006854:	0758      	lsls	r0, r3, #29
 8006856:	d512      	bpl.n	800687e <__swsetup_r+0x7a>
 8006858:	6b61      	ldr	r1, [r4, #52]	; 0x34
 800685a:	b141      	cbz	r1, 800686e <__swsetup_r+0x6a>
 800685c:	f104 0344 	add.w	r3, r4, #68	; 0x44
 8006860:	4299      	cmp	r1, r3
 8006862:	d002      	beq.n	800686a <__swsetup_r+0x66>
 8006864:	4630      	mov	r0, r6
 8006866:	f000 f98f 	bl	8006b88 <_free_r>
 800686a:	2300      	movs	r3, #0
 800686c:	6363      	str	r3, [r4, #52]	; 0x34
 800686e:	89a3      	ldrh	r3, [r4, #12]
 8006870:	f023 0324 	bic.w	r3, r3, #36	; 0x24
 8006874:	81a3      	strh	r3, [r4, #12]
 8006876:	2300      	movs	r3, #0
 8006878:	6063      	str	r3, [r4, #4]
 800687a:	6923      	ldr	r3, [r4, #16]
 800687c:	6023      	str	r3, [r4, #0]
 800687e:	89a3      	ldrh	r3, [r4, #12]
 8006880:	f043 0308 	orr.w	r3, r3, #8
 8006884:	81a3      	strh	r3, [r4, #12]
 8006886:	6923      	ldr	r3, [r4, #16]
 8006888:	b94b      	cbnz	r3, 800689e <__swsetup_r+0x9a>
 800688a:	89a3      	ldrh	r3, [r4, #12]
 800688c:	f403 7320 	and.w	r3, r3, #640	; 0x280
 8006890:	f5b3 7f00 	cmp.w	r3, #512	; 0x200
 8006894:	d003      	beq.n	800689e <__swsetup_r+0x9a>
 8006896:	4621      	mov	r1, r4
 8006898:	4630      	mov	r0, r6
 800689a:	f000 f929 	bl	8006af0 <__smakebuf_r>
 800689e:	89a0      	ldrh	r0, [r4, #12]
 80068a0:	f9b4 200c 	ldrsh.w	r2, [r4, #12]
 80068a4:	f010 0301 	ands.w	r3, r0, #1
 80068a8:	d00a      	beq.n	80068c0 <__swsetup_r+0xbc>
 80068aa:	2300      	movs	r3, #0
 80068ac:	60a3      	str	r3, [r4, #8]
 80068ae:	6963      	ldr	r3, [r4, #20]
 80068b0:	425b      	negs	r3, r3
 80068b2:	61a3      	str	r3, [r4, #24]
 80068b4:	6923      	ldr	r3, [r4, #16]
 80068b6:	b943      	cbnz	r3, 80068ca <__swsetup_r+0xc6>
 80068b8:	f010 0080 	ands.w	r0, r0, #128	; 0x80
 80068bc:	d1ba      	bne.n	8006834 <__swsetup_r+0x30>
 80068be:	bd70      	pop	{r4, r5, r6, pc}
 80068c0:	0781      	lsls	r1, r0, #30
 80068c2:	bf58      	it	pl
 80068c4:	6963      	ldrpl	r3, [r4, #20]
 80068c6:	60a3      	str	r3, [r4, #8]
 80068c8:	e7f4      	b.n	80068b4 <__swsetup_r+0xb0>
 80068ca:	2000      	movs	r0, #0
 80068cc:	e7f7      	b.n	80068be <__swsetup_r+0xba>
 80068ce:	bf00      	nop
 80068d0:	20000018 	.word	0x20000018
 80068d4:	08006d20 	.word	0x08006d20
 80068d8:	08006d40 	.word	0x08006d40
 80068dc:	08006d00 	.word	0x08006d00

080068e0 <_close_r>:
 80068e0:	b538      	push	{r3, r4, r5, lr}
 80068e2:	4d06      	ldr	r5, [pc, #24]	; (80068fc <_close_r+0x1c>)
 80068e4:	2300      	movs	r3, #0
 80068e6:	4604      	mov	r4, r0
 80068e8:	4608      	mov	r0, r1
 80068ea:	602b      	str	r3, [r5, #0]
 80068ec:	f7fa f9a1 	bl	8000c32 <_close>
 80068f0:	1c43      	adds	r3, r0, #1
 80068f2:	d102      	bne.n	80068fa <_close_r+0x1a>
 80068f4:	682b      	ldr	r3, [r5, #0]
 80068f6:	b103      	cbz	r3, 80068fa <_close_r+0x1a>
 80068f8:	6023      	str	r3, [r4, #0]
 80068fa:	bd38      	pop	{r3, r4, r5, pc}
 80068fc:	200002ac 	.word	0x200002ac

08006900 <__sflush_r>:
 8006900:	898a      	ldrh	r2, [r1, #12]
 8006902:	e92d 41f0 	stmdb	sp!, {r4, r5, r6, r7, r8, lr}
 8006906:	4605      	mov	r5, r0
 8006908:	0710      	lsls	r0, r2, #28
 800690a:	460c      	mov	r4, r1
 800690c:	d458      	bmi.n	80069c0 <__sflush_r+0xc0>
 800690e:	684b      	ldr	r3, [r1, #4]
 8006910:	2b00      	cmp	r3, #0
 8006912:	dc05      	bgt.n	8006920 <__sflush_r+0x20>
 8006914:	6c0b      	ldr	r3, [r1, #64]	; 0x40
 8006916:	2b00      	cmp	r3, #0
 8006918:	dc02      	bgt.n	8006920 <__sflush_r+0x20>
 800691a:	2000      	movs	r0, #0
 800691c:	e8bd 81f0 	ldmia.w	sp!, {r4, r5, r6, r7, r8, pc}
 8006920:	6ae6      	ldr	r6, [r4, #44]	; 0x2c
 8006922:	2e00      	cmp	r6, #0
 8006924:	d0f9      	beq.n	800691a <__sflush_r+0x1a>
 8006926:	2300      	movs	r3, #0
 8006928:	f412 5280 	ands.w	r2, r2, #4096	; 0x1000
 800692c:	682f      	ldr	r7, [r5, #0]
 800692e:	602b      	str	r3, [r5, #0]
 8006930:	d032      	beq.n	8006998 <__sflush_r+0x98>
 8006932:	6d60      	ldr	r0, [r4, #84]	; 0x54
 8006934:	89a3      	ldrh	r3, [r4, #12]
 8006936:	075a      	lsls	r2, r3, #29
 8006938:	d505      	bpl.n	8006946 <__sflush_r+0x46>
 800693a:	6863      	ldr	r3, [r4, #4]
 800693c:	1ac0      	subs	r0, r0, r3
 800693e:	6b63      	ldr	r3, [r4, #52]	; 0x34
 8006940:	b10b      	cbz	r3, 8006946 <__sflush_r+0x46>
 8006942:	6c23      	ldr	r3, [r4, #64]	; 0x40
 8006944:	1ac0      	subs	r0, r0, r3
 8006946:	2300      	movs	r3, #0
 8006948:	4602      	mov	r2, r0
 800694a:	6ae6      	ldr	r6, [r4, #44]	; 0x2c
 800694c:	6a21      	ldr	r1, [r4, #32]
 800694e:	4628      	mov	r0, r5
 8006950:	47b0      	blx	r6
 8006952:	1c43      	adds	r3, r0, #1
 8006954:	89a3      	ldrh	r3, [r4, #12]
 8006956:	d106      	bne.n	8006966 <__sflush_r+0x66>
 8006958:	6829      	ldr	r1, [r5, #0]
 800695a:	291d      	cmp	r1, #29
 800695c:	d82c      	bhi.n	80069b8 <__sflush_r+0xb8>
 800695e:	4a2a      	ldr	r2, [pc, #168]	; (8006a08 <__sflush_r+0x108>)
 8006960:	40ca      	lsrs	r2, r1
 8006962:	07d6      	lsls	r6, r2, #31
 8006964:	d528      	bpl.n	80069b8 <__sflush_r+0xb8>
 8006966:	2200      	movs	r2, #0
 8006968:	6062      	str	r2, [r4, #4]
 800696a:	04d9      	lsls	r1, r3, #19
 800696c:	6922      	ldr	r2, [r4, #16]
 800696e:	6022      	str	r2, [r4, #0]
 8006970:	d504      	bpl.n	800697c <__sflush_r+0x7c>
 8006972:	1c42      	adds	r2, r0, #1
 8006974:	d101      	bne.n	800697a <__sflush_r+0x7a>
 8006976:	682b      	ldr	r3, [r5, #0]
 8006978:	b903      	cbnz	r3, 800697c <__sflush_r+0x7c>
 800697a:	6560      	str	r0, [r4, #84]	; 0x54
 800697c:	6b61      	ldr	r1, [r4, #52]	; 0x34
 800697e:	602f      	str	r7, [r5, #0]
 8006980:	2900      	cmp	r1, #0
 8006982:	d0ca      	beq.n	800691a <__sflush_r+0x1a>
 8006984:	f104 0344 	add.w	r3, r4, #68	; 0x44
 8006988:	4299      	cmp	r1, r3
 800698a:	d002      	beq.n	8006992 <__sflush_r+0x92>
 800698c:	4628      	mov	r0, r5
 800698e:	f000 f8fb 	bl	8006b88 <_free_r>
 8006992:	2000      	movs	r0, #0
 8006994:	6360      	str	r0, [r4, #52]	; 0x34
 8006996:	e7c1      	b.n	800691c <__sflush_r+0x1c>
 8006998:	6a21      	ldr	r1, [r4, #32]
 800699a:	2301      	movs	r3, #1
 800699c:	4628      	mov	r0, r5
 800699e:	47b0      	blx	r6
 80069a0:	1c41      	adds	r1, r0, #1
 80069a2:	d1c7      	bne.n	8006934 <__sflush_r+0x34>
 80069a4:	682b      	ldr	r3, [r5, #0]
 80069a6:	2b00      	cmp	r3, #0
 80069a8:	d0c4      	beq.n	8006934 <__sflush_r+0x34>
 80069aa:	2b1d      	cmp	r3, #29
 80069ac:	d001      	beq.n	80069b2 <__sflush_r+0xb2>
 80069ae:	2b16      	cmp	r3, #22
 80069b0:	d101      	bne.n	80069b6 <__sflush_r+0xb6>
 80069b2:	602f      	str	r7, [r5, #0]
 80069b4:	e7b1      	b.n	800691a <__sflush_r+0x1a>
 80069b6:	89a3      	ldrh	r3, [r4, #12]
 80069b8:	f043 0340 	orr.w	r3, r3, #64	; 0x40
 80069bc:	81a3      	strh	r3, [r4, #12]
 80069be:	e7ad      	b.n	800691c <__sflush_r+0x1c>
 80069c0:	690f      	ldr	r7, [r1, #16]
 80069c2:	2f00      	cmp	r7, #0
 80069c4:	d0a9      	beq.n	800691a <__sflush_r+0x1a>
 80069c6:	0793      	lsls	r3, r2, #30
 80069c8:	680e      	ldr	r6, [r1, #0]
 80069ca:	bf08      	it	eq
 80069cc:	694b      	ldreq	r3, [r1, #20]
 80069ce:	600f      	str	r7, [r1, #0]
 80069d0:	bf18      	it	ne
 80069d2:	2300      	movne	r3, #0
 80069d4:	eba6 0807 	sub.w	r8, r6, r7
 80069d8:	608b      	str	r3, [r1, #8]
 80069da:	f1b8 0f00 	cmp.w	r8, #0
 80069de:	dd9c      	ble.n	800691a <__sflush_r+0x1a>
 80069e0:	6a21      	ldr	r1, [r4, #32]
 80069e2:	6aa6      	ldr	r6, [r4, #40]	; 0x28
 80069e4:	4643      	mov	r3, r8
 80069e6:	463a      	mov	r2, r7
 80069e8:	4628      	mov	r0, r5
 80069ea:	47b0      	blx	r6
 80069ec:	2800      	cmp	r0, #0
 80069ee:	dc06      	bgt.n	80069fe <__sflush_r+0xfe>
 80069f0:	89a3      	ldrh	r3, [r4, #12]
 80069f2:	f043 0340 	orr.w	r3, r3, #64	; 0x40
 80069f6:	81a3      	strh	r3, [r4, #12]
 80069f8:	f04f 30ff 	mov.w	r0, #4294967295
 80069fc:	e78e      	b.n	800691c <__sflush_r+0x1c>
 80069fe:	4407      	add	r7, r0
 8006a00:	eba8 0800 	sub.w	r8, r8, r0
 8006a04:	e7e9      	b.n	80069da <__sflush_r+0xda>
 8006a06:	bf00      	nop
 8006a08:	20400001 	.word	0x20400001

08006a0c <_fflush_r>:
 8006a0c:	b538      	push	{r3, r4, r5, lr}
 8006a0e:	690b      	ldr	r3, [r1, #16]
 8006a10:	4605      	mov	r5, r0
 8006a12:	460c      	mov	r4, r1
 8006a14:	b913      	cbnz	r3, 8006a1c <_fflush_r+0x10>
 8006a16:	2500      	movs	r5, #0
 8006a18:	4628      	mov	r0, r5
 8006a1a:	bd38      	pop	{r3, r4, r5, pc}
 8006a1c:	b118      	cbz	r0, 8006a26 <_fflush_r+0x1a>
 8006a1e:	6983      	ldr	r3, [r0, #24]
 8006a20:	b90b      	cbnz	r3, 8006a26 <_fflush_r+0x1a>
 8006a22:	f7ff fa4f 	bl	8005ec4 <__sinit>
 8006a26:	4b14      	ldr	r3, [pc, #80]	; (8006a78 <_fflush_r+0x6c>)
 8006a28:	429c      	cmp	r4, r3
 8006a2a:	d11b      	bne.n	8006a64 <_fflush_r+0x58>
 8006a2c:	686c      	ldr	r4, [r5, #4]
 8006a2e:	f9b4 300c 	ldrsh.w	r3, [r4, #12]
 8006a32:	2b00      	cmp	r3, #0
 8006a34:	d0ef      	beq.n	8006a16 <_fflush_r+0xa>
 8006a36:	6e62      	ldr	r2, [r4, #100]	; 0x64
 8006a38:	07d0      	lsls	r0, r2, #31
 8006a3a:	d404      	bmi.n	8006a46 <_fflush_r+0x3a>
 8006a3c:	0599      	lsls	r1, r3, #22
 8006a3e:	d402      	bmi.n	8006a46 <_fflush_r+0x3a>
 8006a40:	6da0      	ldr	r0, [r4, #88]	; 0x58
 8006a42:	f7ff fadd 	bl	8006000 <__retarget_lock_acquire_recursive>
 8006a46:	4628      	mov	r0, r5
 8006a48:	4621      	mov	r1, r4
 8006a4a:	f7ff ff59 	bl	8006900 <__sflush_r>
 8006a4e:	6e63      	ldr	r3, [r4, #100]	; 0x64
 8006a50:	07da      	lsls	r2, r3, #31
 8006a52:	4605      	mov	r5, r0
 8006a54:	d4e0      	bmi.n	8006a18 <_fflush_r+0xc>
 8006a56:	89a3      	ldrh	r3, [r4, #12]
 8006a58:	059b      	lsls	r3, r3, #22
 8006a5a:	d4dd      	bmi.n	8006a18 <_fflush_r+0xc>
 8006a5c:	6da0      	ldr	r0, [r4, #88]	; 0x58
 8006a5e:	f7ff fad0 	bl	8006002 <__retarget_lock_release_recursive>
 8006a62:	e7d9      	b.n	8006a18 <_fflush_r+0xc>
 8006a64:	4b05      	ldr	r3, [pc, #20]	; (8006a7c <_fflush_r+0x70>)
 8006a66:	429c      	cmp	r4, r3
 8006a68:	d101      	bne.n	8006a6e <_fflush_r+0x62>
 8006a6a:	68ac      	ldr	r4, [r5, #8]
 8006a6c:	e7df      	b.n	8006a2e <_fflush_r+0x22>
 8006a6e:	4b04      	ldr	r3, [pc, #16]	; (8006a80 <_fflush_r+0x74>)
 8006a70:	429c      	cmp	r4, r3
 8006a72:	bf08      	it	eq
 8006a74:	68ec      	ldreq	r4, [r5, #12]
 8006a76:	e7da      	b.n	8006a2e <_fflush_r+0x22>
 8006a78:	08006d20 	.word	0x08006d20
 8006a7c:	08006d40 	.word	0x08006d40
 8006a80:	08006d00 	.word	0x08006d00

08006a84 <_lseek_r>:
 8006a84:	b538      	push	{r3, r4, r5, lr}
 8006a86:	4d07      	ldr	r5, [pc, #28]	; (8006aa4 <_lseek_r+0x20>)
 8006a88:	4604      	mov	r4, r0
 8006a8a:	4608      	mov	r0, r1
 8006a8c:	4611      	mov	r1, r2
 8006a8e:	2200      	movs	r2, #0
 8006a90:	602a      	str	r2, [r5, #0]
 8006a92:	461a      	mov	r2, r3
 8006a94:	f7fa f8f4 	bl	8000c80 <_lseek>
 8006a98:	1c43      	adds	r3, r0, #1
 8006a9a:	d102      	bne.n	8006aa2 <_lseek_r+0x1e>
 8006a9c:	682b      	ldr	r3, [r5, #0]
 8006a9e:	b103      	cbz	r3, 8006aa2 <_lseek_r+0x1e>
 8006aa0:	6023      	str	r3, [r4, #0]
 8006aa2:	bd38      	pop	{r3, r4, r5, pc}
 8006aa4:	200002ac 	.word	0x200002ac

08006aa8 <__swhatbuf_r>:
 8006aa8:	b570      	push	{r4, r5, r6, lr}
 8006aaa:	460e      	mov	r6, r1
 8006aac:	f9b1 100e 	ldrsh.w	r1, [r1, #14]
 8006ab0:	2900      	cmp	r1, #0
 8006ab2:	b096      	sub	sp, #88	; 0x58
 8006ab4:	4614      	mov	r4, r2
 8006ab6:	461d      	mov	r5, r3
 8006ab8:	da07      	bge.n	8006aca <__swhatbuf_r+0x22>
 8006aba:	2300      	movs	r3, #0
 8006abc:	602b      	str	r3, [r5, #0]
 8006abe:	89b3      	ldrh	r3, [r6, #12]
 8006ac0:	061a      	lsls	r2, r3, #24
 8006ac2:	d410      	bmi.n	8006ae6 <__swhatbuf_r+0x3e>
 8006ac4:	f44f 6380 	mov.w	r3, #1024	; 0x400
 8006ac8:	e00e      	b.n	8006ae8 <__swhatbuf_r+0x40>
 8006aca:	466a      	mov	r2, sp
 8006acc:	f000 f8be 	bl	8006c4c <_fstat_r>
 8006ad0:	2800      	cmp	r0, #0
 8006ad2:	dbf2      	blt.n	8006aba <__swhatbuf_r+0x12>
 8006ad4:	9a01      	ldr	r2, [sp, #4]
 8006ad6:	f402 4270 	and.w	r2, r2, #61440	; 0xf000
 8006ada:	f5a2 5300 	sub.w	r3, r2, #8192	; 0x2000
 8006ade:	425a      	negs	r2, r3
 8006ae0:	415a      	adcs	r2, r3
 8006ae2:	602a      	str	r2, [r5, #0]
 8006ae4:	e7ee      	b.n	8006ac4 <__swhatbuf_r+0x1c>
 8006ae6:	2340      	movs	r3, #64	; 0x40
 8006ae8:	2000      	movs	r0, #0
 8006aea:	6023      	str	r3, [r4, #0]
 8006aec:	b016      	add	sp, #88	; 0x58
 8006aee:	bd70      	pop	{r4, r5, r6, pc}

08006af0 <__smakebuf_r>:
 8006af0:	898b      	ldrh	r3, [r1, #12]
 8006af2:	b573      	push	{r0, r1, r4, r5, r6, lr}
 8006af4:	079d      	lsls	r5, r3, #30
 8006af6:	4606      	mov	r6, r0
 8006af8:	460c      	mov	r4, r1
 8006afa:	d507      	bpl.n	8006b0c <__smakebuf_r+0x1c>
 8006afc:	f104 0347 	add.w	r3, r4, #71	; 0x47
 8006b00:	6023      	str	r3, [r4, #0]
 8006b02:	6123      	str	r3, [r4, #16]
 8006b04:	2301      	movs	r3, #1
 8006b06:	6163      	str	r3, [r4, #20]
 8006b08:	b002      	add	sp, #8
 8006b0a:	bd70      	pop	{r4, r5, r6, pc}
 8006b0c:	ab01      	add	r3, sp, #4
 8006b0e:	466a      	mov	r2, sp
 8006b10:	f7ff ffca 	bl	8006aa8 <__swhatbuf_r>
 8006b14:	9900      	ldr	r1, [sp, #0]
 8006b16:	4605      	mov	r5, r0
 8006b18:	4630      	mov	r0, r6
 8006b1a:	f7ff fa73 	bl	8006004 <_malloc_r>
 8006b1e:	b948      	cbnz	r0, 8006b34 <__smakebuf_r+0x44>
 8006b20:	f9b4 300c 	ldrsh.w	r3, [r4, #12]
 8006b24:	059a      	lsls	r2, r3, #22
 8006b26:	d4ef      	bmi.n	8006b08 <__smakebuf_r+0x18>
 8006b28:	f023 0303 	bic.w	r3, r3, #3
 8006b2c:	f043 0302 	orr.w	r3, r3, #2
 8006b30:	81a3      	strh	r3, [r4, #12]
 8006b32:	e7e3      	b.n	8006afc <__smakebuf_r+0xc>
 8006b34:	4b0d      	ldr	r3, [pc, #52]	; (8006b6c <__smakebuf_r+0x7c>)
 8006b36:	62b3      	str	r3, [r6, #40]	; 0x28
 8006b38:	89a3      	ldrh	r3, [r4, #12]
 8006b3a:	6020      	str	r0, [r4, #0]
 8006b3c:	f043 0380 	orr.w	r3, r3, #128	; 0x80
 8006b40:	81a3      	strh	r3, [r4, #12]
 8006b42:	9b00      	ldr	r3, [sp, #0]
 8006b44:	6163      	str	r3, [r4, #20]
 8006b46:	9b01      	ldr	r3, [sp, #4]
 8006b48:	6120      	str	r0, [r4, #16]
 8006b4a:	b15b      	cbz	r3, 8006b64 <__smakebuf_r+0x74>
 8006b4c:	f9b4 100e 	ldrsh.w	r1, [r4, #14]
 8006b50:	4630      	mov	r0, r6
 8006b52:	f000 f88d 	bl	8006c70 <_isatty_r>
 8006b56:	b128      	cbz	r0, 8006b64 <__smakebuf_r+0x74>
 8006b58:	89a3      	ldrh	r3, [r4, #12]
 8006b5a:	f023 0303 	bic.w	r3, r3, #3
 8006b5e:	f043 0301 	orr.w	r3, r3, #1
 8006b62:	81a3      	strh	r3, [r4, #12]
 8006b64:	89a0      	ldrh	r0, [r4, #12]
 8006b66:	4305      	orrs	r5, r0
 8006b68:	81a5      	strh	r5, [r4, #12]
 8006b6a:	e7cd      	b.n	8006b08 <__smakebuf_r+0x18>
 8006b6c:	08005e5d 	.word	0x08005e5d

08006b70 <__malloc_lock>:
 8006b70:	4801      	ldr	r0, [pc, #4]	; (8006b78 <__malloc_lock+0x8>)
 8006b72:	f7ff ba45 	b.w	8006000 <__retarget_lock_acquire_recursive>
 8006b76:	bf00      	nop
 8006b78:	200002a4 	.word	0x200002a4

08006b7c <__malloc_unlock>:
 8006b7c:	4801      	ldr	r0, [pc, #4]	; (8006b84 <__malloc_unlock+0x8>)
 8006b7e:	f7ff ba40 	b.w	8006002 <__retarget_lock_release_recursive>
 8006b82:	bf00      	nop
 8006b84:	200002a4 	.word	0x200002a4

08006b88 <_free_r>:
 8006b88:	b537      	push	{r0, r1, r2, r4, r5, lr}
 8006b8a:	2900      	cmp	r1, #0
 8006b8c:	d048      	beq.n	8006c20 <_free_r+0x98>
 8006b8e:	f851 3c04 	ldr.w	r3, [r1, #-4]
 8006b92:	9001      	str	r0, [sp, #4]
 8006b94:	2b00      	cmp	r3, #0
 8006b96:	f1a1 0404 	sub.w	r4, r1, #4
 8006b9a:	bfb8      	it	lt
 8006b9c:	18e4      	addlt	r4, r4, r3
 8006b9e:	f7ff ffe7 	bl	8006b70 <__malloc_lock>
 8006ba2:	4a20      	ldr	r2, [pc, #128]	; (8006c24 <_free_r+0x9c>)
 8006ba4:	9801      	ldr	r0, [sp, #4]
 8006ba6:	6813      	ldr	r3, [r2, #0]
 8006ba8:	4615      	mov	r5, r2
 8006baa:	b933      	cbnz	r3, 8006bba <_free_r+0x32>
 8006bac:	6063      	str	r3, [r4, #4]
 8006bae:	6014      	str	r4, [r2, #0]
 8006bb0:	b003      	add	sp, #12
 8006bb2:	e8bd 4030 	ldmia.w	sp!, {r4, r5, lr}
 8006bb6:	f7ff bfe1 	b.w	8006b7c <__malloc_unlock>
 8006bba:	42a3      	cmp	r3, r4
 8006bbc:	d90b      	bls.n	8006bd6 <_free_r+0x4e>
 8006bbe:	6821      	ldr	r1, [r4, #0]
 8006bc0:	1862      	adds	r2, r4, r1
 8006bc2:	4293      	cmp	r3, r2
 8006bc4:	bf04      	itt	eq
 8006bc6:	681a      	ldreq	r2, [r3, #0]
 8006bc8:	685b      	ldreq	r3, [r3, #4]
 8006bca:	6063      	str	r3, [r4, #4]
 8006bcc:	bf04      	itt	eq
 8006bce:	1852      	addeq	r2, r2, r1
 8006bd0:	6022      	streq	r2, [r4, #0]
 8006bd2:	602c      	str	r4, [r5, #0]
 8006bd4:	e7ec      	b.n	8006bb0 <_free_r+0x28>
 8006bd6:	461a      	mov	r2, r3
 8006bd8:	685b      	ldr	r3, [r3, #4]
 8006bda:	b10b      	cbz	r3, 8006be0 <_free_r+0x58>
 8006bdc:	42a3      	cmp	r3, r4
 8006bde:	d9fa      	bls.n	8006bd6 <_free_r+0x4e>
 8006be0:	6811      	ldr	r1, [r2, #0]
 8006be2:	1855      	adds	r5, r2, r1
 8006be4:	42a5      	cmp	r5, r4
 8006be6:	d10b      	bne.n	8006c00 <_free_r+0x78>
 8006be8:	6824      	ldr	r4, [r4, #0]
 8006bea:	4421      	add	r1, r4
 8006bec:	1854      	adds	r4, r2, r1
 8006bee:	42a3      	cmp	r3, r4
 8006bf0:	6011      	str	r1, [r2, #0]
 8006bf2:	d1dd      	bne.n	8006bb0 <_free_r+0x28>
 8006bf4:	681c      	ldr	r4, [r3, #0]
 8006bf6:	685b      	ldr	r3, [r3, #4]
 8006bf8:	6053      	str	r3, [r2, #4]
 8006bfa:	4421      	add	r1, r4
 8006bfc:	6011      	str	r1, [r2, #0]
 8006bfe:	e7d7      	b.n	8006bb0 <_free_r+0x28>
 8006c00:	d902      	bls.n	8006c08 <_free_r+0x80>
 8006c02:	230c      	movs	r3, #12
 8006c04:	6003      	str	r3, [r0, #0]
 8006c06:	e7d3      	b.n	8006bb0 <_free_r+0x28>
 8006c08:	6825      	ldr	r5, [r4, #0]
 8006c0a:	1961      	adds	r1, r4, r5
 8006c0c:	428b      	cmp	r3, r1
 8006c0e:	bf04      	itt	eq
 8006c10:	6819      	ldreq	r1, [r3, #0]
 8006c12:	685b      	ldreq	r3, [r3, #4]
 8006c14:	6063      	str	r3, [r4, #4]
 8006c16:	bf04      	itt	eq
 8006c18:	1949      	addeq	r1, r1, r5
 8006c1a:	6021      	streq	r1, [r4, #0]
 8006c1c:	6054      	str	r4, [r2, #4]
 8006c1e:	e7c7      	b.n	8006bb0 <_free_r+0x28>
 8006c20:	b003      	add	sp, #12
 8006c22:	bd30      	pop	{r4, r5, pc}
 8006c24:	200000a0 	.word	0x200000a0

08006c28 <_read_r>:
 8006c28:	b538      	push	{r3, r4, r5, lr}
 8006c2a:	4d07      	ldr	r5, [pc, #28]	; (8006c48 <_read_r+0x20>)
 8006c2c:	4604      	mov	r4, r0
 8006c2e:	4608      	mov	r0, r1
 8006c30:	4611      	mov	r1, r2
 8006c32:	2200      	movs	r2, #0
 8006c34:	602a      	str	r2, [r5, #0]
 8006c36:	461a      	mov	r2, r3
 8006c38:	f7f9 ffc2 	bl	8000bc0 <_read>
 8006c3c:	1c43      	adds	r3, r0, #1
 8006c3e:	d102      	bne.n	8006c46 <_read_r+0x1e>
 8006c40:	682b      	ldr	r3, [r5, #0]
 8006c42:	b103      	cbz	r3, 8006c46 <_read_r+0x1e>
 8006c44:	6023      	str	r3, [r4, #0]
 8006c46:	bd38      	pop	{r3, r4, r5, pc}
 8006c48:	200002ac 	.word	0x200002ac

08006c4c <_fstat_r>:
 8006c4c:	b538      	push	{r3, r4, r5, lr}
 8006c4e:	4d07      	ldr	r5, [pc, #28]	; (8006c6c <_fstat_r+0x20>)
 8006c50:	2300      	movs	r3, #0
 8006c52:	4604      	mov	r4, r0
 8006c54:	4608      	mov	r0, r1
 8006c56:	4611      	mov	r1, r2
 8006c58:	602b      	str	r3, [r5, #0]
 8006c5a:	f7f9 fff6 	bl	8000c4a <_fstat>
 8006c5e:	1c43      	adds	r3, r0, #1
 8006c60:	d102      	bne.n	8006c68 <_fstat_r+0x1c>
 8006c62:	682b      	ldr	r3, [r5, #0]
 8006c64:	b103      	cbz	r3, 8006c68 <_fstat_r+0x1c>
 8006c66:	6023      	str	r3, [r4, #0]
 8006c68:	bd38      	pop	{r3, r4, r5, pc}
 8006c6a:	bf00      	nop
 8006c6c:	200002ac 	.word	0x200002ac

08006c70 <_isatty_r>:
 8006c70:	b538      	push	{r3, r4, r5, lr}
 8006c72:	4d06      	ldr	r5, [pc, #24]	; (8006c8c <_isatty_r+0x1c>)
 8006c74:	2300      	movs	r3, #0
 8006c76:	4604      	mov	r4, r0
 8006c78:	4608      	mov	r0, r1
 8006c7a:	602b      	str	r3, [r5, #0]
 8006c7c:	f7f9 fff5 	bl	8000c6a <_isatty>
 8006c80:	1c43      	adds	r3, r0, #1
 8006c82:	d102      	bne.n	8006c8a <_isatty_r+0x1a>
 8006c84:	682b      	ldr	r3, [r5, #0]
 8006c86:	b103      	cbz	r3, 8006c8a <_isatty_r+0x1a>
 8006c88:	6023      	str	r3, [r4, #0]
 8006c8a:	bd38      	pop	{r3, r4, r5, pc}
 8006c8c:	200002ac 	.word	0x200002ac

08006c90 <_init>:
 8006c90:	b5f8      	push	{r3, r4, r5, r6, r7, lr}
 8006c92:	bf00      	nop
 8006c94:	bcf8      	pop	{r3, r4, r5, r6, r7}
 8006c96:	bc08      	pop	{r3}
 8006c98:	469e      	mov	lr, r3
 8006c9a:	4770      	bx	lr

08006c9c <_fini>:
 8006c9c:	b5f8      	push	{r3, r4, r5, r6, r7, lr}
 8006c9e:	bf00      	nop
 8006ca0:	bcf8      	pop	{r3, r4, r5, r6, r7}
 8006ca2:	bc08      	pop	{r3}
 8006ca4:	469e      	mov	lr, r3
 8006ca6:	4770      	bx	lr
